; ModuleID = 'kdTree.C'
source_filename = "kdTree.C"
target datalayout = "e-m:e-i64:64-f80:128-n8:16:32:64-S128"
target triple = "x86_64-unknown-linux-gnu"

%"class.std::ios_base::Init" = type { i8 }
%struct.timer = type <{ double, double, double, i8, [3 x i8], %struct.timezone, [4 x i8] }>
%struct.timezone = type { i32, i32 }
%"class.std::basic_ostream" = type { i32 (...)**, %"class.std::basic_ios" }
%"class.std::basic_ios" = type { %"class.std::ios_base", %"class.std::basic_ostream"*, i8, i8, %"class.std::basic_streambuf"*, %"class.std::ctype"*, %"class.std::num_put"*, %"class.std::num_get"* }
%"class.std::ios_base" = type { i32 (...)**, i64, i64, i32, i32, i32, %"struct.std::ios_base::_Callback_list"*, %"struct.std::ios_base::_Words", [8 x %"struct.std::ios_base::_Words"], i32, %"struct.std::ios_base::_Words"*, %"class.std::locale" }
%"struct.std::ios_base::_Callback_list" = type { %"struct.std::ios_base::_Callback_list"*, void (i32, %"class.std::ios_base"*, i32)*, i32, i32 }
%"struct.std::ios_base::_Words" = type { i8*, i64 }
%"class.std::locale" = type { %"class.std::locale::_Impl"* }
%"class.std::locale::_Impl" = type { i32, %"class.std::locale::facet"**, i64, %"class.std::locale::facet"**, i8** }
%"class.std::locale::facet" = type <{ i32 (...)**, i32, [4 x i8] }>
%"class.std::basic_streambuf" = type { i32 (...)**, i8*, i8*, i8*, i8*, i8*, i8*, %"class.std::locale" }
%"class.std::ctype" = type <{ %"class.std::locale::facet.base", [4 x i8], %struct.__locale_struct*, i8, [7 x i8], i32*, i32*, i16*, i8, [256 x i8], [256 x i8], i8, [6 x i8] }>
%"class.std::locale::facet.base" = type <{ i32 (...)**, i32 }>
%struct.__locale_struct = type { [13 x %struct.__locale_data*], i16*, i32*, i32*, [13 x i8*] }
%struct.__locale_data = type opaque
%"class.std::num_put" = type { %"class.std::locale::facet.base", [4 x i8] }
%"class.std::num_get" = type { %"class.std::locale::facet.base", [4 x i8] }
%struct.range = type { float, float }
%struct.event = type { float, i32 }
%"struct.std::pair" = type { %struct._seq, %struct._seq }
%struct._seq = type { %struct.event*, i64 }
%struct.treeNode = type { %struct.treeNode*, %struct.treeNode*, [3 x %struct.range], i32, float, i32*, i32, i32 }
%struct.__cilkrts_stack_frame = type { i32, i32, %struct.__cilkrts_stack_frame*, %struct.__cilkrts_worker*, i8*, [5 x i8*], i32, i16, i16, { %struct.__cilkrts_pedigree } }
%struct.__cilkrts_worker = type { %struct.__cilkrts_stack_frame**, %struct.__cilkrts_stack_frame**, %struct.__cilkrts_stack_frame**, %struct.__cilkrts_stack_frame**, %struct.__cilkrts_stack_frame**, i32, i8*, i8*, i8*, %struct.__cilkrts_stack_frame*, i8*, i8*, %struct.__cilkrts_pedigree }
%struct.__cilkrts_pedigree = type { i64, %struct.__cilkrts_pedigree* }
%struct.cutInfo = type { float, float, i32, i32 }
%struct.ray = type { %class._point3d, %class._vect3d }
%class._point3d = type { double, double, double }
%class._vect3d = type { double, double, double }
%struct.triangles = type { i32, i32, %class._point3d*, %struct.triangle* }
%struct.triangle = type { [3 x i32] }
%struct.timeval = type { i64, i64 }
%"class.std::__cxx11::basic_string" = type { %"struct.std::__cxx11::basic_string<char, std::char_traits<char>, std::allocator<char> >::_Alloc_hider", i64, %union.anon }
%"struct.std::__cxx11::basic_string<char, std::char_traits<char>, std::allocator<char> >::_Alloc_hider" = type { i8* }
%union.anon = type { i64, [8 x i8] }
%struct.transpose = type { i32*, i32* }
%struct.blockTrans = type { %struct.event*, %struct.event*, i32*, i32*, i32* }

$_ZN8treeNodeC2EPP5eventiP5range = comdat any

$_Z10sampleSortI5event6cmpValiEvPT_T1_T0_ = comdat any

$_ZN8treeNode3delEPS_ = comdat any

$_ZN5timer7reportTEd = comdat any

$_ZN8sequence4scanIiiN5utils4addFIiEENS_4getAIiiEEEET_PS6_T0_S8_T1_T2_S6_bb = comdat any

$_ZN8sequence8maxIndexIfiSt4lessIfENS_4getAIfiEEEET0_S5_S5_T1_T2_ = comdat any

$_ZN8sequence4packI5eventiNS_4getAIS1_iEEEE4_seqIT_EPS5_PbT0_S9_T1_ = comdat any

$_ZN8sequence10packSerialI5eventiNS_4getAIS1_iEEEE4_seqIT_EPS5_PbT0_S9_T1_ = comdat any

$_Z9quickSortI5event6cmpValiEvPT_T1_T0_ = comdat any

$_Z9quickSortI5event6cmpVallEvPT_T1_T0_ = comdat any

$_Z5splitI5event6cmpValiESt4pairIPT_S4_ES4_T1_T0_ = comdat any

$_Z15quickSortSerialI5event6cmpVallEvPT_T1_T0_ = comdat any

$_Z5splitI5event6cmpVallESt4pairIPT_S4_ES4_T1_T0_ = comdat any

$_ZN8sequence4scanIilSt4plusIiENS_4getAIilEEEET_PS5_T0_S7_T1_T2_S5_bb = comdat any

$_ZN9transposeIiiE6transREiiiiii = comdat any

$_ZN10blockTransI5eventiE6transREiiiiii = comdat any

@_ZStL8__ioinit = internal global %"class.std::ios_base::Init" zeroinitializer, align 1
@__dso_handle = external hidden global i8
@_ZL3_tm = internal global %struct.timer zeroinitializer, align 8
@CHECK = local_unnamed_addr global i32 0, align 4
@STATS = local_unnamed_addr global i32 0, align 4
@CT = local_unnamed_addr global float 6.000000e+00, align 4
@CL = local_unnamed_addr global float 1.250000e+00, align 4
@maxExpand = local_unnamed_addr global float 0x3FF99999A0000000, align 4
@maxRecursionDepth = local_unnamed_addr global i32 25, align 4
@minParallelSize = local_unnamed_addr global i32 500000, align 4
@epsilon = local_unnamed_addr global float 0x3E7AD7F2A0000000, align 4
@_ZSt4cout = external global %"class.std::basic_ostream", align 8
@.str = private unnamed_addr constant [44 x i8] c"kdTree: mismatched lengths, something wrong\00", align 1
@tcount = local_unnamed_addr global i32 0, align 4
@ccount = local_unnamed_addr global i32 0, align 4
@.str.4 = private unnamed_addr constant [25 x i8] c"generate and sort events\00", align 1
@.str.5 = private unnamed_addr constant [11 x i8] c"build tree\00", align 1
@.str.6 = private unnamed_addr constant [31 x i8] c"Triangles across all leaves = \00", align 1
@.str.7 = private unnamed_addr constant [11 x i8] c" Leaves = \00", align 1
@.str.8 = private unnamed_addr constant [15 x i8] c"intersect rays\00", align 1
@.str.9 = private unnamed_addr constant [12 x i8] c"delete tree\00", align 1
@.str.10 = private unnamed_addr constant [43 x i8] c"bad intersect in checking ray intersection\00", align 1
@.str.11 = private unnamed_addr constant [8 x i8] c"tcount=\00", align 1
@.str.12 = private unnamed_addr constant [9 x i8] c" ccount=\00", align 1
@.str.13 = private unnamed_addr constant [4 x i8] c" : \00", align 1
@.str.14 = private unnamed_addr constant [12 x i8] c"PBBS-time: \00", align 1
@llvm.global_ctors = appending global [1 x { i32, void ()*, i8* }] [{ i32, void ()*, i8* } { i32 65535, void ()* @_GLOBAL__sub_I_kdTree.C, i8* null }]

declare void @_ZNSt8ios_base4InitC1Ev(%"class.std::ios_base::Init"*) unnamed_addr #0

; Function Attrs: nounwind
declare void @_ZNSt8ios_base4InitD1Ev(%"class.std::ios_base::Init"*) unnamed_addr #1

; Function Attrs: nounwind
declare i32 @__cxa_atexit(void (i8*)*, i8*, i8*) local_unnamed_addr #2

; Function Attrs: nounwind
declare i32 @mallopt(i32, i32) local_unnamed_addr #1

; Function Attrs: norecurse nounwind readnone uwtable
define i64 @_Z7hashValm(i64 %a) local_unnamed_addr #3 {
entry:
  %mul = mul i64 %a, 982451653
  %add = add i64 %mul, 12345
  ret i64 %add
}

; Function Attrs: norecurse nounwind readonly uwtable
define float @_Z14boxSurfaceAreaP5range(%struct.range* nocapture readonly %B) local_unnamed_addr #4 {
entry:
  %max = getelementptr inbounds %struct.range, %struct.range* %B, i64 0, i32 1
  %0 = load float, float* %max, align 4, !tbaa !2
  %min = getelementptr inbounds %struct.range, %struct.range* %B, i64 0, i32 0
  %1 = load float, float* %min, align 4, !tbaa !7
  %sub = fsub float %0, %1
  %max3 = getelementptr inbounds %struct.range, %struct.range* %B, i64 1, i32 1
  %2 = load float, float* %max3, align 4, !tbaa !2
  %min5 = getelementptr inbounds %struct.range, %struct.range* %B, i64 1, i32 0
  %3 = load float, float* %min5, align 4, !tbaa !7
  %sub6 = fsub float %2, %3
  %max8 = getelementptr inbounds %struct.range, %struct.range* %B, i64 2, i32 1
  %4 = load float, float* %max8, align 4, !tbaa !2
  %min10 = getelementptr inbounds %struct.range, %struct.range* %B, i64 2, i32 0
  %5 = load float, float* %min10, align 4, !tbaa !7
  %sub11 = fsub float %4, %5
  %mul = fmul float %sub, %sub6
  %mul12 = fmul float %sub6, %sub11
  %add = fadd float %mul, %mul12
  %mul13 = fmul float %sub, %sub11
  %add14 = fadd float %mul13, %add
  %mul15 = fmul float %add14, 2.000000e+00
  ret float %mul15
}

; Function Attrs: argmemonly nounwind
declare void @llvm.lifetime.start.p0i8(i64, i8* nocapture) #5

; Function Attrs: argmemonly nounwind
declare void @llvm.lifetime.end.p0i8(i64, i8* nocapture) #5

; Function Attrs: norecurse nounwind readonly uwtable
define <2 x float> @_Z8fixRangeff(float %minv, float %maxv) local_unnamed_addr #4 {
entry:
  %cmp = fcmp oeq float %minv, %maxv
  %0 = load float, float* @epsilon, align 4
  %add = fadd float %0, %minv
  %maxv.sink = select i1 %cmp, float %add, float %maxv
  %retval.0.vec.insert8 = insertelement <2 x float> undef, float %minv, i32 0
  %retval.4.vec.insert10 = insertelement <2 x float> %retval.0.vec.insert8, float %maxv.sink, i32 1
  ret <2 x float> %retval.4.vec.insert10
}

; Function Attrs: norecurse nounwind readonly uwtable
define { <2 x float>, i64 } @_Z13bestCutSerialP5event5rangeS1_S1_i(%struct.event* nocapture readonly %E, <2 x float> %r.coerce, <2 x float> %r1.coerce, <2 x float> %r2.coerce, i32 %n) local_unnamed_addr #4 {
entry:
  %r.sroa.0.4.vec.extract = extractelement <2 x float> %r.coerce, i32 1
  %r.sroa.0.0.vec.extract = extractelement <2 x float> %r.coerce, i32 0
  %sub = fsub float %r.sroa.0.4.vec.extract, %r.sroa.0.0.vec.extract
  %cmp = fcmp oeq float %sub, 0.000000e+00
  br i1 %cmp, label %if.then, label %if.end

if.then:                                          ; preds = %entry
  %retval.sroa.0.4.vec.insert = shufflevector <2 x float> <float 0x47EFFFFFE0000000, float undef>, <2 x float> %r.coerce, <2 x i32> <i32 0, i32 2>
  %retval.sroa.5.8.insert.ext = zext i32 %n to i64
  br label %cleanup

if.end:                                           ; preds = %entry
  %r1.sroa.0.4.vec.extract = extractelement <2 x float> %r1.coerce, i32 1
  %r1.sroa.0.0.vec.extract = extractelement <2 x float> %r1.coerce, i32 0
  %sub4 = fsub float %r1.sroa.0.4.vec.extract, %r1.sroa.0.0.vec.extract
  %mul = fmul float %sub4, 2.000000e+00
  %r2.sroa.0.4.vec.extract = extractelement <2 x float> %r2.coerce, i32 1
  %r2.sroa.0.0.vec.extract = extractelement <2 x float> %r2.coerce, i32 0
  %sub7 = fsub float %r2.sroa.0.4.vec.extract, %r2.sroa.0.0.vec.extract
  %mul8 = fmul float %mul, %sub7
  %add = fadd float %sub4, %sub7
  %mul15 = fmul float %add, 2.000000e+00
  %div = sdiv i32 %n, 2
  %cmp16121 = icmp sgt i32 %n, 0
  br i1 %cmp16121, label %for.body.lr.ph, label %for.cond.cleanup

for.body.lr.ph:                                   ; preds = %if.end
  %wide.trip.count = zext i32 %n to i64
  %xtraiter = and i64 %wide.trip.count, 1
  %0 = icmp eq i32 %n, 1
  br i1 %0, label %for.cond.cleanup.loopexit.unr-lcssa, label %for.body.lr.ph.new

for.body.lr.ph.new:                               ; preds = %for.body.lr.ph
  %unroll_iter = sub nsw i64 %wide.trip.count, %xtraiter
  br label %for.body

for.cond.cleanup.loopexit.unr-lcssa:              ; preds = %if.end39.1, %for.body.lr.ph
  %rn.1.lcssa.ph = phi i32 [ undef, %for.body.lr.ph ], [ %rn.1.1, %if.end39.1 ]
  %ln.1.lcssa.ph = phi i32 [ undef, %for.body.lr.ph ], [ %ln.1.1, %if.end39.1 ]
  %k.1.lcssa.ph = phi i32 [ undef, %for.body.lr.ph ], [ %k.1.1, %if.end39.1 ]
  %minCost.1.lcssa.ph = phi float [ undef, %for.body.lr.ph ], [ %minCost.1.1, %if.end39.1 ]
  %indvars.iv.unr = phi i64 [ 0, %for.body.lr.ph ], [ %indvars.iv.next.1, %if.end39.1 ]
  %inLeft.0128.unr = phi i32 [ 0, %for.body.lr.ph ], [ %spec.select102.1, %if.end39.1 ]
  %inRight.0127.unr = phi i32 [ 0, %for.body.lr.ph ], [ %spec.select.1, %if.end39.1 ]
  %minCost.0126.unr = phi float [ 0x47EFFFFFE0000000, %for.body.lr.ph ], [ %minCost.1.1, %if.end39.1 ]
  %k.0125.unr = phi i32 [ 0, %for.body.lr.ph ], [ %k.1.1, %if.end39.1 ]
  %ln.0123.unr = phi i32 [ 0, %for.body.lr.ph ], [ %ln.1.1, %if.end39.1 ]
  %rn.0122.unr = phi i32 [ 0, %for.body.lr.ph ], [ %rn.1.1, %if.end39.1 ]
  %lcmp.mod = icmp eq i64 %xtraiter, 0
  br i1 %lcmp.mod, label %for.cond.cleanup, label %for.body.epil

for.body.epil:                                    ; preds = %for.cond.cleanup.loopexit.unr-lcssa
  %p.epil = getelementptr inbounds %struct.event, %struct.event* %E, i64 %indvars.iv.unr, i32 1
  %1 = load i32, i32* %p.epil, align 4, !tbaa !8
  %2 = shl i32 %1, 31
  %sext.epil = ashr exact i32 %2, 31
  %spec.select.epil = add nsw i32 %sext.epil, %inRight.0127.unr
  %v.epil = getelementptr inbounds %struct.event, %struct.event* %E, i64 %indvars.iv.unr, i32 0
  %3 = load float, float* %v.epil, align 4, !tbaa !11
  %sub22.epil = fsub float %3, %r.sroa.0.0.vec.extract
  %mul23.epil = fmul float %mul15, %sub22.epil
  %add24.epil = fadd float %mul8, %mul23.epil
  %sub29.epil = fsub float %r.sroa.0.4.vec.extract, %3
  %mul30.epil = fmul float %mul15, %sub29.epil
  %add31.epil = fadd float %mul8, %mul30.epil
  %conv32.epil = sitofp i32 %inLeft.0128.unr to float
  %mul33.epil = fmul float %add24.epil, %conv32.epil
  %conv34.epil = sitofp i32 %spec.select.epil to float
  %mul35.epil = fmul float %add31.epil, %conv34.epil
  %add36.epil = fadd float %mul33.epil, %mul35.epil
  %cmp37.epil = fcmp olt float %add36.epil, %minCost.0126.unr
  br i1 %cmp37.epil, label %if.then38.epil, label %for.cond.cleanup

if.then38.epil:                                   ; preds = %for.body.epil
  %4 = trunc i64 %indvars.iv.unr to i32
  br label %for.cond.cleanup

for.cond.cleanup:                                 ; preds = %for.cond.cleanup.loopexit.unr-lcssa, %for.body.epil, %if.then38.epil, %if.end
  %rn.0.lcssa = phi i32 [ 0, %if.end ], [ %rn.1.lcssa.ph, %for.cond.cleanup.loopexit.unr-lcssa ], [ %spec.select.epil, %if.then38.epil ], [ %rn.0122.unr, %for.body.epil ]
  %ln.0.lcssa = phi i32 [ %div, %if.end ], [ %ln.1.lcssa.ph, %for.cond.cleanup.loopexit.unr-lcssa ], [ %inLeft.0128.unr, %if.then38.epil ], [ %ln.0123.unr, %for.body.epil ]
  %k.0.lcssa = phi i32 [ 0, %if.end ], [ %k.1.lcssa.ph, %for.cond.cleanup.loopexit.unr-lcssa ], [ %4, %if.then38.epil ], [ %k.0125.unr, %for.body.epil ]
  %minCost.0.lcssa = phi float [ 0x47EFFFFFE0000000, %if.end ], [ %minCost.1.lcssa.ph, %for.cond.cleanup.loopexit.unr-lcssa ], [ %add36.epil, %if.then38.epil ], [ %minCost.0126.unr, %for.body.epil ]
  %idxprom48 = sext i32 %k.0.lcssa to i64
  %v50 = getelementptr inbounds %struct.event, %struct.event* %E, i64 %idxprom48, i32 0
  %5 = load float, float* %v50, align 4, !tbaa !11
  %retval.sroa.0.0.vec.insert109 = insertelement <2 x float> undef, float %minCost.0.lcssa, i32 0
  %retval.sroa.0.4.vec.insert111 = insertelement <2 x float> %retval.sroa.0.0.vec.insert109, float %5, i32 1
  %retval.sroa.5.8.insert.ext113 = zext i32 %ln.0.lcssa to i64
  %retval.sroa.5.12.insert.ext117 = zext i32 %rn.0.lcssa to i64
  br label %cleanup

for.body:                                         ; preds = %if.end39.1, %for.body.lr.ph.new
  %indvars.iv = phi i64 [ 0, %for.body.lr.ph.new ], [ %indvars.iv.next.1, %if.end39.1 ]
  %inLeft.0128 = phi i32 [ 0, %for.body.lr.ph.new ], [ %spec.select102.1, %if.end39.1 ]
  %inRight.0127 = phi i32 [ %div, %for.body.lr.ph.new ], [ %spec.select.1, %if.end39.1 ]
  %minCost.0126 = phi float [ 0x47EFFFFFE0000000, %for.body.lr.ph.new ], [ %minCost.1.1, %if.end39.1 ]
  %k.0125 = phi i32 [ 0, %for.body.lr.ph.new ], [ %k.1.1, %if.end39.1 ]
  %ln.0123 = phi i32 [ %div, %for.body.lr.ph.new ], [ %ln.1.1, %if.end39.1 ]
  %rn.0122 = phi i32 [ 0, %for.body.lr.ph.new ], [ %rn.1.1, %if.end39.1 ]
  %niter = phi i64 [ %unroll_iter, %for.body.lr.ph.new ], [ %niter.nsub.1, %if.end39.1 ]
  %p = getelementptr inbounds %struct.event, %struct.event* %E, i64 %indvars.iv, i32 1
  %6 = load i32, i32* %p, align 4, !tbaa !8
  %and = and i32 %6, 1
  %7 = shl i32 %6, 31
  %sext = ashr exact i32 %7, 31
  %spec.select = add nsw i32 %sext, %inRight.0127
  %v = getelementptr inbounds %struct.event, %struct.event* %E, i64 %indvars.iv, i32 0
  %8 = load float, float* %v, align 4, !tbaa !11
  %sub22 = fsub float %8, %r.sroa.0.0.vec.extract
  %mul23 = fmul float %mul15, %sub22
  %add24 = fadd float %mul8, %mul23
  %sub29 = fsub float %r.sroa.0.4.vec.extract, %8
  %mul30 = fmul float %mul15, %sub29
  %add31 = fadd float %mul8, %mul30
  %conv32 = sitofp i32 %inLeft.0128 to float
  %mul33 = fmul float %add24, %conv32
  %conv34 = sitofp i32 %spec.select to float
  %mul35 = fmul float %add31, %conv34
  %add36 = fadd float %mul33, %mul35
  %cmp37 = fcmp olt float %add36, %minCost.0126
  br i1 %cmp37, label %if.then38, label %if.end39

if.then38:                                        ; preds = %for.body
  %9 = trunc i64 %indvars.iv to i32
  br label %if.end39

if.end39:                                         ; preds = %if.then38, %for.body
  %rn.1 = phi i32 [ %spec.select, %if.then38 ], [ %rn.0122, %for.body ]
  %ln.1 = phi i32 [ %inLeft.0128, %if.then38 ], [ %ln.0123, %for.body ]
  %k.1 = phi i32 [ %9, %if.then38 ], [ %k.0125, %for.body ]
  %minCost.1 = phi float [ %add36, %if.then38 ], [ %minCost.0126, %for.body ]
  %10 = xor i32 %and, 1
  %spec.select102 = add nuw nsw i32 %10, %inLeft.0128
  %indvars.iv.next = or i64 %indvars.iv, 1
  %p.1 = getelementptr inbounds %struct.event, %struct.event* %E, i64 %indvars.iv.next, i32 1
  %11 = load i32, i32* %p.1, align 4, !tbaa !8
  %and.1 = and i32 %11, 1
  %12 = shl i32 %11, 31
  %sext.1 = ashr exact i32 %12, 31
  %spec.select.1 = add nsw i32 %sext.1, %spec.select
  %v.1 = getelementptr inbounds %struct.event, %struct.event* %E, i64 %indvars.iv.next, i32 0
  %13 = load float, float* %v.1, align 4, !tbaa !11
  %sub22.1 = fsub float %13, %r.sroa.0.0.vec.extract
  %mul23.1 = fmul float %mul15, %sub22.1
  %add24.1 = fadd float %mul8, %mul23.1
  %sub29.1 = fsub float %r.sroa.0.4.vec.extract, %13
  %mul30.1 = fmul float %mul15, %sub29.1
  %add31.1 = fadd float %mul8, %mul30.1
  %conv32.1 = sitofp i32 %spec.select102 to float
  %mul33.1 = fmul float %add24.1, %conv32.1
  %conv34.1 = sitofp i32 %spec.select.1 to float
  %mul35.1 = fmul float %add31.1, %conv34.1
  %add36.1 = fadd float %mul33.1, %mul35.1
  %cmp37.1 = fcmp olt float %add36.1, %minCost.1
  br i1 %cmp37.1, label %if.then38.1, label %if.end39.1

cleanup:                                          ; preds = %for.cond.cleanup, %if.then
  %retval.sroa.5.12.insert.ext117.sink = phi i64 [ %retval.sroa.5.12.insert.ext117, %for.cond.cleanup ], [ %retval.sroa.5.8.insert.ext, %if.then ]
  %retval.sroa.5.8.insert.ext113.sink = phi i64 [ %retval.sroa.5.8.insert.ext113, %for.cond.cleanup ], [ %retval.sroa.5.8.insert.ext, %if.then ]
  %retval.sroa.0.0 = phi <2 x float> [ %retval.sroa.0.4.vec.insert111, %for.cond.cleanup ], [ %retval.sroa.0.4.vec.insert, %if.then ]
  %retval.sroa.5.12.insert.shift118 = shl nuw i64 %retval.sroa.5.12.insert.ext117.sink, 32
  %retval.sroa.5.12.insert.insert120 = or i64 %retval.sroa.5.12.insert.shift118, %retval.sroa.5.8.insert.ext113.sink
  %.fca.0.insert = insertvalue { <2 x float>, i64 } undef, <2 x float> %retval.sroa.0.0, 0
  %.fca.1.insert = insertvalue { <2 x float>, i64 } %.fca.0.insert, i64 %retval.sroa.5.12.insert.insert120, 1
  ret { <2 x float>, i64 } %.fca.1.insert

if.then38.1:                                      ; preds = %if.end39
  %14 = trunc i64 %indvars.iv.next to i32
  br label %if.end39.1

if.end39.1:                                       ; preds = %if.then38.1, %if.end39
  %rn.1.1 = phi i32 [ %spec.select.1, %if.then38.1 ], [ %rn.1, %if.end39 ]
  %ln.1.1 = phi i32 [ %spec.select102, %if.then38.1 ], [ %ln.1, %if.end39 ]
  %k.1.1 = phi i32 [ %14, %if.then38.1 ], [ %k.1, %if.end39 ]
  %minCost.1.1 = phi float [ %add36.1, %if.then38.1 ], [ %minCost.1, %if.end39 ]
  %15 = xor i32 %and.1, 1
  %spec.select102.1 = add nuw nsw i32 %15, %spec.select102
  %indvars.iv.next.1 = add nuw nsw i64 %indvars.iv, 2
  %niter.nsub.1 = add i64 %niter, -2
  %niter.ncmp.1 = icmp eq i64 %niter.nsub.1, 0
  br i1 %niter.ncmp.1, label %for.cond.cleanup.loopexit.unr-lcssa, label %for.body
}

; Function Attrs: uwtable
define { <2 x float>, i64 } @_Z7bestCutP5event5rangeS1_S1_i(%struct.event* nocapture readonly %E, <2 x float> %r.coerce, <2 x float> %r1.coerce, <2 x float> %r2.coerce, i32 %n) local_unnamed_addr #6 {
entry:
  %0 = alloca { i32*, %struct.event*, i32, float, float, float, float, float* }, align 8
  %1 = alloca { %struct.event*, i32* }, align 8
  %2 = load i32, i32* @minParallelSize, align 4, !tbaa !12
  %cmp = icmp sgt i32 %2, %n
  %r.sroa.0.4.vec.extract.i = extractelement <2 x float> %r.coerce, i32 1
  %r.sroa.0.0.vec.extract.i = extractelement <2 x float> %r.coerce, i32 0
  %sub.i = fsub float %r.sroa.0.4.vec.extract.i, %r.sroa.0.0.vec.extract.i
  %cmp.i = fcmp oeq float %sub.i, 0.000000e+00
  br i1 %cmp, label %if.then, label %if.end

if.then:                                          ; preds = %entry
  br i1 %cmp.i, label %if.then.i, label %if.end.i

if.then.i:                                        ; preds = %if.then
  %retval.sroa.0.4.vec.insert.i = shufflevector <2 x float> <float 0x47EFFFFFE0000000, float undef>, <2 x float> %r.coerce, <2 x i32> <i32 0, i32 2>
  %retval.sroa.5.8.insert.ext.i = zext i32 %n to i64
  br label %cleanup

if.end.i:                                         ; preds = %if.then
  %r1.sroa.0.4.vec.extract.i = extractelement <2 x float> %r1.coerce, i32 1
  %r1.sroa.0.0.vec.extract.i = extractelement <2 x float> %r1.coerce, i32 0
  %sub4.i = fsub float %r1.sroa.0.4.vec.extract.i, %r1.sroa.0.0.vec.extract.i
  %mul.i = fmul float %sub4.i, 2.000000e+00
  %r2.sroa.0.4.vec.extract.i = extractelement <2 x float> %r2.coerce, i32 1
  %r2.sroa.0.0.vec.extract.i = extractelement <2 x float> %r2.coerce, i32 0
  %sub7.i = fsub float %r2.sroa.0.4.vec.extract.i, %r2.sroa.0.0.vec.extract.i
  %mul8.i = fmul float %mul.i, %sub7.i
  %add.i = fadd float %sub4.i, %sub7.i
  %mul15.i = fmul float %add.i, 2.000000e+00
  %div.i = sdiv i32 %n, 2
  %cmp16121.i = icmp sgt i32 %n, 0
  br i1 %cmp16121.i, label %for.body.lr.ph.i, label %for.cond.cleanup.i

for.body.lr.ph.i:                                 ; preds = %if.end.i
  %wide.trip.count.i = zext i32 %n to i64
  %xtraiter = and i64 %wide.trip.count.i, 1
  %3 = icmp eq i32 %n, 1
  br i1 %3, label %for.cond.cleanup.i.loopexit.unr-lcssa, label %for.body.lr.ph.i.new

for.body.lr.ph.i.new:                             ; preds = %for.body.lr.ph.i
  %unroll_iter = sub nsw i64 %wide.trip.count.i, %xtraiter
  br label %for.body.i

for.cond.cleanup.i.loopexit.unr-lcssa:            ; preds = %if.end39.i.1, %for.body.lr.ph.i
  %rn.1.i.lcssa.ph = phi i32 [ undef, %for.body.lr.ph.i ], [ %rn.1.i.1, %if.end39.i.1 ]
  %ln.1.i.lcssa.ph = phi i32 [ undef, %for.body.lr.ph.i ], [ %ln.1.i.1, %if.end39.i.1 ]
  %k.1.i.lcssa.ph = phi i32 [ undef, %for.body.lr.ph.i ], [ %k.1.i.1, %if.end39.i.1 ]
  %minCost.1.i.lcssa.ph = phi float [ undef, %for.body.lr.ph.i ], [ %minCost.1.i.1, %if.end39.i.1 ]
  %indvars.iv.i.unr = phi i64 [ 0, %for.body.lr.ph.i ], [ %indvars.iv.next.i.1, %if.end39.i.1 ]
  %inLeft.0128.i.unr = phi i32 [ 0, %for.body.lr.ph.i ], [ %spec.select102.i.1, %if.end39.i.1 ]
  %inRight.0127.i.unr = phi i32 [ 0, %for.body.lr.ph.i ], [ %spec.select.i.1, %if.end39.i.1 ]
  %minCost.0126.i.unr = phi float [ 0x47EFFFFFE0000000, %for.body.lr.ph.i ], [ %minCost.1.i.1, %if.end39.i.1 ]
  %k.0125.i.unr = phi i32 [ 0, %for.body.lr.ph.i ], [ %k.1.i.1, %if.end39.i.1 ]
  %ln.0123.i.unr = phi i32 [ 0, %for.body.lr.ph.i ], [ %ln.1.i.1, %if.end39.i.1 ]
  %rn.0122.i.unr = phi i32 [ 0, %for.body.lr.ph.i ], [ %rn.1.i.1, %if.end39.i.1 ]
  %lcmp.mod = icmp eq i64 %xtraiter, 0
  br i1 %lcmp.mod, label %for.cond.cleanup.i, label %for.body.i.epil

for.body.i.epil:                                  ; preds = %for.cond.cleanup.i.loopexit.unr-lcssa
  %p.i.epil = getelementptr inbounds %struct.event, %struct.event* %E, i64 %indvars.iv.i.unr, i32 1
  %4 = load i32, i32* %p.i.epil, align 4, !tbaa !8
  %5 = shl i32 %4, 31
  %sext.i.epil = ashr exact i32 %5, 31
  %spec.select.i.epil = add nsw i32 %sext.i.epil, %inRight.0127.i.unr
  %v.i.epil = getelementptr inbounds %struct.event, %struct.event* %E, i64 %indvars.iv.i.unr, i32 0
  %6 = load float, float* %v.i.epil, align 4, !tbaa !11
  %sub22.i.epil = fsub float %6, %r.sroa.0.0.vec.extract.i
  %mul23.i.epil = fmul float %mul15.i, %sub22.i.epil
  %add24.i.epil = fadd float %mul8.i, %mul23.i.epil
  %sub29.i.epil = fsub float %r.sroa.0.4.vec.extract.i, %6
  %mul30.i.epil = fmul float %mul15.i, %sub29.i.epil
  %add31.i.epil = fadd float %mul8.i, %mul30.i.epil
  %conv32.i.epil = sitofp i32 %inLeft.0128.i.unr to float
  %mul33.i.epil = fmul float %add24.i.epil, %conv32.i.epil
  %conv34.i.epil = sitofp i32 %spec.select.i.epil to float
  %mul35.i.epil = fmul float %add31.i.epil, %conv34.i.epil
  %add36.i.epil = fadd float %mul33.i.epil, %mul35.i.epil
  %cmp37.i.epil = fcmp olt float %add36.i.epil, %minCost.0126.i.unr
  br i1 %cmp37.i.epil, label %if.then38.i.epil, label %for.cond.cleanup.i

if.then38.i.epil:                                 ; preds = %for.body.i.epil
  %7 = trunc i64 %indvars.iv.i.unr to i32
  br label %for.cond.cleanup.i

for.cond.cleanup.i:                               ; preds = %for.cond.cleanup.i.loopexit.unr-lcssa, %for.body.i.epil, %if.then38.i.epil, %if.end.i
  %rn.0.lcssa.i = phi i32 [ 0, %if.end.i ], [ %rn.1.i.lcssa.ph, %for.cond.cleanup.i.loopexit.unr-lcssa ], [ %spec.select.i.epil, %if.then38.i.epil ], [ %rn.0122.i.unr, %for.body.i.epil ]
  %ln.0.lcssa.i = phi i32 [ %div.i, %if.end.i ], [ %ln.1.i.lcssa.ph, %for.cond.cleanup.i.loopexit.unr-lcssa ], [ %inLeft.0128.i.unr, %if.then38.i.epil ], [ %ln.0123.i.unr, %for.body.i.epil ]
  %k.0.lcssa.i = phi i32 [ 0, %if.end.i ], [ %k.1.i.lcssa.ph, %for.cond.cleanup.i.loopexit.unr-lcssa ], [ %7, %if.then38.i.epil ], [ %k.0125.i.unr, %for.body.i.epil ]
  %minCost.0.lcssa.i = phi float [ 0x47EFFFFFE0000000, %if.end.i ], [ %minCost.1.i.lcssa.ph, %for.cond.cleanup.i.loopexit.unr-lcssa ], [ %add36.i.epil, %if.then38.i.epil ], [ %minCost.0126.i.unr, %for.body.i.epil ]
  %idxprom48.i = sext i32 %k.0.lcssa.i to i64
  %v50.i = getelementptr inbounds %struct.event, %struct.event* %E, i64 %idxprom48.i, i32 0
  %8 = load float, float* %v50.i, align 4, !tbaa !11
  %retval.sroa.0.0.vec.insert109.i = insertelement <2 x float> undef, float %minCost.0.lcssa.i, i32 0
  %retval.sroa.0.4.vec.insert111.i = insertelement <2 x float> %retval.sroa.0.0.vec.insert109.i, float %8, i32 1
  %retval.sroa.5.8.insert.ext113.i = zext i32 %ln.0.lcssa.i to i64
  %retval.sroa.5.12.insert.ext117.i = zext i32 %rn.0.lcssa.i to i64
  br label %cleanup

for.body.i:                                       ; preds = %if.end39.i.1, %for.body.lr.ph.i.new
  %indvars.iv.i = phi i64 [ 0, %for.body.lr.ph.i.new ], [ %indvars.iv.next.i.1, %if.end39.i.1 ]
  %inLeft.0128.i = phi i32 [ 0, %for.body.lr.ph.i.new ], [ %spec.select102.i.1, %if.end39.i.1 ]
  %inRight.0127.i = phi i32 [ %div.i, %for.body.lr.ph.i.new ], [ %spec.select.i.1, %if.end39.i.1 ]
  %minCost.0126.i = phi float [ 0x47EFFFFFE0000000, %for.body.lr.ph.i.new ], [ %minCost.1.i.1, %if.end39.i.1 ]
  %k.0125.i = phi i32 [ 0, %for.body.lr.ph.i.new ], [ %k.1.i.1, %if.end39.i.1 ]
  %ln.0123.i = phi i32 [ %div.i, %for.body.lr.ph.i.new ], [ %ln.1.i.1, %if.end39.i.1 ]
  %rn.0122.i = phi i32 [ 0, %for.body.lr.ph.i.new ], [ %rn.1.i.1, %if.end39.i.1 ]
  %niter = phi i64 [ %unroll_iter, %for.body.lr.ph.i.new ], [ %niter.nsub.1, %if.end39.i.1 ]
  %p.i = getelementptr inbounds %struct.event, %struct.event* %E, i64 %indvars.iv.i, i32 1
  %9 = load i32, i32* %p.i, align 4, !tbaa !8
  %and.i = and i32 %9, 1
  %10 = shl i32 %9, 31
  %sext.i = ashr exact i32 %10, 31
  %spec.select.i = add nsw i32 %sext.i, %inRight.0127.i
  %v.i = getelementptr inbounds %struct.event, %struct.event* %E, i64 %indvars.iv.i, i32 0
  %11 = load float, float* %v.i, align 4, !tbaa !11
  %sub22.i = fsub float %11, %r.sroa.0.0.vec.extract.i
  %mul23.i = fmul float %mul15.i, %sub22.i
  %add24.i = fadd float %mul8.i, %mul23.i
  %sub29.i = fsub float %r.sroa.0.4.vec.extract.i, %11
  %mul30.i = fmul float %mul15.i, %sub29.i
  %add31.i = fadd float %mul8.i, %mul30.i
  %conv32.i = sitofp i32 %inLeft.0128.i to float
  %mul33.i = fmul float %add24.i, %conv32.i
  %conv34.i = sitofp i32 %spec.select.i to float
  %mul35.i = fmul float %add31.i, %conv34.i
  %add36.i = fadd float %mul33.i, %mul35.i
  %cmp37.i = fcmp olt float %add36.i, %minCost.0126.i
  br i1 %cmp37.i, label %if.then38.i, label %if.end39.i

if.then38.i:                                      ; preds = %for.body.i
  %12 = trunc i64 %indvars.iv.i to i32
  br label %if.end39.i

if.end39.i:                                       ; preds = %if.then38.i, %for.body.i
  %rn.1.i = phi i32 [ %spec.select.i, %if.then38.i ], [ %rn.0122.i, %for.body.i ]
  %ln.1.i = phi i32 [ %inLeft.0128.i, %if.then38.i ], [ %ln.0123.i, %for.body.i ]
  %k.1.i = phi i32 [ %12, %if.then38.i ], [ %k.0125.i, %for.body.i ]
  %minCost.1.i = phi float [ %add36.i, %if.then38.i ], [ %minCost.0126.i, %for.body.i ]
  %13 = xor i32 %and.i, 1
  %spec.select102.i = add nuw nsw i32 %13, %inLeft.0128.i
  %indvars.iv.next.i = or i64 %indvars.iv.i, 1
  %p.i.1 = getelementptr inbounds %struct.event, %struct.event* %E, i64 %indvars.iv.next.i, i32 1
  %14 = load i32, i32* %p.i.1, align 4, !tbaa !8
  %and.i.1 = and i32 %14, 1
  %15 = shl i32 %14, 31
  %sext.i.1 = ashr exact i32 %15, 31
  %spec.select.i.1 = add nsw i32 %sext.i.1, %spec.select.i
  %v.i.1 = getelementptr inbounds %struct.event, %struct.event* %E, i64 %indvars.iv.next.i, i32 0
  %16 = load float, float* %v.i.1, align 4, !tbaa !11
  %sub22.i.1 = fsub float %16, %r.sroa.0.0.vec.extract.i
  %mul23.i.1 = fmul float %mul15.i, %sub22.i.1
  %add24.i.1 = fadd float %mul8.i, %mul23.i.1
  %sub29.i.1 = fsub float %r.sroa.0.4.vec.extract.i, %16
  %mul30.i.1 = fmul float %mul15.i, %sub29.i.1
  %add31.i.1 = fadd float %mul8.i, %mul30.i.1
  %conv32.i.1 = sitofp i32 %spec.select102.i to float
  %mul33.i.1 = fmul float %add24.i.1, %conv32.i.1
  %conv34.i.1 = sitofp i32 %spec.select.i.1 to float
  %mul35.i.1 = fmul float %add31.i.1, %conv34.i.1
  %add36.i.1 = fadd float %mul33.i.1, %mul35.i.1
  %cmp37.i.1 = fcmp olt float %add36.i.1, %minCost.1.i
  br i1 %cmp37.i.1, label %if.then38.i.1, label %if.end39.i.1

if.end:                                           ; preds = %entry
  br i1 %cmp.i, label %if.then4, label %if.end6

if.then4:                                         ; preds = %if.end
  %retval.sroa.0.4.vec.insert203 = shufflevector <2 x float> <float 0x47EFFFFFE0000000, float undef>, <2 x float> %r.coerce, <2 x i32> <i32 0, i32 2>
  %retval.sroa.6.8.insert.ext205 = zext i32 %n to i64
  br label %cleanup

if.end6:                                          ; preds = %if.end
  %r1.sroa.0.4.vec.extract = extractelement <2 x float> %r1.coerce, i32 1
  %r1.sroa.0.0.vec.extract = extractelement <2 x float> %r1.coerce, i32 0
  %sub9 = fsub float %r1.sroa.0.4.vec.extract, %r1.sroa.0.0.vec.extract
  %r2.sroa.0.4.vec.extract = extractelement <2 x float> %r2.coerce, i32 1
  %r2.sroa.0.0.vec.extract = extractelement <2 x float> %r2.coerce, i32 0
  %sub12 = fsub float %r2.sroa.0.4.vec.extract, %r2.sroa.0.0.vec.extract
  %mul = fmul float %sub9, %sub12
  %mul13 = fmul float %mul, 2.000000e+00
  %add = fadd float %sub9, %sub12
  %mul20 = fmul float %add, 2.000000e+00
  %conv21 = sext i32 %n to i64
  %mul22 = shl nsw i64 %conv21, 2
  %call23 = tail call noalias i8* @malloc(i64 %mul22) #2
  %17 = bitcast i8* %call23 to i32*
  %cmp27216 = icmp sgt i32 %n, 0
  br i1 %cmp27216, label %pfor.cond.cleanup.loopexit, label %sync.continue

pfor.cond.cleanup.loopexit:                       ; preds = %if.end6
  %wide.trip.count220 = zext i32 %n to i64
  %18 = getelementptr inbounds { %struct.event*, i32* }, { %struct.event*, i32* }* %1, i64 0, i32 0
  store %struct.event* %E, %struct.event** %18, align 8
  %19 = getelementptr inbounds { %struct.event*, i32* }, { %struct.event*, i32* }* %1, i64 0, i32 1
  %20 = bitcast i32** %19 to i8**
  store i8* %call23, i8** %20, align 8
  %21 = bitcast { %struct.event*, i32* }* %1 to i8*
  call fastcc void @__cilkrts_cilk_for_64(void (i8*, i64, i64)* bitcast (void ({ %struct.event*, i32* }*, i64, i64)* @_Z7bestCutP5event5rangeS1_S1_i_pfor.detach.ls to void (i8*, i64, i64)*), i8* nonnull %21, i64 %wide.trip.count220, i32 0)
  br label %sync.continue

sync.continue:                                    ; preds = %if.end6, %pfor.cond.cleanup.loopexit
  %call.i198 = tail call i32 @_ZN8sequence4scanIiiN5utils4addFIiEENS_4getAIiiEEEET_PS6_T0_S8_T1_T2_S6_bb(i32* %17, i32 0, i32 %n, i32* %17, i32 0, i1 zeroext false, i1 zeroext false)
  %call35 = tail call noalias i8* @malloc(i64 %mul22) #2
  %22 = bitcast i8* %call35 to float*
  br i1 %cmp27216, label %pfor.cond.cleanup46.loopexit, label %sync.continue88

pfor.cond.cleanup46.loopexit:                     ; preds = %sync.continue
  %div56222 = lshr i32 %n, 1
  %wide.trip.count = zext i32 %n to i64
  %23 = bitcast { i32*, %struct.event*, i32, float, float, float, float, float* }* %0 to i8**
  store i8* %call23, i8** %23, align 8
  %24 = getelementptr inbounds { i32*, %struct.event*, i32, float, float, float, float, float* }, { i32*, %struct.event*, i32, float, float, float, float, float* }* %0, i64 0, i32 1
  store %struct.event* %E, %struct.event** %24, align 8
  %25 = getelementptr inbounds { i32*, %struct.event*, i32, float, float, float, float, float* }, { i32*, %struct.event*, i32, float, float, float, float, float* }* %0, i64 0, i32 2
  store i32 %div56222, i32* %25, align 8
  %26 = getelementptr inbounds { i32*, %struct.event*, i32, float, float, float, float, float* }, { i32*, %struct.event*, i32, float, float, float, float, float* }* %0, i64 0, i32 3
  store float %r.sroa.0.0.vec.extract.i, float* %26, align 4
  %27 = getelementptr inbounds { i32*, %struct.event*, i32, float, float, float, float, float* }, { i32*, %struct.event*, i32, float, float, float, float, float* }* %0, i64 0, i32 4
  store float %mul20, float* %27, align 8
  %28 = getelementptr inbounds { i32*, %struct.event*, i32, float, float, float, float, float* }, { i32*, %struct.event*, i32, float, float, float, float, float* }* %0, i64 0, i32 5
  store float %mul13, float* %28, align 4
  %29 = getelementptr inbounds { i32*, %struct.event*, i32, float, float, float, float, float* }, { i32*, %struct.event*, i32, float, float, float, float, float* }* %0, i64 0, i32 6
  store float %r.sroa.0.4.vec.extract.i, float* %29, align 8
  %30 = getelementptr inbounds { i32*, %struct.event*, i32, float, float, float, float, float* }, { i32*, %struct.event*, i32, float, float, float, float, float* }* %0, i64 0, i32 7
  %31 = bitcast float** %30 to i8**
  store i8* %call35, i8** %31, align 8
  %32 = bitcast { i32*, %struct.event*, i32, float, float, float, float, float* }* %0 to i8*
  call fastcc void @__cilkrts_cilk_for_64(void (i8*, i64, i64)* bitcast (void ({ i32*, %struct.event*, i32, float, float, float, float, float* }*, i64, i64)* @_Z7bestCutP5event5rangeS1_S1_i_pfor.detach47.ls to void (i8*, i64, i64)*), i8* nonnull %32, i64 %wide.trip.count, i32 0)
  br label %sync.continue88

sync.continue88:                                  ; preds = %sync.continue, %pfor.cond.cleanup46.loopexit
  %call.i = tail call i32 @_ZN8sequence8maxIndexIfiSt4lessIfENS_4getAIfiEEEET0_S5_S5_T1_T2_(i32 0, i32 %n, float* %22)
  %idxprom92 = sext i32 %call.i to i64
  %arrayidx93 = getelementptr inbounds float, float* %22, i64 %idxprom92
  %33 = load float, float* %arrayidx93, align 4, !tbaa !13
  %arrayidx95 = getelementptr inbounds i32, i32* %17, i64 %idxprom92
  %34 = load i32, i32* %arrayidx95, align 4, !tbaa !12
  %sub96 = sub nsw i32 %call.i, %34
  %div97 = sdiv i32 %n, 2
  %p102 = getelementptr inbounds %struct.event, %struct.event* %E, i64 %idxprom92, i32 1
  %35 = load i32, i32* %p102, align 4, !tbaa !8
  %and103 = and i32 %35, 1
  %add104.neg = sub i32 %div97, %34
  %sub105 = sub i32 %add104.neg, %and103
  tail call void @free(i8* %call23) #2
  tail call void @free(i8* %call35) #2
  %v108 = getelementptr inbounds %struct.event, %struct.event* %E, i64 %idxprom92, i32 0
  %36 = load float, float* %v108, align 4, !tbaa !11
  %retval.sroa.0.0.vec.insert = insertelement <2 x float> undef, float %33, i32 0
  %retval.sroa.0.4.vec.insert = insertelement <2 x float> %retval.sroa.0.0.vec.insert, float %36, i32 1
  %retval.sroa.6.8.insert.ext = zext i32 %sub96 to i64
  %retval.sroa.6.12.insert.ext = zext i32 %sub105 to i64
  br label %cleanup

cleanup:                                          ; preds = %for.cond.cleanup.i, %if.then.i, %sync.continue88, %if.then4
  %retval.sroa.5.12.insert.ext117.i.sink = phi i64 [ %retval.sroa.5.12.insert.ext117.i, %for.cond.cleanup.i ], [ %retval.sroa.5.8.insert.ext.i, %if.then.i ], [ %retval.sroa.6.12.insert.ext, %sync.continue88 ], [ %retval.sroa.6.8.insert.ext205, %if.then4 ]
  %retval.sroa.5.8.insert.ext113.i.sink = phi i64 [ %retval.sroa.5.8.insert.ext113.i, %for.cond.cleanup.i ], [ %retval.sroa.5.8.insert.ext.i, %if.then.i ], [ %retval.sroa.6.8.insert.ext, %sync.continue88 ], [ %retval.sroa.6.8.insert.ext205, %if.then4 ]
  %retval.sroa.0.0 = phi <2 x float> [ %retval.sroa.0.4.vec.insert111.i, %for.cond.cleanup.i ], [ %retval.sroa.0.4.vec.insert.i, %if.then.i ], [ %retval.sroa.0.4.vec.insert, %sync.continue88 ], [ %retval.sroa.0.4.vec.insert203, %if.then4 ]
  %retval.sroa.5.12.insert.shift118.i = shl nuw i64 %retval.sroa.5.12.insert.ext117.i.sink, 32
  %retval.sroa.5.12.insert.insert120.i = or i64 %retval.sroa.5.12.insert.shift118.i, %retval.sroa.5.8.insert.ext113.i.sink
  %.fca.0.insert = insertvalue { <2 x float>, i64 } undef, <2 x float> %retval.sroa.0.0, 0
  %.fca.1.insert = insertvalue { <2 x float>, i64 } %.fca.0.insert, i64 %retval.sroa.5.12.insert.insert120.i, 1
  ret { <2 x float>, i64 } %.fca.1.insert

if.then38.i.1:                                    ; preds = %if.end39.i
  %37 = trunc i64 %indvars.iv.next.i to i32
  br label %if.end39.i.1

if.end39.i.1:                                     ; preds = %if.then38.i.1, %if.end39.i
  %rn.1.i.1 = phi i32 [ %spec.select.i.1, %if.then38.i.1 ], [ %rn.1.i, %if.end39.i ]
  %ln.1.i.1 = phi i32 [ %spec.select102.i, %if.then38.i.1 ], [ %ln.1.i, %if.end39.i ]
  %k.1.i.1 = phi i32 [ %37, %if.then38.i.1 ], [ %k.1.i, %if.end39.i ]
  %minCost.1.i.1 = phi float [ %add36.i.1, %if.then38.i.1 ], [ %minCost.1.i, %if.end39.i ]
  %38 = xor i32 %and.i.1, 1
  %spec.select102.i.1 = add nuw nsw i32 %38, %spec.select102.i
  %indvars.iv.next.i.1 = add nuw nsw i64 %indvars.iv.i, 2
  %niter.nsub.1 = add i64 %niter, -2
  %niter.ncmp.1 = icmp eq i64 %niter.nsub.1, 0
  br i1 %niter.ncmp.1, label %for.cond.cleanup.i.loopexit.unr-lcssa, label %for.body.i
}

; Function Attrs: argmemonly nounwind
declare void @llvm.memcpy.p0i8.p0i8.i64(i8* nocapture writeonly, i8* nocapture readonly, i64, i32, i1) #5

; Function Attrs: nounwind
declare noalias i8* @malloc(i64) local_unnamed_addr #1

; Function Attrs: nounwind
declare void @free(i8* nocapture) local_unnamed_addr #1

; Function Attrs: nounwind uwtable
define void @_Z17splitEventsSerialP5rangeP5eventfi(%"struct.std::pair"* noalias nocapture sret %agg.result, %struct.range* nocapture readonly %boxes, %struct.event* nocapture readonly %events, float %cutOff, i32 %n) local_unnamed_addr #7 {
entry:
  %conv = sext i32 %n to i64
  %mul = shl nsw i64 %conv, 3
  %call = tail call noalias i8* @malloc(i64 %mul) #2
  %0 = bitcast i8* %call to %struct.event*
  %call3 = tail call noalias i8* @malloc(i64 %mul) #2
  %1 = bitcast i8* %call3 to %struct.event*
  %cmp61 = icmp sgt i32 %n, 0
  br i1 %cmp61, label %for.body.lr.ph, label %for.cond.cleanup

for.body.lr.ph:                                   ; preds = %entry
  %wide.trip.count = zext i32 %n to i64
  %xtraiter = and i64 %wide.trip.count, 1
  %2 = icmp eq i32 %n, 1
  br i1 %2, label %for.cond.cleanup.loopexit.unr-lcssa, label %for.body.lr.ph.new

for.body.lr.ph.new:                               ; preds = %for.body.lr.ph
  %unroll_iter = sub nsw i64 %wide.trip.count, %xtraiter
  br label %for.body

for.cond.cleanup.loopexit.unr-lcssa:              ; preds = %if.end25.1, %for.body.lr.ph
  %r.1.lcssa.ph = phi i32 [ undef, %for.body.lr.ph ], [ %r.1.1, %if.end25.1 ]
  %l.1.lcssa.ph = phi i32 [ undef, %for.body.lr.ph ], [ %l.1.1, %if.end25.1 ]
  %indvars.iv.unr = phi i64 [ 0, %for.body.lr.ph ], [ %indvars.iv.next.1, %if.end25.1 ]
  %l.064.unr = phi i32 [ 0, %for.body.lr.ph ], [ %l.1.1, %if.end25.1 ]
  %r.062.unr = phi i32 [ 0, %for.body.lr.ph ], [ %r.1.1, %if.end25.1 ]
  %lcmp.mod = icmp eq i64 %xtraiter, 0
  br i1 %lcmp.mod, label %for.cond.cleanup, label %for.body.epil

for.body.epil:                                    ; preds = %for.cond.cleanup.loopexit.unr-lcssa
  %arrayidx.epil = getelementptr inbounds %struct.event, %struct.event* %events, i64 %indvars.iv.unr
  %p.epil = getelementptr inbounds %struct.event, %struct.event* %events, i64 %indvars.iv.unr, i32 1
  %3 = load i32, i32* %p.epil, align 4, !tbaa !8
  %shr.epil = ashr i32 %3, 1
  %idxprom4.epil = sext i32 %shr.epil to i64
  %min.epil = getelementptr inbounds %struct.range, %struct.range* %boxes, i64 %idxprom4.epil, i32 0
  %4 = load float, float* %min.epil, align 4, !tbaa !7
  %cmp6.epil = fcmp olt float %4, %cutOff
  br i1 %cmp6.epil, label %if.then.epil, label %if.else.epil

if.else.epil:                                     ; preds = %for.body.epil
  %inc22.epil = add nsw i32 %r.062.unr, 1
  %idxprom23.epil = sext i32 %r.062.unr to i64
  %arrayidx24.epil = getelementptr inbounds %struct.event, %struct.event* %1, i64 %idxprom23.epil
  %5 = bitcast %struct.event* %arrayidx.epil to i64*
  %6 = bitcast %struct.event* %arrayidx24.epil to i64*
  %7 = load i64, i64* %5, align 4
  store i64 %7, i64* %6, align 4
  br label %for.cond.cleanup

if.then.epil:                                     ; preds = %for.body.epil
  %inc.epil = add nsw i32 %l.064.unr, 1
  %idxprom9.epil = sext i32 %l.064.unr to i64
  %arrayidx10.epil = getelementptr inbounds %struct.event, %struct.event* %0, i64 %idxprom9.epil
  %8 = bitcast %struct.event* %arrayidx.epil to i64*
  %9 = bitcast %struct.event* %arrayidx10.epil to i64*
  %10 = load i64, i64* %8, align 4
  store i64 %10, i64* %9, align 4
  %max.epil = getelementptr inbounds %struct.range, %struct.range* %boxes, i64 %idxprom4.epil, i32 1
  %11 = load float, float* %max.epil, align 4, !tbaa !2
  %cmp13.epil = fcmp ogt float %11, %cutOff
  br i1 %cmp13.epil, label %if.then14.epil, label %for.cond.cleanup

if.then14.epil:                                   ; preds = %if.then.epil
  %inc17.epil = add nsw i32 %r.062.unr, 1
  %idxprom18.epil = sext i32 %r.062.unr to i64
  %arrayidx19.epil = getelementptr inbounds %struct.event, %struct.event* %1, i64 %idxprom18.epil
  %12 = bitcast %struct.event* %arrayidx19.epil to i64*
  store i64 %10, i64* %12, align 4
  br label %for.cond.cleanup

for.cond.cleanup:                                 ; preds = %for.cond.cleanup.loopexit.unr-lcssa, %if.else.epil, %if.then.epil, %if.then14.epil, %entry
  %r.0.lcssa = phi i32 [ 0, %entry ], [ %r.1.lcssa.ph, %for.cond.cleanup.loopexit.unr-lcssa ], [ %inc17.epil, %if.then14.epil ], [ %r.062.unr, %if.then.epil ], [ %inc22.epil, %if.else.epil ]
  %l.0.lcssa = phi i32 [ 0, %entry ], [ %l.1.lcssa.ph, %for.cond.cleanup.loopexit.unr-lcssa ], [ %inc.epil, %if.then14.epil ], [ %inc.epil, %if.then.epil ], [ %l.064.unr, %if.else.epil ]
  %conv27 = sext i32 %l.0.lcssa to i64
  %conv29 = sext i32 %r.0.lcssa to i64
  %13 = bitcast %"struct.std::pair"* %agg.result to i8**
  store i8* %call, i8** %13, align 8
  %ref.tmp.sroa.4.0..sroa_idx60 = getelementptr inbounds %"struct.std::pair", %"struct.std::pair"* %agg.result, i64 0, i32 0, i32 1
  store i64 %conv27, i64* %ref.tmp.sroa.4.0..sroa_idx60, align 8
  %ref.tmp28.sroa.0.0..sroa_idx = getelementptr inbounds %"struct.std::pair", %"struct.std::pair"* %agg.result, i64 0, i32 1, i32 0
  %14 = bitcast %struct.event** %ref.tmp28.sroa.0.0..sroa_idx to i8**
  store i8* %call3, i8** %14, align 8
  %ref.tmp28.sroa.4.0..sroa_idx57 = getelementptr inbounds %"struct.std::pair", %"struct.std::pair"* %agg.result, i64 0, i32 1, i32 1
  store i64 %conv29, i64* %ref.tmp28.sroa.4.0..sroa_idx57, align 8
  ret void

for.body:                                         ; preds = %if.end25.1, %for.body.lr.ph.new
  %indvars.iv = phi i64 [ 0, %for.body.lr.ph.new ], [ %indvars.iv.next.1, %if.end25.1 ]
  %l.064 = phi i32 [ 0, %for.body.lr.ph.new ], [ %l.1.1, %if.end25.1 ]
  %r.062 = phi i32 [ 0, %for.body.lr.ph.new ], [ %r.1.1, %if.end25.1 ]
  %niter = phi i64 [ %unroll_iter, %for.body.lr.ph.new ], [ %niter.nsub.1, %if.end25.1 ]
  %arrayidx = getelementptr inbounds %struct.event, %struct.event* %events, i64 %indvars.iv
  %p = getelementptr inbounds %struct.event, %struct.event* %events, i64 %indvars.iv, i32 1
  %15 = load i32, i32* %p, align 4, !tbaa !8
  %shr = ashr i32 %15, 1
  %idxprom4 = sext i32 %shr to i64
  %min = getelementptr inbounds %struct.range, %struct.range* %boxes, i64 %idxprom4, i32 0
  %16 = load float, float* %min, align 4, !tbaa !7
  %cmp6 = fcmp olt float %16, %cutOff
  br i1 %cmp6, label %if.then, label %if.else

if.then:                                          ; preds = %for.body
  %inc = add nsw i32 %l.064, 1
  %idxprom9 = sext i32 %l.064 to i64
  %arrayidx10 = getelementptr inbounds %struct.event, %struct.event* %0, i64 %idxprom9
  %17 = bitcast %struct.event* %arrayidx to i64*
  %18 = bitcast %struct.event* %arrayidx10 to i64*
  %19 = load i64, i64* %17, align 4
  store i64 %19, i64* %18, align 4
  %max = getelementptr inbounds %struct.range, %struct.range* %boxes, i64 %idxprom4, i32 1
  %20 = load float, float* %max, align 4, !tbaa !2
  %cmp13 = fcmp ogt float %20, %cutOff
  br i1 %cmp13, label %if.then14, label %if.end25

if.then14:                                        ; preds = %if.then
  %inc17 = add nsw i32 %r.062, 1
  %idxprom18 = sext i32 %r.062 to i64
  %arrayidx19 = getelementptr inbounds %struct.event, %struct.event* %1, i64 %idxprom18
  %21 = bitcast %struct.event* %arrayidx19 to i64*
  store i64 %19, i64* %21, align 4
  br label %if.end25

if.else:                                          ; preds = %for.body
  %inc22 = add nsw i32 %r.062, 1
  %idxprom23 = sext i32 %r.062 to i64
  %arrayidx24 = getelementptr inbounds %struct.event, %struct.event* %1, i64 %idxprom23
  %22 = bitcast %struct.event* %arrayidx to i64*
  %23 = bitcast %struct.event* %arrayidx24 to i64*
  %24 = load i64, i64* %22, align 4
  store i64 %24, i64* %23, align 4
  br label %if.end25

if.end25:                                         ; preds = %if.then, %if.then14, %if.else
  %r.1 = phi i32 [ %inc17, %if.then14 ], [ %r.062, %if.then ], [ %inc22, %if.else ]
  %l.1 = phi i32 [ %inc, %if.then14 ], [ %inc, %if.then ], [ %l.064, %if.else ]
  %indvars.iv.next = or i64 %indvars.iv, 1
  %arrayidx.1 = getelementptr inbounds %struct.event, %struct.event* %events, i64 %indvars.iv.next
  %p.1 = getelementptr inbounds %struct.event, %struct.event* %events, i64 %indvars.iv.next, i32 1
  %25 = load i32, i32* %p.1, align 4, !tbaa !8
  %shr.1 = ashr i32 %25, 1
  %idxprom4.1 = sext i32 %shr.1 to i64
  %min.1 = getelementptr inbounds %struct.range, %struct.range* %boxes, i64 %idxprom4.1, i32 0
  %26 = load float, float* %min.1, align 4, !tbaa !7
  %cmp6.1 = fcmp olt float %26, %cutOff
  br i1 %cmp6.1, label %if.then.1, label %if.else.1

if.else.1:                                        ; preds = %if.end25
  %inc22.1 = add nsw i32 %r.1, 1
  %idxprom23.1 = sext i32 %r.1 to i64
  %arrayidx24.1 = getelementptr inbounds %struct.event, %struct.event* %1, i64 %idxprom23.1
  %27 = bitcast %struct.event* %arrayidx.1 to i64*
  %28 = bitcast %struct.event* %arrayidx24.1 to i64*
  %29 = load i64, i64* %27, align 4
  store i64 %29, i64* %28, align 4
  br label %if.end25.1

if.then.1:                                        ; preds = %if.end25
  %inc.1 = add nsw i32 %l.1, 1
  %idxprom9.1 = sext i32 %l.1 to i64
  %arrayidx10.1 = getelementptr inbounds %struct.event, %struct.event* %0, i64 %idxprom9.1
  %30 = bitcast %struct.event* %arrayidx.1 to i64*
  %31 = bitcast %struct.event* %arrayidx10.1 to i64*
  %32 = load i64, i64* %30, align 4
  store i64 %32, i64* %31, align 4
  %max.1 = getelementptr inbounds %struct.range, %struct.range* %boxes, i64 %idxprom4.1, i32 1
  %33 = load float, float* %max.1, align 4, !tbaa !2
  %cmp13.1 = fcmp ogt float %33, %cutOff
  br i1 %cmp13.1, label %if.then14.1, label %if.end25.1

if.then14.1:                                      ; preds = %if.then.1
  %inc17.1 = add nsw i32 %r.1, 1
  %idxprom18.1 = sext i32 %r.1 to i64
  %arrayidx19.1 = getelementptr inbounds %struct.event, %struct.event* %1, i64 %idxprom18.1
  %34 = bitcast %struct.event* %arrayidx19.1 to i64*
  store i64 %32, i64* %34, align 4
  br label %if.end25.1

if.end25.1:                                       ; preds = %if.then14.1, %if.then.1, %if.else.1
  %r.1.1 = phi i32 [ %inc17.1, %if.then14.1 ], [ %r.1, %if.then.1 ], [ %inc22.1, %if.else.1 ]
  %l.1.1 = phi i32 [ %inc.1, %if.then14.1 ], [ %inc.1, %if.then.1 ], [ %l.1, %if.else.1 ]
  %indvars.iv.next.1 = add nuw nsw i64 %indvars.iv, 2
  %niter.nsub.1 = add i64 %niter, -2
  %niter.ncmp.1 = icmp eq i64 %niter.nsub.1, 0
  br i1 %niter.ncmp.1, label %for.cond.cleanup.loopexit.unr-lcssa, label %for.body
}

; Function Attrs: uwtable
define void @_Z11splitEventsP5rangeP5eventfi(%"struct.std::pair"* noalias nocapture sret %agg.result, %struct.range* nocapture readonly %boxes, %struct.event* %events, float %cutOff, i32 %n) local_unnamed_addr #6 {
entry:
  %0 = alloca { %struct.event*, %struct.range*, float, i8*, i8* }, align 8
  %1 = load i32, i32* @minParallelSize, align 4, !tbaa !12
  %cmp = icmp sgt i32 %1, %n
  %conv.i = sext i32 %n to i64
  br i1 %cmp, label %if.then, label %if.end

if.then:                                          ; preds = %entry
  %mul.i = shl nsw i64 %conv.i, 3
  %call.i = tail call noalias i8* @malloc(i64 %mul.i) #2, !noalias !14
  %2 = bitcast i8* %call.i to %struct.event*
  %call3.i = tail call noalias i8* @malloc(i64 %mul.i) #2, !noalias !14
  %3 = bitcast i8* %call3.i to %struct.event*
  %cmp61.i = icmp sgt i32 %n, 0
  br i1 %cmp61.i, label %for.body.lr.ph.i, label %_Z17splitEventsSerialP5rangeP5eventfi.exit

for.body.lr.ph.i:                                 ; preds = %if.then
  %wide.trip.count.i = zext i32 %n to i64
  %xtraiter = and i64 %wide.trip.count.i, 1
  %4 = icmp eq i32 %n, 1
  br i1 %4, label %_Z17splitEventsSerialP5rangeP5eventfi.exit.loopexit.unr-lcssa, label %for.body.lr.ph.i.new

for.body.lr.ph.i.new:                             ; preds = %for.body.lr.ph.i
  %unroll_iter = sub nsw i64 %wide.trip.count.i, %xtraiter
  br label %for.body.i

for.body.i:                                       ; preds = %if.end25.i.1, %for.body.lr.ph.i.new
  %indvars.iv.i = phi i64 [ 0, %for.body.lr.ph.i.new ], [ %indvars.iv.next.i.1, %if.end25.i.1 ]
  %l.064.i = phi i32 [ 0, %for.body.lr.ph.i.new ], [ %l.1.i.1, %if.end25.i.1 ]
  %r.062.i = phi i32 [ 0, %for.body.lr.ph.i.new ], [ %r.1.i.1, %if.end25.i.1 ]
  %niter = phi i64 [ %unroll_iter, %for.body.lr.ph.i.new ], [ %niter.nsub.1, %if.end25.i.1 ]
  %arrayidx.i = getelementptr inbounds %struct.event, %struct.event* %events, i64 %indvars.iv.i
  %p.i = getelementptr inbounds %struct.event, %struct.event* %events, i64 %indvars.iv.i, i32 1
  %5 = load i32, i32* %p.i, align 4, !tbaa !8, !noalias !14
  %shr.i = ashr i32 %5, 1
  %idxprom4.i = sext i32 %shr.i to i64
  %min.i = getelementptr inbounds %struct.range, %struct.range* %boxes, i64 %idxprom4.i, i32 0
  %6 = load float, float* %min.i, align 4, !tbaa !7, !noalias !14
  %cmp6.i = fcmp olt float %6, %cutOff
  br i1 %cmp6.i, label %if.then.i, label %if.else.i

if.then.i:                                        ; preds = %for.body.i
  %inc.i = add nsw i32 %l.064.i, 1
  %idxprom9.i = sext i32 %l.064.i to i64
  %arrayidx10.i = getelementptr inbounds %struct.event, %struct.event* %2, i64 %idxprom9.i
  %7 = bitcast %struct.event* %arrayidx.i to i64*
  %8 = bitcast %struct.event* %arrayidx10.i to i64*
  %9 = load i64, i64* %7, align 4, !noalias !14
  store i64 %9, i64* %8, align 4, !noalias !14
  %max.i = getelementptr inbounds %struct.range, %struct.range* %boxes, i64 %idxprom4.i, i32 1
  %10 = load float, float* %max.i, align 4, !tbaa !2, !noalias !14
  %cmp13.i = fcmp ogt float %10, %cutOff
  br i1 %cmp13.i, label %if.then14.i, label %if.end25.i

if.then14.i:                                      ; preds = %if.then.i
  %inc17.i = add nsw i32 %r.062.i, 1
  %idxprom18.i = sext i32 %r.062.i to i64
  %arrayidx19.i = getelementptr inbounds %struct.event, %struct.event* %3, i64 %idxprom18.i
  %11 = bitcast %struct.event* %arrayidx19.i to i64*
  store i64 %9, i64* %11, align 4, !noalias !14
  br label %if.end25.i

if.else.i:                                        ; preds = %for.body.i
  %inc22.i = add nsw i32 %r.062.i, 1
  %idxprom23.i = sext i32 %r.062.i to i64
  %arrayidx24.i = getelementptr inbounds %struct.event, %struct.event* %3, i64 %idxprom23.i
  %12 = bitcast %struct.event* %arrayidx.i to i64*
  %13 = bitcast %struct.event* %arrayidx24.i to i64*
  %14 = load i64, i64* %12, align 4, !noalias !14
  store i64 %14, i64* %13, align 4, !noalias !14
  br label %if.end25.i

if.end25.i:                                       ; preds = %if.else.i, %if.then14.i, %if.then.i
  %r.1.i = phi i32 [ %inc17.i, %if.then14.i ], [ %r.062.i, %if.then.i ], [ %inc22.i, %if.else.i ]
  %l.1.i = phi i32 [ %inc.i, %if.then14.i ], [ %inc.i, %if.then.i ], [ %l.064.i, %if.else.i ]
  %indvars.iv.next.i = or i64 %indvars.iv.i, 1
  %arrayidx.i.1 = getelementptr inbounds %struct.event, %struct.event* %events, i64 %indvars.iv.next.i
  %p.i.1 = getelementptr inbounds %struct.event, %struct.event* %events, i64 %indvars.iv.next.i, i32 1
  %15 = load i32, i32* %p.i.1, align 4, !tbaa !8, !noalias !14
  %shr.i.1 = ashr i32 %15, 1
  %idxprom4.i.1 = sext i32 %shr.i.1 to i64
  %min.i.1 = getelementptr inbounds %struct.range, %struct.range* %boxes, i64 %idxprom4.i.1, i32 0
  %16 = load float, float* %min.i.1, align 4, !tbaa !7, !noalias !14
  %cmp6.i.1 = fcmp olt float %16, %cutOff
  br i1 %cmp6.i.1, label %if.then.i.1, label %if.else.i.1

_Z17splitEventsSerialP5rangeP5eventfi.exit.loopexit.unr-lcssa: ; preds = %if.end25.i.1, %for.body.lr.ph.i
  %r.1.i.lcssa.ph = phi i32 [ undef, %for.body.lr.ph.i ], [ %r.1.i.1, %if.end25.i.1 ]
  %l.1.i.lcssa.ph = phi i32 [ undef, %for.body.lr.ph.i ], [ %l.1.i.1, %if.end25.i.1 ]
  %indvars.iv.i.unr = phi i64 [ 0, %for.body.lr.ph.i ], [ %indvars.iv.next.i.1, %if.end25.i.1 ]
  %l.064.i.unr = phi i32 [ 0, %for.body.lr.ph.i ], [ %l.1.i.1, %if.end25.i.1 ]
  %r.062.i.unr = phi i32 [ 0, %for.body.lr.ph.i ], [ %r.1.i.1, %if.end25.i.1 ]
  %lcmp.mod = icmp eq i64 %xtraiter, 0
  br i1 %lcmp.mod, label %_Z17splitEventsSerialP5rangeP5eventfi.exit, label %for.body.i.epil

for.body.i.epil:                                  ; preds = %_Z17splitEventsSerialP5rangeP5eventfi.exit.loopexit.unr-lcssa
  %arrayidx.i.epil = getelementptr inbounds %struct.event, %struct.event* %events, i64 %indvars.iv.i.unr
  %p.i.epil = getelementptr inbounds %struct.event, %struct.event* %events, i64 %indvars.iv.i.unr, i32 1
  %17 = load i32, i32* %p.i.epil, align 4, !tbaa !8, !noalias !14
  %shr.i.epil = ashr i32 %17, 1
  %idxprom4.i.epil = sext i32 %shr.i.epil to i64
  %min.i.epil = getelementptr inbounds %struct.range, %struct.range* %boxes, i64 %idxprom4.i.epil, i32 0
  %18 = load float, float* %min.i.epil, align 4, !tbaa !7, !noalias !14
  %cmp6.i.epil = fcmp olt float %18, %cutOff
  br i1 %cmp6.i.epil, label %if.then.i.epil, label %if.else.i.epil

if.else.i.epil:                                   ; preds = %for.body.i.epil
  %inc22.i.epil = add nsw i32 %r.062.i.unr, 1
  %idxprom23.i.epil = sext i32 %r.062.i.unr to i64
  %arrayidx24.i.epil = getelementptr inbounds %struct.event, %struct.event* %3, i64 %idxprom23.i.epil
  %19 = bitcast %struct.event* %arrayidx.i.epil to i64*
  %20 = bitcast %struct.event* %arrayidx24.i.epil to i64*
  %21 = load i64, i64* %19, align 4, !noalias !14
  store i64 %21, i64* %20, align 4, !noalias !14
  br label %_Z17splitEventsSerialP5rangeP5eventfi.exit

if.then.i.epil:                                   ; preds = %for.body.i.epil
  %inc.i.epil = add nsw i32 %l.064.i.unr, 1
  %idxprom9.i.epil = sext i32 %l.064.i.unr to i64
  %arrayidx10.i.epil = getelementptr inbounds %struct.event, %struct.event* %2, i64 %idxprom9.i.epil
  %22 = bitcast %struct.event* %arrayidx.i.epil to i64*
  %23 = bitcast %struct.event* %arrayidx10.i.epil to i64*
  %24 = load i64, i64* %22, align 4, !noalias !14
  store i64 %24, i64* %23, align 4, !noalias !14
  %max.i.epil = getelementptr inbounds %struct.range, %struct.range* %boxes, i64 %idxprom4.i.epil, i32 1
  %25 = load float, float* %max.i.epil, align 4, !tbaa !2, !noalias !14
  %cmp13.i.epil = fcmp ogt float %25, %cutOff
  br i1 %cmp13.i.epil, label %if.then14.i.epil, label %_Z17splitEventsSerialP5rangeP5eventfi.exit

if.then14.i.epil:                                 ; preds = %if.then.i.epil
  %inc17.i.epil = add nsw i32 %r.062.i.unr, 1
  %idxprom18.i.epil = sext i32 %r.062.i.unr to i64
  %arrayidx19.i.epil = getelementptr inbounds %struct.event, %struct.event* %3, i64 %idxprom18.i.epil
  %26 = bitcast %struct.event* %arrayidx19.i.epil to i64*
  store i64 %24, i64* %26, align 4, !noalias !14
  br label %_Z17splitEventsSerialP5rangeP5eventfi.exit

_Z17splitEventsSerialP5rangeP5eventfi.exit:       ; preds = %_Z17splitEventsSerialP5rangeP5eventfi.exit.loopexit.unr-lcssa, %if.else.i.epil, %if.then.i.epil, %if.then14.i.epil, %if.then
  %r.0.lcssa.i = phi i32 [ 0, %if.then ], [ %r.1.i.lcssa.ph, %_Z17splitEventsSerialP5rangeP5eventfi.exit.loopexit.unr-lcssa ], [ %inc17.i.epil, %if.then14.i.epil ], [ %r.062.i.unr, %if.then.i.epil ], [ %inc22.i.epil, %if.else.i.epil ]
  %l.0.lcssa.i = phi i32 [ 0, %if.then ], [ %l.1.i.lcssa.ph, %_Z17splitEventsSerialP5rangeP5eventfi.exit.loopexit.unr-lcssa ], [ %inc.i.epil, %if.then14.i.epil ], [ %inc.i.epil, %if.then.i.epil ], [ %l.064.i.unr, %if.else.i.epil ]
  %conv27.i = sext i32 %l.0.lcssa.i to i64
  %conv29.i = sext i32 %r.0.lcssa.i to i64
  %27 = bitcast %"struct.std::pair"* %agg.result to i8**
  store i8* %call.i, i8** %27, align 8, !alias.scope !14
  %ref.tmp.sroa.4.0..sroa_idx60.i = getelementptr inbounds %"struct.std::pair", %"struct.std::pair"* %agg.result, i64 0, i32 0, i32 1
  store i64 %conv27.i, i64* %ref.tmp.sroa.4.0..sroa_idx60.i, align 8, !alias.scope !14
  %ref.tmp28.sroa.0.0..sroa_idx.i = getelementptr inbounds %"struct.std::pair", %"struct.std::pair"* %agg.result, i64 0, i32 1, i32 0
  %28 = bitcast %struct.event** %ref.tmp28.sroa.0.0..sroa_idx.i to i8**
  store i8* %call3.i, i8** %28, align 8, !alias.scope !14
  br label %cleanup

if.end:                                           ; preds = %entry
  %call = tail call noalias i8* @malloc(i64 %conv.i) #2
  %call3 = tail call noalias i8* @malloc(i64 %conv.i) #2
  %cmp558 = icmp sgt i32 %n, 0
  br i1 %cmp558, label %pfor.cond.cleanup.loopexit, label %sync.continue

pfor.cond.cleanup.loopexit:                       ; preds = %if.end
  %wide.trip.count = zext i32 %n to i64
  %29 = getelementptr inbounds { %struct.event*, %struct.range*, float, i8*, i8* }, { %struct.event*, %struct.range*, float, i8*, i8* }* %0, i64 0, i32 0
  store %struct.event* %events, %struct.event** %29, align 8
  %30 = getelementptr inbounds { %struct.event*, %struct.range*, float, i8*, i8* }, { %struct.event*, %struct.range*, float, i8*, i8* }* %0, i64 0, i32 1
  store %struct.range* %boxes, %struct.range** %30, align 8
  %31 = getelementptr inbounds { %struct.event*, %struct.range*, float, i8*, i8* }, { %struct.event*, %struct.range*, float, i8*, i8* }* %0, i64 0, i32 2
  store float %cutOff, float* %31, align 8
  %32 = getelementptr inbounds { %struct.event*, %struct.range*, float, i8*, i8* }, { %struct.event*, %struct.range*, float, i8*, i8* }* %0, i64 0, i32 3
  store i8* %call, i8** %32, align 8
  %33 = getelementptr inbounds { %struct.event*, %struct.range*, float, i8*, i8* }, { %struct.event*, %struct.range*, float, i8*, i8* }* %0, i64 0, i32 4
  store i8* %call3, i8** %33, align 8
  %34 = bitcast { %struct.event*, %struct.range*, float, i8*, i8* }* %0 to i8*
  call fastcc void @__cilkrts_cilk_for_64(void (i8*, i64, i64)* bitcast (void ({ %struct.event*, %struct.range*, float, i8*, i8* }*, i64, i64)* @_Z11splitEventsP5rangeP5eventfi_pfor.detach.ls to void (i8*, i64, i64)*), i8* nonnull %34, i64 %wide.trip.count, i32 0)
  br label %sync.continue

sync.continue:                                    ; preds = %if.end, %pfor.cond.cleanup.loopexit
  %call.i50 = tail call { %struct.event*, i64 } @_ZN8sequence4packI5eventiNS_4getAIS1_iEEEE4_seqIT_EPS5_PbT0_S9_T1_(%struct.event* null, i8* %call, i32 0, i32 %n, %struct.event* %events)
  %35 = extractvalue { %struct.event*, i64 } %call.i50, 0
  %36 = extractvalue { %struct.event*, i64 } %call.i50, 1
  %call.i51 = tail call { %struct.event*, i64 } @_ZN8sequence4packI5eventiNS_4getAIS1_iEEEE4_seqIT_EPS5_PbT0_S9_T1_(%struct.event* null, i8* %call3, i32 0, i32 %n, %struct.event* %events)
  %37 = extractvalue { %struct.event*, i64 } %call.i51, 0
  %38 = extractvalue { %struct.event*, i64 } %call.i51, 1
  tail call void @free(i8* %call) #2
  tail call void @free(i8* %call3) #2
  %L.sroa.0.0..sroa_idx = getelementptr inbounds %"struct.std::pair", %"struct.std::pair"* %agg.result, i64 0, i32 0, i32 0
  store %struct.event* %35, %struct.event** %L.sroa.0.0..sroa_idx, align 8
  %L.sroa.4.0..sroa_idx57 = getelementptr inbounds %"struct.std::pair", %"struct.std::pair"* %agg.result, i64 0, i32 0, i32 1
  store i64 %36, i64* %L.sroa.4.0..sroa_idx57, align 8
  %R.sroa.0.0..sroa_idx = getelementptr inbounds %"struct.std::pair", %"struct.std::pair"* %agg.result, i64 0, i32 1, i32 0
  store %struct.event* %37, %struct.event** %R.sroa.0.0..sroa_idx, align 8
  br label %cleanup

cleanup:                                          ; preds = %sync.continue, %_Z17splitEventsSerialP5rangeP5eventfi.exit
  %.sink = phi i64 [ %38, %sync.continue ], [ %conv29.i, %_Z17splitEventsSerialP5rangeP5eventfi.exit ]
  %R.sroa.4.0..sroa_idx54 = getelementptr inbounds %"struct.std::pair", %"struct.std::pair"* %agg.result, i64 0, i32 1, i32 1
  store i64 %.sink, i64* %R.sroa.4.0..sroa_idx54, align 8
  ret void

if.else.i.1:                                      ; preds = %if.end25.i
  %inc22.i.1 = add nsw i32 %r.1.i, 1
  %idxprom23.i.1 = sext i32 %r.1.i to i64
  %arrayidx24.i.1 = getelementptr inbounds %struct.event, %struct.event* %3, i64 %idxprom23.i.1
  %39 = bitcast %struct.event* %arrayidx.i.1 to i64*
  %40 = bitcast %struct.event* %arrayidx24.i.1 to i64*
  %41 = load i64, i64* %39, align 4, !noalias !14
  store i64 %41, i64* %40, align 4, !noalias !14
  br label %if.end25.i.1

if.then.i.1:                                      ; preds = %if.end25.i
  %inc.i.1 = add nsw i32 %l.1.i, 1
  %idxprom9.i.1 = sext i32 %l.1.i to i64
  %arrayidx10.i.1 = getelementptr inbounds %struct.event, %struct.event* %2, i64 %idxprom9.i.1
  %42 = bitcast %struct.event* %arrayidx.i.1 to i64*
  %43 = bitcast %struct.event* %arrayidx10.i.1 to i64*
  %44 = load i64, i64* %42, align 4, !noalias !14
  store i64 %44, i64* %43, align 4, !noalias !14
  %max.i.1 = getelementptr inbounds %struct.range, %struct.range* %boxes, i64 %idxprom4.i.1, i32 1
  %45 = load float, float* %max.i.1, align 4, !tbaa !2, !noalias !14
  %cmp13.i.1 = fcmp ogt float %45, %cutOff
  br i1 %cmp13.i.1, label %if.then14.i.1, label %if.end25.i.1

if.then14.i.1:                                    ; preds = %if.then.i.1
  %inc17.i.1 = add nsw i32 %r.1.i, 1
  %idxprom18.i.1 = sext i32 %r.1.i to i64
  %arrayidx19.i.1 = getelementptr inbounds %struct.event, %struct.event* %3, i64 %idxprom18.i.1
  %46 = bitcast %struct.event* %arrayidx19.i.1 to i64*
  store i64 %44, i64* %46, align 4, !noalias !14
  br label %if.end25.i.1

if.end25.i.1:                                     ; preds = %if.then14.i.1, %if.then.i.1, %if.else.i.1
  %r.1.i.1 = phi i32 [ %inc17.i.1, %if.then14.i.1 ], [ %r.1.i, %if.then.i.1 ], [ %inc22.i.1, %if.else.i.1 ]
  %l.1.i.1 = phi i32 [ %inc.i.1, %if.then14.i.1 ], [ %inc.i.1, %if.then.i.1 ], [ %l.1.i, %if.else.i.1 ]
  %indvars.iv.next.i.1 = add nuw nsw i64 %indvars.iv.i, 2
  %niter.nsub.1 = add i64 %niter, -2
  %niter.ncmp.1 = icmp eq i64 %niter.nsub.1, 0
  br i1 %niter.ncmp.1, label %_Z17splitEventsSerialP5rangeP5eventfi.exit.loopexit.unr-lcssa, label %for.body.i
}

; Function Attrs: stealable uwtable
define nonnull %struct.treeNode* @_Z12generateNodePP5rangePP5eventS0_ii(%struct.range** nocapture readonly %boxes, %struct.event** %events, %struct.range* %B, i32 %n, i32 %maxDepth) local_unnamed_addr #8 personality i8* bitcast (i32 (...)* @__gxx_personality_v0 to i8*) {
entry:
  %__cilkrts_sf = alloca %struct.__cilkrts_stack_frame, align 8
  %0 = call %struct.__cilkrts_worker* @__cilkrts_get_tls_worker() #2
  %1 = icmp eq %struct.__cilkrts_worker* %0, null
  br i1 %1, label %slowpath.i, label %__cilkrts_enter_frame_1.exit

slowpath.i:                                       ; preds = %entry
  %2 = call %struct.__cilkrts_worker* @__cilkrts_bind_thread_1() #2
  br label %__cilkrts_enter_frame_1.exit

__cilkrts_enter_frame_1.exit:                     ; preds = %entry, %slowpath.i
  %.sink = phi i32 [ 16777344, %slowpath.i ], [ 16777216, %entry ]
  %3 = phi %struct.__cilkrts_worker* [ %2, %slowpath.i ], [ %0, %entry ]
  %4 = getelementptr inbounds %struct.__cilkrts_stack_frame, %struct.__cilkrts_stack_frame* %__cilkrts_sf, i64 0, i32 0
  store atomic i32 %.sink, i32* %4 release, align 8
  %5 = getelementptr inbounds %struct.__cilkrts_worker, %struct.__cilkrts_worker* %3, i64 0, i32 9
  %6 = load atomic %struct.__cilkrts_stack_frame*, %struct.__cilkrts_stack_frame** %5 acquire, align 8
  %7 = getelementptr inbounds %struct.__cilkrts_stack_frame, %struct.__cilkrts_stack_frame* %__cilkrts_sf, i64 0, i32 2
  store atomic %struct.__cilkrts_stack_frame* %6, %struct.__cilkrts_stack_frame** %7 release, align 8
  %8 = getelementptr inbounds %struct.__cilkrts_stack_frame, %struct.__cilkrts_stack_frame* %__cilkrts_sf, i64 0, i32 3
  store atomic %struct.__cilkrts_worker* %3, %struct.__cilkrts_worker** %8 release, align 8
  store atomic %struct.__cilkrts_stack_frame* %__cilkrts_sf, %struct.__cilkrts_stack_frame** %5 release, align 8
  %B395 = bitcast %struct.range* %B to i8*
  %cuts = alloca [3 x %struct.cutInfo], align 16
  %BBL = alloca [3 x %struct.range], align 16
  %9 = bitcast [3 x %struct.range]* %BBL to i8*
  %leftEvents = alloca [3 x %struct.event*], align 16
  %BBR = alloca [3 x %struct.range], align 16
  %10 = bitcast [3 x %struct.range]* %BBR to i8*
  %rightEvents = alloca [3 x %struct.event*], align 16
  %X.sroa.0 = alloca i64, align 16
  %X.sroa.6 = alloca i64, align 8
  %X.sroa.7 = alloca i64, align 16
  %X.sroa.9 = alloca i64, align 8
  %X.sroa.10 = alloca i64, align 16
  %X.sroa.12 = alloca i64, align 8
  %X.sroa.13 = alloca i64, align 16
  %X.sroa.15 = alloca i64, align 8
  %X.sroa.16 = alloca i64, align 16
  %X.sroa.18 = alloca i64, align 8
  %X.sroa.19 = alloca i64, align 16
  %X.sroa.21 = alloca i64, align 8
  %L = alloca %struct.treeNode*, align 8
  %cmp = icmp slt i32 %n, 3
  %cmp1 = icmp eq i32 %maxDepth, 0
  %or.cond = or i1 %cmp, %cmp1
  br i1 %or.cond, label %if.then, label %if.end

if.then:                                          ; preds = %__cilkrts_enter_frame_1.exit
  %call = tail call i8* @_Znwm(i64 64) #19
  %11 = bitcast i8* %call to %struct.treeNode*
  invoke void @_ZN8treeNodeC2EPP5eventiP5range(%struct.treeNode* nonnull %11, %struct.event** %events, i32 %n, %struct.range* %B)
          to label %if.then.cleanup254_crit_edge unwind label %lpad

if.then.cleanup254_crit_edge:                     ; preds = %if.then
  %.pre = getelementptr inbounds %struct.__cilkrts_stack_frame, %struct.__cilkrts_stack_frame* %__cilkrts_sf, i64 0, i32 0
  br label %cleanup254

lpad:                                             ; preds = %if.then
  %12 = landingpad { i8*, i32 }
          cleanup
  %13 = extractvalue { i8*, i32 } %12, 0
  %14 = extractvalue { i8*, i32 } %12, 1
  tail call void @_ZdlPv(i8* nonnull %call) #20
  br label %eh.resume

if.end:                                           ; preds = %__cilkrts_enter_frame_1.exit
  %15 = bitcast [3 x %struct.cutInfo]* %cuts to i8*
  call void @llvm.lifetime.start.p0i8(i64 48, i8* nonnull %15) #2
  %16 = load %struct.event*, %struct.event** %events, align 8, !tbaa !17
  %agg.tmp.sroa.0.0..sroa_cast = bitcast %struct.range* %B to <2 x float>*
  %agg.tmp.sroa.0.0.copyload = load <2 x float>, <2 x float>* %agg.tmp.sroa.0.0..sroa_cast, align 4
  %arrayidx9 = getelementptr inbounds %struct.range, %struct.range* %B, i64 1
  %agg.tmp7.sroa.0.0..sroa_cast = bitcast %struct.range* %arrayidx9 to <2 x float>*
  %agg.tmp7.sroa.0.0.copyload = load <2 x float>, <2 x float>* %agg.tmp7.sroa.0.0..sroa_cast, align 4
  %arrayidx14 = getelementptr inbounds %struct.range, %struct.range* %B, i64 2
  %agg.tmp10.sroa.0.0..sroa_cast = bitcast %struct.range* %arrayidx14 to <2 x float>*
  %agg.tmp10.sroa.0.0.copyload = load <2 x float>, <2 x float>* %agg.tmp10.sroa.0.0..sroa_cast, align 4
  %17 = getelementptr inbounds %struct.__cilkrts_stack_frame, %struct.__cilkrts_stack_frame* %__cilkrts_sf, i64 0, i32 6
  %18 = getelementptr inbounds %struct.__cilkrts_stack_frame, %struct.__cilkrts_stack_frame* %__cilkrts_sf, i64 0, i32 7
  call void asm sideeffect "stmxcsr $0\0A\09fnstcw $1", "*m,*m,~{dirflag},~{fpsr},~{flags}"(i32* nonnull %17, i16* nonnull %18) #2
  %19 = getelementptr inbounds %struct.__cilkrts_stack_frame, %struct.__cilkrts_stack_frame* %__cilkrts_sf, i64 0, i32 5
  %20 = call i8* @llvm.frameaddress(i32 0)
  %21 = getelementptr inbounds [5 x i8*], [5 x i8*]* %19, i64 0, i64 0
  store volatile i8* %20, i8** %21, align 8
  %22 = call i8* @llvm.stacksave()
  %23 = getelementptr inbounds %struct.__cilkrts_stack_frame, %struct.__cilkrts_stack_frame* %__cilkrts_sf, i64 0, i32 5, i64 2
  store volatile i8* %22, i8** %23, align 8
  %24 = bitcast [5 x i8*]* %19 to i8*
  %25 = call i32 @llvm.eh.sjlj.setjmp(i8* nonnull %24) #21
  %26 = icmp eq i32 %25, 0
  br i1 %26, label %if.end.split478, label %for.inc

if.end.split478:                                  ; preds = %if.end
  invoke fastcc void @_Z12generateNodePP5rangePP5eventS0_ii_det.achd.cilk(%struct.event* %16, <2 x float> %agg.tmp.sroa.0.0.copyload, <2 x float> %agg.tmp7.sroa.0.0.copyload, <2 x float> %agg.tmp10.sroa.0.0.copyload, i32 %n, [3 x %struct.cutInfo]* nonnull %cuts)
          to label %for.inc unwind label %lpad20.loopexit

for.inc:                                          ; preds = %if.end, %if.end.split478
  %arrayidx4.1 = getelementptr inbounds %struct.event*, %struct.event** %events, i64 1
  %27 = load %struct.event*, %struct.event** %arrayidx4.1, align 8, !tbaa !17
  %agg.tmp.sroa.0.0.copyload.1 = load <2 x float>, <2 x float>* %agg.tmp7.sroa.0.0..sroa_cast, align 4
  %agg.tmp7.sroa.0.0.copyload.1 = load <2 x float>, <2 x float>* %agg.tmp10.sroa.0.0..sroa_cast, align 4
  %agg.tmp10.sroa.0.0.copyload.1 = load <2 x float>, <2 x float>* %agg.tmp.sroa.0.0..sroa_cast, align 4
  call void asm sideeffect "stmxcsr $0\0A\09fnstcw $1", "*m,*m,~{dirflag},~{fpsr},~{flags}"(i32* nonnull %17, i16* nonnull %18) #2
  store volatile i8* %20, i8** %21, align 8
  %28 = call i8* @llvm.stacksave()
  store volatile i8* %28, i8** %23, align 8
  %29 = call i32 @llvm.eh.sjlj.setjmp(i8* nonnull %24) #21
  %30 = icmp eq i32 %29, 0
  br i1 %30, label %for.inc.split477, label %for.inc.1

for.inc.split477:                                 ; preds = %for.inc
  %arrayidx.1 = getelementptr inbounds [3 x %struct.cutInfo], [3 x %struct.cutInfo]* %cuts, i64 0, i64 1
  invoke fastcc void @_Z12generateNodePP5rangePP5eventS0_ii_det.achd.1.cilk(%struct.event* %27, <2 x float> %agg.tmp.sroa.0.0.copyload.1, <2 x float> %agg.tmp7.sroa.0.0.copyload.1, <2 x float> %agg.tmp10.sroa.0.0.copyload.1, i32 %n, %struct.cutInfo* nonnull %arrayidx.1, [3 x %struct.cutInfo]* nonnull %cuts)
          to label %for.inc.1 unwind label %lpad20.loopexit

lpad20.loopexit:                                  ; preds = %if.end.split478, %for.inc.split477, %for.inc.1.split476
  %lpad.loopexit380 = landingpad { i8*, i32 }
          cleanup
  %31 = extractvalue { i8*, i32 } %lpad.loopexit380, 0
  %32 = extractvalue { i8*, i32 } %lpad.loopexit380, 1
  %33 = getelementptr inbounds %struct.__cilkrts_stack_frame, %struct.__cilkrts_stack_frame* %__cilkrts_sf, i64 0, i32 0
  %34 = load atomic i32, i32* %33 acquire, align 8
  %35 = and i32 %34, 2
  %36 = icmp eq i32 %35, 0
  br i1 %36, label %__cilk_sync.exit, label %cilk.sync.savestate.i

cilk.sync.savestate.i:                            ; preds = %lpad20.loopexit
  %37 = load atomic %struct.__cilkrts_worker*, %struct.__cilkrts_worker** %8 acquire, align 8
  call void asm sideeffect "stmxcsr $0\0A\09fnstcw $1", "*m,*m,~{dirflag},~{fpsr},~{flags}"(i32* nonnull %17, i16* nonnull %18) #2
  store volatile i8* %20, i8** %21, align 8
  %38 = call i8* @llvm.stacksave()
  store volatile i8* %38, i8** %23, align 8
  %39 = call i32 @llvm.eh.sjlj.setjmp(i8* nonnull %24) #21
  %40 = icmp eq i32 %39, 0
  br i1 %40, label %cilk.sync.runtimecall.i, label %cilk.sync.excepting.i

cilk.sync.runtimecall.i:                          ; preds = %cilk.sync.savestate.i
  call void @__cilkrts_sync(%struct.__cilkrts_stack_frame* nonnull %__cilkrts_sf)
  br label %__cilk_sync.exit

cilk.sync.excepting.i:                            ; preds = %cilk.sync.savestate.i
  %41 = load atomic i32, i32* %33 acquire, align 8
  %42 = and i32 %41, 16
  %43 = icmp eq i32 %42, 0
  br i1 %43, label %__cilk_sync.exit, label %cilk.sync.rethrow.i

cilk.sync.rethrow.i:                              ; preds = %cilk.sync.excepting.i
  call void @__cilkrts_rethrow(%struct.__cilkrts_stack_frame* nonnull %__cilkrts_sf) #22
  unreachable

__cilk_sync.exit:                                 ; preds = %lpad20.loopexit, %cilk.sync.runtimecall.i, %cilk.sync.excepting.i
  %44 = load atomic %struct.__cilkrts_worker*, %struct.__cilkrts_worker** %8 acquire, align 8
  %45 = getelementptr inbounds %struct.__cilkrts_worker, %struct.__cilkrts_worker* %44, i64 0, i32 12, i32 0
  %46 = load i64, i64* %45, align 8
  %47 = add i64 %46, 1
  store i64 %47, i64* %45, align 8
  br label %ehcleanup253

lor.lhs.false51:                                  ; preds = %__cilk_sync.exit505
  %numLeft = getelementptr inbounds [3 x %struct.cutInfo], [3 x %struct.cutInfo]* %cuts, i64 0, i64 %201, i32 2
  %48 = load i32, i32* %numLeft, align 8, !tbaa !19
  %numRight = getelementptr inbounds [3 x %struct.cutInfo], [3 x %struct.cutInfo]* %cuts, i64 0, i64 %201, i32 3
  %49 = load i32, i32* %numRight, align 4, !tbaa !21
  %add56 = add nsw i32 %49, %48
  %conv57 = sitofp i32 %add56 to float
  %50 = load float, float* @maxExpand, align 4, !tbaa !13
  %conv58 = sitofp i32 %n to float
  %mul59 = fmul float %50, %conv58
  %div60 = fmul float %mul59, 5.000000e-01
  %cmp61 = fcmp olt float %div60, %conv57
  br i1 %cmp61, label %if.then62, label %if.end66

if.then62:                                        ; preds = %__cilk_sync.exit505, %lor.lhs.false51
  %call63 = tail call i8* @_Znwm(i64 64) #19
  %51 = bitcast i8* %call63 to %struct.treeNode*
  invoke void @_ZN8treeNodeC2EPP5eventiP5range(%struct.treeNode* nonnull %51, %struct.event** nonnull %events, i32 %n, %struct.range* nonnull %B)
          to label %cleanup unwind label %lpad64

lpad64:                                           ; preds = %if.then62
  %52 = landingpad { i8*, i32 }
          cleanup
  %53 = extractvalue { i8*, i32 } %52, 0
  %54 = extractvalue { i8*, i32 } %52, 1
  tail call void @_ZdlPv(i8* nonnull %call63) #20
  br label %ehcleanup253

if.end66:                                         ; preds = %lor.lhs.false51
  call void @llvm.lifetime.start.p0i8(i64 24, i8* nonnull %9) #2
  %array.begin67 = getelementptr inbounds [3 x %struct.range], [3 x %struct.range]* %BBL, i64 0, i64 0
  call void @llvm.memcpy.p0i8.p0i8.i64(i8* nonnull %9, i8* nonnull %B395, i64 24, i32 4, i1 false)
  %.sroa_idx376 = getelementptr inbounds [3 x %struct.range], [3 x %struct.range]* %BBL, i64 0, i64 %201, i32 1
  store float %203, float* %.sroa_idx376, align 4
  %55 = bitcast [3 x %struct.event*]* %leftEvents to i8*
  call void @llvm.lifetime.start.p0i8(i64 24, i8* nonnull %55) #2
  call void @llvm.lifetime.start.p0i8(i64 24, i8* nonnull %10) #2
  %array.begin89 = getelementptr inbounds [3 x %struct.range], [3 x %struct.range]* %BBR, i64 0, i64 0
  call void @llvm.memcpy.p0i8.p0i8.i64(i8* nonnull %10, i8* nonnull %B395, i64 24, i32 4, i1 false)
  %56 = getelementptr inbounds [3 x %struct.range], [3 x %struct.range]* %BBR, i64 0, i64 %201, i32 0
  store float %203, float* %56, align 8
  %57 = bitcast [3 x %struct.event*]* %rightEvents to i8*
  call void @llvm.lifetime.start.p0i8(i64 24, i8* nonnull %57) #2
  %X.sroa.0.0..sroa_cast468 = bitcast i64* %X.sroa.0 to i8*
  call void @llvm.lifetime.start.p0i8(i64 8, i8* nonnull %X.sroa.0.0..sroa_cast468)
  %X.sroa.6.0..sroa_cast465 = bitcast i64* %X.sroa.6 to i8*
  call void @llvm.lifetime.start.p0i8(i64 8, i8* nonnull %X.sroa.6.0..sroa_cast465)
  %X.sroa.7.0..sroa_cast462 = bitcast i64* %X.sroa.7 to i8*
  call void @llvm.lifetime.start.p0i8(i64 8, i8* nonnull %X.sroa.7.0..sroa_cast462)
  %X.sroa.9.0..sroa_cast459 = bitcast i64* %X.sroa.9 to i8*
  call void @llvm.lifetime.start.p0i8(i64 8, i8* nonnull %X.sroa.9.0..sroa_cast459)
  %X.sroa.10.0..sroa_cast456 = bitcast i64* %X.sroa.10 to i8*
  call void @llvm.lifetime.start.p0i8(i64 8, i8* nonnull %X.sroa.10.0..sroa_cast456)
  %X.sroa.12.0..sroa_cast453 = bitcast i64* %X.sroa.12 to i8*
  call void @llvm.lifetime.start.p0i8(i64 8, i8* nonnull %X.sroa.12.0..sroa_cast453)
  %X.sroa.13.0..sroa_cast450 = bitcast i64* %X.sroa.13 to i8*
  call void @llvm.lifetime.start.p0i8(i64 8, i8* nonnull %X.sroa.13.0..sroa_cast450)
  %X.sroa.15.0..sroa_cast447 = bitcast i64* %X.sroa.15 to i8*
  call void @llvm.lifetime.start.p0i8(i64 8, i8* nonnull %X.sroa.15.0..sroa_cast447)
  %X.sroa.16.0..sroa_cast444 = bitcast i64* %X.sroa.16 to i8*
  call void @llvm.lifetime.start.p0i8(i64 8, i8* nonnull %X.sroa.16.0..sroa_cast444)
  %X.sroa.18.0..sroa_cast441 = bitcast i64* %X.sroa.18 to i8*
  call void @llvm.lifetime.start.p0i8(i64 8, i8* nonnull %X.sroa.18.0..sroa_cast441)
  %X.sroa.19.0..sroa_cast438 = bitcast i64* %X.sroa.19 to i8*
  call void @llvm.lifetime.start.p0i8(i64 8, i8* nonnull %X.sroa.19.0..sroa_cast438)
  %X.sroa.21.0..sroa_cast434 = bitcast i64* %X.sroa.21 to i8*
  call void @llvm.lifetime.start.p0i8(i64 8, i8* nonnull %X.sroa.21.0..sroa_cast434)
  store i64 0, i64* %X.sroa.0, align 16
  store i64 0, i64* %X.sroa.6, align 8
  store i64 0, i64* %X.sroa.7, align 16
  store i64 0, i64* %X.sroa.9, align 8
  store i64 0, i64* %X.sroa.10, align 16
  store i64 0, i64* %X.sroa.12, align 8
  store i64 0, i64* %X.sroa.13, align 16
  store i64 0, i64* %X.sroa.15, align 8
  store i64 0, i64* %X.sroa.16, align 16
  store i64 0, i64* %X.sroa.18, align 8
  store i64 0, i64* %X.sroa.19, align 16
  store i64 0, i64* %X.sroa.21, align 8
  %58 = load %struct.event*, %struct.event** %events, align 8, !tbaa !17
  call void asm sideeffect "stmxcsr $0\0A\09fnstcw $1", "*m,*m,~{dirflag},~{fpsr},~{flags}"(i32* nonnull %17, i16* nonnull %18) #2
  store volatile i8* %20, i8** %21, align 8
  %59 = call i8* @llvm.stacksave()
  store volatile i8* %59, i8** %23, align 8
  %60 = call i32 @llvm.eh.sjlj.setjmp(i8* nonnull %24) #21
  %61 = icmp eq i32 %60, 0
  br i1 %61, label %if.end66.split475, label %for.inc145

if.end66.split475:                                ; preds = %if.end66
  invoke fastcc void @_Z12generateNodePP5rangePP5eventS0_ii_det.achd130.1.cilk(%struct.range* align 1 %202, %struct.event* align 1 %58, float %203, i32 %n, i64* nonnull align 16 %X.sroa.0, i64* nonnull align 8 %X.sroa.6, i64* nonnull align 16 %X.sroa.7, i64* nonnull align 8 %X.sroa.9)
          to label %for.inc145 unwind label %lpad137.loopexit

for.inc145:                                       ; preds = %if.end66, %if.end66.split475
  %62 = load %struct.event*, %struct.event** %arrayidx4.1, align 8, !tbaa !17
  call void asm sideeffect "stmxcsr $0\0A\09fnstcw $1", "*m,*m,~{dirflag},~{fpsr},~{flags}"(i32* nonnull %17, i16* nonnull %18) #2
  store volatile i8* %20, i8** %21, align 8
  %63 = call i8* @llvm.stacksave()
  store volatile i8* %63, i8** %23, align 8
  %64 = call i32 @llvm.eh.sjlj.setjmp(i8* nonnull %24) #21
  %65 = icmp eq i32 %64, 0
  br i1 %65, label %for.inc145.split474, label %for.inc145.1

for.inc145.split474:                              ; preds = %for.inc145
  invoke fastcc void @_Z12generateNodePP5rangePP5eventS0_ii_det.achd130.1.cilk(%struct.range* %202, %struct.event* %62, float %203, i32 %n, i64* nonnull %X.sroa.10, i64* nonnull %X.sroa.12, i64* nonnull %X.sroa.13, i64* nonnull %X.sroa.15)
          to label %for.inc145.1 unwind label %lpad137.loopexit

lpad137.loopexit:                                 ; preds = %if.end66.split475, %for.inc145.split474, %for.inc145.1.split473
  %lpad.loopexit = landingpad { i8*, i32 }
          cleanup
  %66 = extractvalue { i8*, i32 } %lpad.loopexit, 0
  %67 = extractvalue { i8*, i32 } %lpad.loopexit, 1
  %68 = load atomic i32, i32* %182 acquire, align 8
  %69 = and i32 %68, 2
  %70 = icmp eq i32 %69, 0
  br i1 %70, label %__cilk_sync.exit483, label %cilk.sync.savestate.i479

cilk.sync.savestate.i479:                         ; preds = %lpad137.loopexit
  %71 = load atomic %struct.__cilkrts_worker*, %struct.__cilkrts_worker** %8 acquire, align 8
  call void asm sideeffect "stmxcsr $0\0A\09fnstcw $1", "*m,*m,~{dirflag},~{fpsr},~{flags}"(i32* nonnull %17, i16* nonnull %18) #2
  store volatile i8* %20, i8** %21, align 8
  %72 = call i8* @llvm.stacksave()
  store volatile i8* %72, i8** %23, align 8
  %73 = call i32 @llvm.eh.sjlj.setjmp(i8* nonnull %24) #21
  %74 = icmp eq i32 %73, 0
  br i1 %74, label %cilk.sync.runtimecall.i480, label %cilk.sync.excepting.i481

cilk.sync.runtimecall.i480:                       ; preds = %cilk.sync.savestate.i479
  call void @__cilkrts_sync(%struct.__cilkrts_stack_frame* nonnull %__cilkrts_sf)
  br label %__cilk_sync.exit483

cilk.sync.excepting.i481:                         ; preds = %cilk.sync.savestate.i479
  %75 = load atomic i32, i32* %182 acquire, align 8
  %76 = and i32 %75, 16
  %77 = icmp eq i32 %76, 0
  br i1 %77, label %__cilk_sync.exit483, label %cilk.sync.rethrow.i482

cilk.sync.rethrow.i482:                           ; preds = %cilk.sync.excepting.i481
  call void @__cilkrts_rethrow(%struct.__cilkrts_stack_frame* nonnull %__cilkrts_sf) #22
  unreachable

__cilk_sync.exit483:                              ; preds = %lpad137.loopexit, %cilk.sync.runtimecall.i480, %cilk.sync.excepting.i481
  %78 = load atomic %struct.__cilkrts_worker*, %struct.__cilkrts_worker** %8 acquire, align 8
  %79 = getelementptr inbounds %struct.__cilkrts_worker, %struct.__cilkrts_worker* %78, i64 0, i32 12, i32 0
  %80 = load i64, i64* %79, align 8
  %81 = add i64 %80, 1
  store i64 %81, i64* %79, align 8
  br label %ehcleanup234

if.then188:                                       ; preds = %if.else.2, %lor.lhs.false181.1, %__cilk_sync.exit500
  %call189 = tail call dereferenceable(272) %"class.std::basic_ostream"* @_ZStlsISt11char_traitsIcEERSt13basic_ostreamIcT_ES5_PKc(%"class.std::basic_ostream"* nonnull dereferenceable(272) @_ZSt4cout, i8* getelementptr inbounds ([44 x i8], [44 x i8]* @.str, i64 0, i64 0))
  %call.i = tail call dereferenceable(272) %"class.std::basic_ostream"* @_ZSt4endlIcSt11char_traitsIcEERSt13basic_ostreamIT_T0_ES6_(%"class.std::basic_ostream"* nonnull dereferenceable(272) %call189)
  tail call void @abort() #23
  unreachable

invoke.cont224:                                   ; preds = %for.inc193.2.split.split
  %82 = load atomic i32, i32* %182 acquire, align 8
  %83 = and i32 %82, 2
  %84 = icmp eq i32 %83, 0
  br i1 %84, label %__cilk_sync.exit488, label %cilk.sync.savestate.i484

cilk.sync.savestate.i484:                         ; preds = %invoke.cont224
  %85 = load atomic %struct.__cilkrts_worker*, %struct.__cilkrts_worker** %8 acquire, align 8
  call void asm sideeffect "stmxcsr $0\0A\09fnstcw $1", "*m,*m,~{dirflag},~{fpsr},~{flags}"(i32* nonnull %17, i16* nonnull %18) #2
  store volatile i8* %20, i8** %21, align 8
  %86 = call i8* @llvm.stacksave()
  store volatile i8* %86, i8** %23, align 8
  %87 = call i32 @llvm.eh.sjlj.setjmp(i8* nonnull %24) #21
  %88 = icmp eq i32 %87, 0
  br i1 %88, label %cilk.sync.runtimecall.i485, label %cilk.sync.excepting.i486

cilk.sync.runtimecall.i485:                       ; preds = %cilk.sync.savestate.i484
  call void @__cilkrts_sync(%struct.__cilkrts_stack_frame* nonnull %__cilkrts_sf)
  br label %__cilk_sync.exit488

cilk.sync.excepting.i486:                         ; preds = %cilk.sync.savestate.i484
  %89 = load atomic i32, i32* %182 acquire, align 8
  %90 = and i32 %89, 16
  %91 = icmp eq i32 %90, 0
  br i1 %91, label %__cilk_sync.exit488, label %cilk.sync.rethrow.i487

cilk.sync.rethrow.i487:                           ; preds = %cilk.sync.excepting.i486
  call void @__cilkrts_rethrow(%struct.__cilkrts_stack_frame* nonnull %__cilkrts_sf) #22
  unreachable

__cilk_sync.exit488:                              ; preds = %invoke.cont224, %cilk.sync.runtimecall.i485, %cilk.sync.excepting.i486
  %92 = load atomic %struct.__cilkrts_worker*, %struct.__cilkrts_worker** %8 acquire, align 8
  %93 = getelementptr inbounds %struct.__cilkrts_worker, %struct.__cilkrts_worker* %92, i64 0, i32 12, i32 0
  %94 = load i64, i64* %93, align 8
  %95 = add i64 %94, 1
  store i64 %95, i64* %93, align 8
  %call228 = invoke i8* @_Znwm(i64 64) #19
          to label %invoke.cont230 unwind label %ehcleanup

invoke.cont230:                                   ; preds = %__cilk_sync.exit488
  %96 = bitcast i8* %call228 to %struct.treeNode*
  %L.0.L.0.L.0. = load %struct.treeNode*, %struct.treeNode** %L, align 8
  %left.i = bitcast i8* %call228 to %struct.treeNode**
  store %struct.treeNode* %L.0.L.0.L.0., %struct.treeNode** %left.i, align 8, !tbaa !22
  %right.i = getelementptr inbounds i8, i8* %call228, i64 8
  %97 = bitcast i8* %right.i to %struct.treeNode**
  store %struct.treeNode* %call225, %struct.treeNode** %97, align 8, !tbaa !24
  %array.begin.i = getelementptr inbounds i8, i8* %call228, i64 16
  %cutDim.i = getelementptr inbounds i8, i8* %call228, i64 40
  %98 = bitcast i8* %cutDim.i to i32*
  store i32 %cutDim.1.1, i32* %98, align 8, !tbaa !25
  %cutOff.i = getelementptr inbounds i8, i8* %call228, i64 44
  %99 = bitcast i8* %cutOff.i to float*
  store float %203, float* %99, align 4, !tbaa !26
  %triangleIndices.i = getelementptr inbounds i8, i8* %call228, i64 48
  %100 = bitcast i8* %triangleIndices.i to i32**
  store i32* null, i32** %100, align 8, !tbaa !27
  %101 = bitcast %struct.range* %B to <2 x i64>*
  %102 = load <2 x i64>, <2 x i64>* %101, align 4
  %103 = bitcast i8* %array.begin.i to <2 x i64>*
  store <2 x i64> %102, <2 x i64>* %103, align 4
  %arrayidx4.2.i = getelementptr inbounds i8, i8* %call228, i64 32
  %104 = bitcast %struct.range* %arrayidx14 to i64*
  %105 = bitcast i8* %arrayidx4.2.i to i64*
  %106 = load i64, i64* %104, align 4
  store i64 %106, i64* %105, align 4
  %n.i = getelementptr inbounds %struct.treeNode, %struct.treeNode* %L.0.L.0.L.0., i64 0, i32 6
  %107 = load i32, i32* %n.i, align 8, !tbaa !28
  %n5.i = getelementptr inbounds %struct.treeNode, %struct.treeNode* %call225, i64 0, i32 6
  %108 = load i32, i32* %n5.i, align 8, !tbaa !28
  %add.i363 = add nsw i32 %108, %107
  %n6.i = getelementptr inbounds i8, i8* %call228, i64 56
  %109 = bitcast i8* %n6.i to i32*
  store i32 %add.i363, i32* %109, align 8, !tbaa !28
  %leaves.i = getelementptr inbounds %struct.treeNode, %struct.treeNode* %L.0.L.0.L.0., i64 0, i32 7
  %110 = load i32, i32* %leaves.i, align 4, !tbaa !29
  %leaves7.i = getelementptr inbounds %struct.treeNode, %struct.treeNode* %call225, i64 0, i32 7
  %111 = load i32, i32* %leaves7.i, align 4, !tbaa !29
  %add8.i = add nsw i32 %111, %110
  %leaves9.i = getelementptr inbounds i8, i8* %call228, i64 60
  %112 = bitcast i8* %leaves9.i to i32*
  store i32 %add8.i, i32* %112, align 4, !tbaa !29
  call void @llvm.lifetime.end.p0i8(i64 8, i8* nonnull %L.0.L.0.L.0..sroa_cast)
  call void @llvm.lifetime.end.p0i8(i64 8, i8* nonnull %X.sroa.0.0..sroa_cast468)
  call void @llvm.lifetime.end.p0i8(i64 8, i8* nonnull %X.sroa.6.0..sroa_cast465)
  call void @llvm.lifetime.end.p0i8(i64 8, i8* nonnull %X.sroa.7.0..sroa_cast462)
  call void @llvm.lifetime.end.p0i8(i64 8, i8* nonnull %X.sroa.9.0..sroa_cast459)
  call void @llvm.lifetime.end.p0i8(i64 8, i8* nonnull %X.sroa.10.0..sroa_cast456)
  call void @llvm.lifetime.end.p0i8(i64 8, i8* nonnull %X.sroa.12.0..sroa_cast453)
  call void @llvm.lifetime.end.p0i8(i64 8, i8* nonnull %X.sroa.13.0..sroa_cast450)
  call void @llvm.lifetime.end.p0i8(i64 8, i8* nonnull %X.sroa.15.0..sroa_cast447)
  call void @llvm.lifetime.end.p0i8(i64 8, i8* nonnull %X.sroa.16.0..sroa_cast444)
  call void @llvm.lifetime.end.p0i8(i64 8, i8* nonnull %X.sroa.18.0..sroa_cast441)
  call void @llvm.lifetime.end.p0i8(i64 8, i8* nonnull %X.sroa.19.0..sroa_cast438)
  call void @llvm.lifetime.end.p0i8(i64 8, i8* nonnull %X.sroa.21.0..sroa_cast434)
  call void @llvm.lifetime.end.p0i8(i64 24, i8* nonnull %57) #2
  call void @llvm.lifetime.end.p0i8(i64 24, i8* nonnull %10) #2
  call void @llvm.lifetime.end.p0i8(i64 24, i8* nonnull %55) #2
  call void @llvm.lifetime.end.p0i8(i64 24, i8* nonnull %9) #2
  br label %cleanup

ehcleanup:                                        ; preds = %for.inc193.2.split472, %for.inc193.2.split.split, %__cilk_sync.exit488
  %113 = landingpad { i8*, i32 }
          cleanup
  %114 = extractvalue { i8*, i32 } %113, 0
  %115 = extractvalue { i8*, i32 } %113, 1
  %116 = load atomic i32, i32* %182 acquire, align 8
  %117 = and i32 %116, 2
  %118 = icmp eq i32 %117, 0
  br i1 %118, label %__cilk_sync.exit493, label %cilk.sync.savestate.i489

cilk.sync.savestate.i489:                         ; preds = %ehcleanup
  %119 = load atomic %struct.__cilkrts_worker*, %struct.__cilkrts_worker** %8 acquire, align 8
  call void asm sideeffect "stmxcsr $0\0A\09fnstcw $1", "*m,*m,~{dirflag},~{fpsr},~{flags}"(i32* nonnull %17, i16* nonnull %18) #2
  store volatile i8* %20, i8** %21, align 8
  %120 = call i8* @llvm.stacksave()
  store volatile i8* %120, i8** %23, align 8
  %121 = call i32 @llvm.eh.sjlj.setjmp(i8* nonnull %24) #21
  %122 = icmp eq i32 %121, 0
  br i1 %122, label %cilk.sync.runtimecall.i490, label %cilk.sync.excepting.i491

cilk.sync.runtimecall.i490:                       ; preds = %cilk.sync.savestate.i489
  call void @__cilkrts_sync(%struct.__cilkrts_stack_frame* nonnull %__cilkrts_sf)
  br label %__cilk_sync.exit493

cilk.sync.excepting.i491:                         ; preds = %cilk.sync.savestate.i489
  %123 = load atomic i32, i32* %182 acquire, align 8
  %124 = and i32 %123, 16
  %125 = icmp eq i32 %124, 0
  br i1 %125, label %__cilk_sync.exit493, label %cilk.sync.rethrow.i492

cilk.sync.rethrow.i492:                           ; preds = %cilk.sync.excepting.i491
  call void @__cilkrts_rethrow(%struct.__cilkrts_stack_frame* nonnull %__cilkrts_sf) #22
  unreachable

__cilk_sync.exit493:                              ; preds = %ehcleanup, %cilk.sync.runtimecall.i490, %cilk.sync.excepting.i491
  %126 = load atomic %struct.__cilkrts_worker*, %struct.__cilkrts_worker** %8 acquire, align 8
  %127 = getelementptr inbounds %struct.__cilkrts_worker, %struct.__cilkrts_worker* %126, i64 0, i32 12, i32 0
  %128 = load i64, i64* %127, align 8
  %129 = add i64 %128, 1
  store i64 %129, i64* %127, align 8
  call void @llvm.lifetime.end.p0i8(i64 8, i8* nonnull %L.0.L.0.L.0..sroa_cast)
  br label %ehcleanup234

ehcleanup234:                                     ; preds = %__cilk_sync.exit483, %__cilk_sync.exit493
  %ehselector.slot.1 = phi i32 [ %115, %__cilk_sync.exit493 ], [ %67, %__cilk_sync.exit483 ]
  %exn.slot.1 = phi i8* [ %114, %__cilk_sync.exit493 ], [ %66, %__cilk_sync.exit483 ]
  call void @llvm.lifetime.end.p0i8(i64 8, i8* nonnull %X.sroa.0.0..sroa_cast468)
  call void @llvm.lifetime.end.p0i8(i64 8, i8* nonnull %X.sroa.6.0..sroa_cast465)
  call void @llvm.lifetime.end.p0i8(i64 8, i8* nonnull %X.sroa.7.0..sroa_cast462)
  call void @llvm.lifetime.end.p0i8(i64 8, i8* nonnull %X.sroa.9.0..sroa_cast459)
  call void @llvm.lifetime.end.p0i8(i64 8, i8* nonnull %X.sroa.10.0..sroa_cast456)
  call void @llvm.lifetime.end.p0i8(i64 8, i8* nonnull %X.sroa.12.0..sroa_cast453)
  call void @llvm.lifetime.end.p0i8(i64 8, i8* nonnull %X.sroa.13.0..sroa_cast450)
  call void @llvm.lifetime.end.p0i8(i64 8, i8* nonnull %X.sroa.15.0..sroa_cast447)
  call void @llvm.lifetime.end.p0i8(i64 8, i8* nonnull %X.sroa.16.0..sroa_cast444)
  call void @llvm.lifetime.end.p0i8(i64 8, i8* nonnull %X.sroa.18.0..sroa_cast441)
  call void @llvm.lifetime.end.p0i8(i64 8, i8* nonnull %X.sroa.19.0..sroa_cast438)
  call void @llvm.lifetime.end.p0i8(i64 8, i8* nonnull %X.sroa.21.0..sroa_cast434)
  call void @llvm.lifetime.end.p0i8(i64 24, i8* nonnull %57) #2
  call void @llvm.lifetime.end.p0i8(i64 24, i8* nonnull %10) #2
  call void @llvm.lifetime.end.p0i8(i64 24, i8* nonnull %55) #2
  call void @llvm.lifetime.end.p0i8(i64 24, i8* nonnull %9) #2
  br label %ehcleanup253

cleanup:                                          ; preds = %if.then62, %invoke.cont230
  %retval.0 = phi %struct.treeNode* [ %96, %invoke.cont230 ], [ %51, %if.then62 ]
  call void @llvm.lifetime.end.p0i8(i64 48, i8* nonnull %15) #2
  br label %cleanup254

ehcleanup253:                                     ; preds = %__cilk_sync.exit, %lpad64, %ehcleanup234
  %ehselector.slot.3 = phi i32 [ %32, %__cilk_sync.exit ], [ %54, %lpad64 ], [ %ehselector.slot.1, %ehcleanup234 ]
  %exn.slot.3 = phi i8* [ %31, %__cilk_sync.exit ], [ %53, %lpad64 ], [ %exn.slot.1, %ehcleanup234 ]
  call void @llvm.lifetime.end.p0i8(i64 48, i8* nonnull %15) #2
  br label %eh.resume

cleanup254:                                       ; preds = %if.then.cleanup254_crit_edge, %cleanup
  %.pre-phi = phi i32* [ %.pre, %if.then.cleanup254_crit_edge ], [ %182, %cleanup ]
  %retval.1 = phi %struct.treeNode* [ %11, %if.then.cleanup254_crit_edge ], [ %retval.0, %cleanup ]
  %130 = load atomic %struct.__cilkrts_worker*, %struct.__cilkrts_worker** %8 acquire, align 8
  %131 = bitcast %struct.__cilkrts_stack_frame** %7 to i64*
  %132 = load i64, i64* %131, align 8
  %133 = getelementptr inbounds %struct.__cilkrts_worker, %struct.__cilkrts_worker* %130, i64 0, i32 9
  %134 = bitcast %struct.__cilkrts_stack_frame** %133 to i64*
  store atomic i64 %132, i64* %134 release, align 8
  store atomic %struct.__cilkrts_stack_frame* null, %struct.__cilkrts_stack_frame** %7 release, align 8
  %135 = load atomic i32, i32* %.pre-phi acquire, align 8
  %136 = icmp eq i32 %135, 16777216
  br i1 %136, label %__cilk_parent_epilogue.exit, label %body.i

body.i:                                           ; preds = %cleanup254
  call void @__cilkrts_leave_frame(%struct.__cilkrts_stack_frame* nonnull %__cilkrts_sf) #2
  br label %__cilk_parent_epilogue.exit

__cilk_parent_epilogue.exit:                      ; preds = %cleanup254, %body.i
  ret %struct.treeNode* %retval.1

eh.resume:                                        ; preds = %ehcleanup253, %lpad
  %ehselector.slot.4 = phi i32 [ %14, %lpad ], [ %ehselector.slot.3, %ehcleanup253 ]
  %exn.slot.4 = phi i8* [ %13, %lpad ], [ %exn.slot.3, %ehcleanup253 ]
  %lpad.val258 = insertvalue { i8*, i32 } undef, i8* %exn.slot.4, 0
  %lpad.val259 = insertvalue { i8*, i32 } %lpad.val258, i32 %ehselector.slot.4, 1
  %137 = load atomic %struct.__cilkrts_worker*, %struct.__cilkrts_worker** %8 acquire, align 8
  %138 = bitcast %struct.__cilkrts_stack_frame** %7 to i64*
  %139 = load i64, i64* %138, align 8
  %140 = getelementptr inbounds %struct.__cilkrts_worker, %struct.__cilkrts_worker* %137, i64 0, i32 9
  %141 = bitcast %struct.__cilkrts_stack_frame** %140 to i64*
  store atomic i64 %139, i64* %141 release, align 8
  store atomic %struct.__cilkrts_stack_frame* null, %struct.__cilkrts_stack_frame** %7 release, align 8
  %142 = getelementptr inbounds %struct.__cilkrts_stack_frame, %struct.__cilkrts_stack_frame* %__cilkrts_sf, i64 0, i32 0
  %143 = load atomic i32, i32* %142 acquire, align 8
  %144 = icmp eq i32 %143, 16777216
  br i1 %144, label %__cilk_parent_epilogue.exit495, label %body.i494

body.i494:                                        ; preds = %eh.resume
  call void @__cilkrts_leave_frame(%struct.__cilkrts_stack_frame* nonnull %__cilkrts_sf) #2
  br label %__cilk_parent_epilogue.exit495

__cilk_parent_epilogue.exit495:                   ; preds = %eh.resume, %body.i494
  resume { i8*, i32 } %lpad.val259

lor.lhs.false181.1:                               ; preds = %__cilk_sync.exit500
  %X.sroa.15.0.load = load i64, i64* %X.sroa.15, align 8
  %sext398 = shl i64 %X.sroa.9.0.load, 32
  %conv186.1 = ashr exact i64 %sext398, 32
  %cmp187.1 = icmp eq i64 %X.sroa.15.0.load, %conv186.1
  br i1 %cmp187.1, label %if.else.2, label %if.then188

if.else.2:                                        ; preds = %lor.lhs.false181.1
  %X.sroa.16.0.load = load i64, i64* %X.sroa.16, align 16
  %arrayidx157.2 = getelementptr inbounds [3 x %struct.event*], [3 x %struct.event*]* %leftEvents, i64 0, i64 2
  %145 = bitcast %struct.event** %arrayidx157.2 to i64*
  store i64 %X.sroa.16.0.load, i64* %145, align 16, !tbaa !17
  %X.sroa.19.0.load = load i64, i64* %X.sroa.19, align 16
  %arrayidx162.2 = getelementptr inbounds [3 x %struct.event*], [3 x %struct.event*]* %rightEvents, i64 0, i64 2
  %146 = bitcast %struct.event** %arrayidx162.2 to i64*
  store i64 %X.sroa.19.0.load, i64* %146, align 16, !tbaa !17
  %X.sroa.18.0.load = load i64, i64* %X.sroa.18, align 8
  %cmp180.2 = icmp eq i64 %X.sroa.18.0.load, %X.sroa.12.0.load
  %X.sroa.21.0.load437 = load i64, i64* %X.sroa.21, align 8
  %cmp187.2 = icmp eq i64 %X.sroa.21.0.load437, %X.sroa.15.0.load
  %or.cond471 = and i1 %cmp180.2, %cmp187.2
  br i1 %or.cond471, label %for.inc193.2, label %if.then188

for.inc193.2:                                     ; preds = %if.else.2
  %147 = bitcast %struct.event** %events to i8**
  %148 = load i8*, i8** %147, align 8, !tbaa !17
  tail call void @free(i8* %148) #2
  %149 = bitcast %struct.event** %arrayidx4.1 to i8**
  %150 = load i8*, i8** %149, align 8, !tbaa !17
  tail call void @free(i8* %150) #2
  %151 = bitcast %struct.event** %arrayidx4.2 to i8**
  %152 = load i8*, i8** %151, align 8, !tbaa !17
  tail call void @free(i8* %152) #2
  %L.0.L.0.L.0..sroa_cast = bitcast %struct.treeNode** %L to i8*
  call void @llvm.lifetime.start.p0i8(i64 8, i8* nonnull %L.0.L.0.L.0..sroa_cast)
  %sub = add nsw i32 %maxDepth, -1
  call void asm sideeffect "stmxcsr $0\0A\09fnstcw $1", "*m,*m,~{dirflag},~{fpsr},~{flags}"(i32* nonnull %17, i16* nonnull %18) #2
  store volatile i8* %20, i8** %21, align 8
  %153 = call i8* @llvm.stacksave()
  store volatile i8* %153, i8** %23, align 8
  %154 = call i32 @llvm.eh.sjlj.setjmp(i8* nonnull %24) #21
  %155 = icmp eq i32 %154, 0
  br i1 %155, label %for.inc193.2.split472, label %for.inc193.2.split.split

for.inc193.2.split472:                            ; preds = %for.inc193.2
  invoke fastcc void @_Z12generateNodePP5rangePP5eventS0_ii_det.achd207.cilk(%struct.range** nonnull %boxes, %struct.event** nonnull %arrayidx157, %struct.range* nonnull %array.begin67, i32 %conv169, i32 %sub, %struct.treeNode** nonnull %L)
          to label %for.inc193.2.split.split unwind label %ehcleanup

for.inc193.2.split.split:                         ; preds = %for.inc193.2.split472, %for.inc193.2
  %call225 = invoke %struct.treeNode* @_Z12generateNodePP5rangePP5eventS0_ii(%struct.range** nonnull %boxes, %struct.event** nonnull %arrayidx162, %struct.range* nonnull %array.begin89, i32 %conv174, i32 %sub)
          to label %invoke.cont224 unwind label %ehcleanup

for.inc145.1:                                     ; preds = %for.inc145, %for.inc145.split474
  %156 = load %struct.event*, %struct.event** %arrayidx4.2, align 8, !tbaa !17
  call void asm sideeffect "stmxcsr $0\0A\09fnstcw $1", "*m,*m,~{dirflag},~{fpsr},~{flags}"(i32* nonnull %17, i16* nonnull %18) #2
  store volatile i8* %20, i8** %21, align 8
  %157 = call i8* @llvm.stacksave()
  store volatile i8* %157, i8** %23, align 8
  %158 = call i32 @llvm.eh.sjlj.setjmp(i8* nonnull %24) #21
  %159 = icmp eq i32 %158, 0
  br i1 %159, label %for.inc145.1.split473, label %for.inc145.2

for.inc145.1.split473:                            ; preds = %for.inc145.1
  invoke fastcc void @_Z12generateNodePP5rangePP5eventS0_ii_det.achd130.1.cilk(%struct.range* align 1 %202, %struct.event* align 1 %156, float %203, i32 %n, i64* nonnull align 16 %X.sroa.16, i64* nonnull align 8 %X.sroa.18, i64* nonnull align 16 %X.sroa.19, i64* nonnull align 8 %X.sroa.21)
          to label %for.inc145.2 unwind label %lpad137.loopexit

for.inc145.2:                                     ; preds = %for.inc145.1, %for.inc145.1.split473
  %160 = load atomic i32, i32* %182 acquire, align 8
  %161 = and i32 %160, 2
  %162 = icmp eq i32 %161, 0
  br i1 %162, label %__cilk_sync.exit500, label %cilk.sync.savestate.i496

cilk.sync.savestate.i496:                         ; preds = %for.inc145.2
  %163 = load atomic %struct.__cilkrts_worker*, %struct.__cilkrts_worker** %8 acquire, align 8
  call void asm sideeffect "stmxcsr $0\0A\09fnstcw $1", "*m,*m,~{dirflag},~{fpsr},~{flags}"(i32* nonnull %17, i16* nonnull %18) #2
  store volatile i8* %20, i8** %21, align 8
  %164 = call i8* @llvm.stacksave()
  store volatile i8* %164, i8** %23, align 8
  %165 = call i32 @llvm.eh.sjlj.setjmp(i8* nonnull %24) #21
  %166 = icmp eq i32 %165, 0
  br i1 %166, label %cilk.sync.runtimecall.i497, label %cilk.sync.excepting.i498

cilk.sync.runtimecall.i497:                       ; preds = %cilk.sync.savestate.i496
  call void @__cilkrts_sync(%struct.__cilkrts_stack_frame* nonnull %__cilkrts_sf)
  br label %__cilk_sync.exit500

cilk.sync.excepting.i498:                         ; preds = %cilk.sync.savestate.i496
  %167 = load atomic i32, i32* %182 acquire, align 8
  %168 = and i32 %167, 16
  %169 = icmp eq i32 %168, 0
  br i1 %169, label %__cilk_sync.exit500, label %cilk.sync.rethrow.i499

cilk.sync.rethrow.i499:                           ; preds = %cilk.sync.excepting.i498
  call void @__cilkrts_rethrow(%struct.__cilkrts_stack_frame* nonnull %__cilkrts_sf) #22
  unreachable

__cilk_sync.exit500:                              ; preds = %for.inc145.2, %cilk.sync.runtimecall.i497, %cilk.sync.excepting.i498
  %170 = load atomic %struct.__cilkrts_worker*, %struct.__cilkrts_worker** %8 acquire, align 8
  %171 = getelementptr inbounds %struct.__cilkrts_worker, %struct.__cilkrts_worker* %170, i64 0, i32 12, i32 0
  %172 = load i64, i64* %171, align 8
  %173 = add i64 %172, 1
  store i64 %173, i64* %171, align 8
  %X.sroa.0.0.load = load i64, i64* %X.sroa.0, align 16
  %arrayidx157 = getelementptr inbounds [3 x %struct.event*], [3 x %struct.event*]* %leftEvents, i64 0, i64 0
  %174 = bitcast [3 x %struct.event*]* %leftEvents to i64*
  store i64 %X.sroa.0.0.load, i64* %174, align 16, !tbaa !17
  %X.sroa.7.0.load = load i64, i64* %X.sroa.7, align 16
  %arrayidx162 = getelementptr inbounds [3 x %struct.event*], [3 x %struct.event*]* %rightEvents, i64 0, i64 0
  %175 = bitcast [3 x %struct.event*]* %rightEvents to i64*
  store i64 %X.sroa.7.0.load, i64* %175, align 16, !tbaa !17
  %X.sroa.6.0.load = load i64, i64* %X.sroa.6, align 8
  %conv169 = trunc i64 %X.sroa.6.0.load to i32
  %X.sroa.9.0.load = load i64, i64* %X.sroa.9, align 8
  %conv174 = trunc i64 %X.sroa.9.0.load to i32
  %X.sroa.10.0.load = load i64, i64* %X.sroa.10, align 16
  %arrayidx157.1 = getelementptr inbounds [3 x %struct.event*], [3 x %struct.event*]* %leftEvents, i64 0, i64 1
  %176 = bitcast %struct.event** %arrayidx157.1 to i64*
  store i64 %X.sroa.10.0.load, i64* %176, align 8, !tbaa !17
  %X.sroa.13.0.load = load i64, i64* %X.sroa.13, align 16
  %arrayidx162.1 = getelementptr inbounds [3 x %struct.event*], [3 x %struct.event*]* %rightEvents, i64 0, i64 1
  %177 = bitcast %struct.event** %arrayidx162.1 to i64*
  store i64 %X.sroa.13.0.load, i64* %177, align 8, !tbaa !17
  %X.sroa.12.0.load = load i64, i64* %X.sroa.12, align 8
  %sext = shl i64 %X.sroa.6.0.load, 32
  %conv179.1 = ashr exact i64 %sext, 32
  %cmp180.1 = icmp eq i64 %X.sroa.12.0.load, %conv179.1
  br i1 %cmp180.1, label %lor.lhs.false181.1, label %if.then188

for.inc.1:                                        ; preds = %for.inc, %for.inc.split477
  %arrayidx4.2 = getelementptr inbounds %struct.event*, %struct.event** %events, i64 2
  %178 = load %struct.event*, %struct.event** %arrayidx4.2, align 8, !tbaa !17
  %agg.tmp.sroa.0.0.copyload.2 = load <2 x float>, <2 x float>* %agg.tmp10.sroa.0.0..sroa_cast, align 4
  %agg.tmp7.sroa.0.0.copyload.2 = load <2 x float>, <2 x float>* %agg.tmp.sroa.0.0..sroa_cast, align 4
  %agg.tmp10.sroa.0.0.copyload.2 = load <2 x float>, <2 x float>* %agg.tmp7.sroa.0.0..sroa_cast, align 4
  call void asm sideeffect "stmxcsr $0\0A\09fnstcw $1", "*m,*m,~{dirflag},~{fpsr},~{flags}"(i32* nonnull %17, i16* nonnull %18) #2
  store volatile i8* %20, i8** %21, align 8
  %179 = call i8* @llvm.stacksave()
  store volatile i8* %179, i8** %23, align 8
  %180 = call i32 @llvm.eh.sjlj.setjmp(i8* nonnull %24) #21
  %181 = icmp eq i32 %180, 0
  br i1 %181, label %for.inc.1.split476, label %for.inc.2

for.inc.1.split476:                               ; preds = %for.inc.1
  %arrayidx.2 = getelementptr inbounds [3 x %struct.cutInfo], [3 x %struct.cutInfo]* %cuts, i64 0, i64 2
  invoke fastcc void @_Z12generateNodePP5rangePP5eventS0_ii_det.achd.2.cilk(%struct.event* %178, <2 x float> %agg.tmp.sroa.0.0.copyload.2, <2 x float> %agg.tmp7.sroa.0.0.copyload.2, <2 x float> %agg.tmp10.sroa.0.0.copyload.2, i32 %n, %struct.cutInfo* nonnull %arrayidx.2, [3 x %struct.cutInfo]* nonnull %cuts)
          to label %for.inc.2 unwind label %lpad20.loopexit

for.inc.2:                                        ; preds = %for.inc.1, %for.inc.1.split476
  %182 = getelementptr inbounds %struct.__cilkrts_stack_frame, %struct.__cilkrts_stack_frame* %__cilkrts_sf, i64 0, i32 0
  %183 = load atomic i32, i32* %182 acquire, align 8
  %184 = and i32 %183, 2
  %185 = icmp eq i32 %184, 0
  br i1 %185, label %__cilk_sync.exit505, label %cilk.sync.savestate.i501

cilk.sync.savestate.i501:                         ; preds = %for.inc.2
  %186 = load atomic %struct.__cilkrts_worker*, %struct.__cilkrts_worker** %8 acquire, align 8
  call void asm sideeffect "stmxcsr $0\0A\09fnstcw $1", "*m,*m,~{dirflag},~{fpsr},~{flags}"(i32* nonnull %17, i16* nonnull %18) #2
  store volatile i8* %20, i8** %21, align 8
  %187 = call i8* @llvm.stacksave()
  store volatile i8* %187, i8** %23, align 8
  %188 = call i32 @llvm.eh.sjlj.setjmp(i8* nonnull %24) #21
  %189 = icmp eq i32 %188, 0
  br i1 %189, label %cilk.sync.runtimecall.i502, label %cilk.sync.excepting.i503

cilk.sync.runtimecall.i502:                       ; preds = %cilk.sync.savestate.i501
  call void @__cilkrts_sync(%struct.__cilkrts_stack_frame* nonnull %__cilkrts_sf)
  br label %__cilk_sync.exit505

cilk.sync.excepting.i503:                         ; preds = %cilk.sync.savestate.i501
  %190 = load atomic i32, i32* %182 acquire, align 8
  %191 = and i32 %190, 16
  %192 = icmp eq i32 %191, 0
  br i1 %192, label %__cilk_sync.exit505, label %cilk.sync.rethrow.i504

cilk.sync.rethrow.i504:                           ; preds = %cilk.sync.excepting.i503
  call void @__cilkrts_rethrow(%struct.__cilkrts_stack_frame* nonnull %__cilkrts_sf) #22
  unreachable

__cilk_sync.exit505:                              ; preds = %for.inc.2, %cilk.sync.runtimecall.i502, %cilk.sync.excepting.i503
  %193 = load atomic %struct.__cilkrts_worker*, %struct.__cilkrts_worker** %8 acquire, align 8
  %194 = getelementptr inbounds %struct.__cilkrts_worker, %struct.__cilkrts_worker* %193, i64 0, i32 12, i32 0
  %195 = load i64, i64* %194, align 8
  %196 = add i64 %195, 1
  store i64 %196, i64* %194, align 8
  %cost = getelementptr inbounds [3 x %struct.cutInfo], [3 x %struct.cutInfo]* %cuts, i64 0, i64 1, i32 0
  %197 = load float, float* %cost, align 16, !tbaa !30
  %cost32 = getelementptr inbounds [3 x %struct.cutInfo], [3 x %struct.cutInfo]* %cuts, i64 0, i64 0, i32 0
  %198 = load float, float* %cost32, align 16, !tbaa !30
  %cmp33 = fcmp olt float %197, %198
  %cutDim.1 = zext i1 %cmp33 to i32
  %cost.1 = getelementptr inbounds [3 x %struct.cutInfo], [3 x %struct.cutInfo]* %cuts, i64 0, i64 2, i32 0
  %199 = load float, float* %cost.1, align 16, !tbaa !30
  %idxprom30.1 = zext i1 %cmp33 to i64
  %cost32.1 = getelementptr inbounds [3 x %struct.cutInfo], [3 x %struct.cutInfo]* %cuts, i64 0, i64 %idxprom30.1, i32 0
  %200 = load float, float* %cost32.1, align 16, !tbaa !30
  %cmp33.1 = fcmp olt float %199, %200
  %cutDim.1.1 = select i1 %cmp33.1, i32 2, i32 %cutDim.1
  %201 = zext i32 %cutDim.1.1 to i64
  %arrayidx40 = getelementptr inbounds %struct.range*, %struct.range** %boxes, i64 %201
  %202 = load %struct.range*, %struct.range** %arrayidx40, align 8, !tbaa !17
  %cutOff43 = getelementptr inbounds [3 x %struct.cutInfo], [3 x %struct.cutInfo]* %cuts, i64 0, i64 %201, i32 1
  %203 = load float, float* %cutOff43, align 4, !tbaa !31
  %max.i = getelementptr inbounds %struct.range, %struct.range* %B, i64 0, i32 1
  %204 = load float, float* %max.i, align 4, !tbaa !2
  %min.i = getelementptr inbounds %struct.range, %struct.range* %B, i64 0, i32 0
  %205 = load float, float* %min.i, align 4, !tbaa !7
  %sub.i = fsub float %204, %205
  %max3.i = getelementptr inbounds %struct.range, %struct.range* %B, i64 1, i32 1
  %206 = load float, float* %max3.i, align 4, !tbaa !2
  %min5.i = getelementptr inbounds %struct.range, %struct.range* %B, i64 1, i32 0
  %207 = load float, float* %min5.i, align 4, !tbaa !7
  %sub6.i = fsub float %206, %207
  %max8.i = getelementptr inbounds %struct.range, %struct.range* %B, i64 2, i32 1
  %208 = load float, float* %max8.i, align 4, !tbaa !2
  %min10.i = getelementptr inbounds %struct.range, %struct.range* %B, i64 2, i32 0
  %209 = load float, float* %min10.i, align 4, !tbaa !7
  %sub11.i = fsub float %208, %209
  %mul.i = fmul float %sub.i, %sub6.i
  %mul12.i = fmul float %sub6.i, %sub11.i
  %add.i = fadd float %mul.i, %mul12.i
  %mul13.i = fmul float %sub.i, %sub11.i
  %add14.i = fadd float %mul13.i, %add.i
  %mul15.i = fmul float %add14.i, 2.000000e+00
  %210 = load float, float* @CT, align 4, !tbaa !13
  %211 = load float, float* @CL, align 4, !tbaa !13
  %cost47 = getelementptr inbounds [3 x %struct.cutInfo], [3 x %struct.cutInfo]* %cuts, i64 0, i64 %201, i32 0
  %212 = load float, float* %cost47, align 16, !tbaa !30
  %mul = fmul float %211, %212
  %div = fdiv float %mul, %mul15.i
  %add48 = fadd float %210, %div
  %div49397 = lshr i32 %n, 1
  %conv = sitofp i32 %div49397 to float
  %cmp50 = fcmp ult float %add48, %conv
  br i1 %cmp50, label %lor.lhs.false51, label %if.then62
}

; Function Attrs: nobuiltin
declare noalias nonnull i8* @_Znwm(i64) local_unnamed_addr #9

; Function Attrs: uwtable
define linkonce_odr void @_ZN8treeNodeC2EPP5eventiP5range(%struct.treeNode* %this, %struct.event** %E, i32 %_n, %struct.range* %B) unnamed_addr #6 comdat align 2 {
entry:
  %array.begin = getelementptr inbounds %struct.treeNode, %struct.treeNode* %this, i64 0, i32 2, i64 0
  %0 = bitcast %struct.treeNode* %this to i8*
  tail call void @llvm.memset.p0i8.i64(i8* %0, i8 0, i64 16, i32 8, i1 false)
  %1 = load %struct.event*, %struct.event** %E, align 8, !tbaa !17
  %div = sdiv i32 %_n, 2
  %conv = sext i32 %div to i64
  %mul = shl nsw i64 %conv, 2
  %call = tail call noalias i8* @malloc(i64 %mul) #2
  %triangleIndices = getelementptr inbounds %struct.treeNode, %struct.treeNode* %this, i64 0, i32 5
  %2 = bitcast i32** %triangleIndices to i8**
  store i8* %call, i8** %2, align 8, !tbaa !27
  %cmp42 = icmp sgt i32 %_n, 0
  %3 = bitcast i8* %call to i32*
  br i1 %cmp42, label %for.body.lr.ph, label %for.cond.cleanup

for.body.lr.ph:                                   ; preds = %entry
  %wide.trip.count = zext i32 %_n to i64
  %4 = add nsw i64 %wide.trip.count, -1
  %xtraiter = and i64 %wide.trip.count, 3
  %5 = icmp ult i64 %4, 3
  br i1 %5, label %for.cond.cleanup.loopexit.unr-lcssa, label %for.body.lr.ph.new

for.body.lr.ph.new:                               ; preds = %for.body.lr.ph
  %unroll_iter = sub nsw i64 %wide.trip.count, %xtraiter
  br label %for.body

for.cond.cleanup.loopexit.unr-lcssa:              ; preds = %for.inc.3, %for.body.lr.ph
  %indvars.iv.unr = phi i64 [ 0, %for.body.lr.ph ], [ %indvars.iv.next.3, %for.inc.3 ]
  %k.043.unr = phi i32 [ 0, %for.body.lr.ph ], [ %k.1.3, %for.inc.3 ]
  %lcmp.mod = icmp eq i64 %xtraiter, 0
  br i1 %lcmp.mod, label %for.cond.cleanup, label %for.body.epil.preheader

for.body.epil.preheader:                          ; preds = %for.cond.cleanup.loopexit.unr-lcssa
  br label %for.body.epil

for.body.epil:                                    ; preds = %for.body.epil.preheader, %for.inc.epil
  %indvars.iv.epil = phi i64 [ %indvars.iv.next.epil, %for.inc.epil ], [ %indvars.iv.unr, %for.body.epil.preheader ]
  %k.043.epil = phi i32 [ %k.1.epil, %for.inc.epil ], [ %k.043.unr, %for.body.epil.preheader ]
  %epil.iter = phi i64 [ %epil.iter.sub, %for.inc.epil ], [ %xtraiter, %for.body.epil.preheader ]
  %p.epil = getelementptr inbounds %struct.event, %struct.event* %1, i64 %indvars.iv.epil, i32 1
  %6 = load i32, i32* %p.epil, align 4, !tbaa !8
  %and.epil = and i32 %6, 1
  %tobool.epil = icmp eq i32 %and.epil, 0
  br i1 %tobool.epil, label %if.then.epil, label %for.inc.epil

if.then.epil:                                     ; preds = %for.body.epil
  %shr.epil = ashr i32 %6, 1
  %inc.epil = add nsw i32 %k.043.epil, 1
  %idxprom7.epil = sext i32 %k.043.epil to i64
  %arrayidx8.epil = getelementptr inbounds i32, i32* %3, i64 %idxprom7.epil
  store i32 %shr.epil, i32* %arrayidx8.epil, align 4, !tbaa !12
  br label %for.inc.epil

for.inc.epil:                                     ; preds = %if.then.epil, %for.body.epil
  %k.1.epil = phi i32 [ %k.043.epil, %for.body.epil ], [ %inc.epil, %if.then.epil ]
  %indvars.iv.next.epil = add nuw nsw i64 %indvars.iv.epil, 1
  %epil.iter.sub = add nsw i64 %epil.iter, -1
  %epil.iter.cmp = icmp eq i64 %epil.iter.sub, 0
  br i1 %epil.iter.cmp, label %for.cond.cleanup, label %for.body.epil, !llvm.loop !32

for.cond.cleanup:                                 ; preds = %for.inc.epil, %for.cond.cleanup.loopexit.unr-lcssa, %entry
  %n = getelementptr inbounds %struct.treeNode, %struct.treeNode* %this, i64 0, i32 6
  store i32 %div, i32* %n, align 8, !tbaa !28
  %leaves = getelementptr inbounds %struct.treeNode, %struct.treeNode* %this, i64 0, i32 7
  store i32 1, i32* %leaves, align 4, !tbaa !29
  %7 = bitcast %struct.range* %B to i64*
  %8 = bitcast %struct.range* %array.begin to i64*
  %9 = load i64, i64* %7, align 4
  store i64 %9, i64* %8, align 4
  %10 = bitcast %struct.event** %E to i8**
  %11 = load i8*, i8** %10, align 8, !tbaa !17
  tail call void @free(i8* %11) #2
  %arrayidx17.1 = getelementptr inbounds %struct.range, %struct.range* %B, i64 1
  %arrayidx20.1 = getelementptr inbounds %struct.treeNode, %struct.treeNode* %this, i64 0, i32 2, i64 1
  %12 = bitcast %struct.range* %arrayidx17.1 to i64*
  %13 = bitcast %struct.range* %arrayidx20.1 to i64*
  %14 = load i64, i64* %12, align 4
  store i64 %14, i64* %13, align 4
  %arrayidx22.1 = getelementptr inbounds %struct.event*, %struct.event** %E, i64 1
  %15 = bitcast %struct.event** %arrayidx22.1 to i8**
  %16 = load i8*, i8** %15, align 8, !tbaa !17
  tail call void @free(i8* %16) #2
  %arrayidx17.2 = getelementptr inbounds %struct.range, %struct.range* %B, i64 2
  %arrayidx20.2 = getelementptr inbounds %struct.treeNode, %struct.treeNode* %this, i64 0, i32 2, i64 2
  %17 = bitcast %struct.range* %arrayidx17.2 to i64*
  %18 = bitcast %struct.range* %arrayidx20.2 to i64*
  %19 = load i64, i64* %17, align 4
  store i64 %19, i64* %18, align 4
  %arrayidx22.2 = getelementptr inbounds %struct.event*, %struct.event** %E, i64 2
  %20 = bitcast %struct.event** %arrayidx22.2 to i8**
  %21 = load i8*, i8** %20, align 8, !tbaa !17
  tail call void @free(i8* %21) #2
  ret void

for.body:                                         ; preds = %for.inc.3, %for.body.lr.ph.new
  %indvars.iv = phi i64 [ 0, %for.body.lr.ph.new ], [ %indvars.iv.next.3, %for.inc.3 ]
  %k.043 = phi i32 [ 0, %for.body.lr.ph.new ], [ %k.1.3, %for.inc.3 ]
  %niter = phi i64 [ %unroll_iter, %for.body.lr.ph.new ], [ %niter.nsub.3, %for.inc.3 ]
  %p = getelementptr inbounds %struct.event, %struct.event* %1, i64 %indvars.iv, i32 1
  %22 = load i32, i32* %p, align 4, !tbaa !8
  %and = and i32 %22, 1
  %tobool = icmp eq i32 %and, 0
  br i1 %tobool, label %if.then, label %for.inc

if.then:                                          ; preds = %for.body
  %shr = ashr i32 %22, 1
  %inc = add nsw i32 %k.043, 1
  %idxprom7 = sext i32 %k.043 to i64
  %arrayidx8 = getelementptr inbounds i32, i32* %3, i64 %idxprom7
  store i32 %shr, i32* %arrayidx8, align 4, !tbaa !12
  br label %for.inc

for.inc:                                          ; preds = %for.body, %if.then
  %k.1 = phi i32 [ %k.043, %for.body ], [ %inc, %if.then ]
  %indvars.iv.next = or i64 %indvars.iv, 1
  %p.1 = getelementptr inbounds %struct.event, %struct.event* %1, i64 %indvars.iv.next, i32 1
  %23 = load i32, i32* %p.1, align 4, !tbaa !8
  %and.1 = and i32 %23, 1
  %tobool.1 = icmp eq i32 %and.1, 0
  br i1 %tobool.1, label %if.then.1, label %for.inc.1

if.then.1:                                        ; preds = %for.inc
  %shr.1 = ashr i32 %23, 1
  %inc.1 = add nsw i32 %k.1, 1
  %idxprom7.1 = sext i32 %k.1 to i64
  %arrayidx8.1 = getelementptr inbounds i32, i32* %3, i64 %idxprom7.1
  store i32 %shr.1, i32* %arrayidx8.1, align 4, !tbaa !12
  br label %for.inc.1

for.inc.1:                                        ; preds = %if.then.1, %for.inc
  %k.1.1 = phi i32 [ %k.1, %for.inc ], [ %inc.1, %if.then.1 ]
  %indvars.iv.next.1 = or i64 %indvars.iv, 2
  %p.2 = getelementptr inbounds %struct.event, %struct.event* %1, i64 %indvars.iv.next.1, i32 1
  %24 = load i32, i32* %p.2, align 4, !tbaa !8
  %and.2 = and i32 %24, 1
  %tobool.2 = icmp eq i32 %and.2, 0
  br i1 %tobool.2, label %if.then.2, label %for.inc.2

if.then.2:                                        ; preds = %for.inc.1
  %shr.2 = ashr i32 %24, 1
  %inc.2 = add nsw i32 %k.1.1, 1
  %idxprom7.2 = sext i32 %k.1.1 to i64
  %arrayidx8.2 = getelementptr inbounds i32, i32* %3, i64 %idxprom7.2
  store i32 %shr.2, i32* %arrayidx8.2, align 4, !tbaa !12
  br label %for.inc.2

for.inc.2:                                        ; preds = %if.then.2, %for.inc.1
  %k.1.2 = phi i32 [ %k.1.1, %for.inc.1 ], [ %inc.2, %if.then.2 ]
  %indvars.iv.next.2 = or i64 %indvars.iv, 3
  %p.3 = getelementptr inbounds %struct.event, %struct.event* %1, i64 %indvars.iv.next.2, i32 1
  %25 = load i32, i32* %p.3, align 4, !tbaa !8
  %and.3 = and i32 %25, 1
  %tobool.3 = icmp eq i32 %and.3, 0
  br i1 %tobool.3, label %if.then.3, label %for.inc.3

if.then.3:                                        ; preds = %for.inc.2
  %shr.3 = ashr i32 %25, 1
  %inc.3 = add nsw i32 %k.1.2, 1
  %idxprom7.3 = sext i32 %k.1.2 to i64
  %arrayidx8.3 = getelementptr inbounds i32, i32* %3, i64 %idxprom7.3
  store i32 %shr.3, i32* %arrayidx8.3, align 4, !tbaa !12
  br label %for.inc.3

for.inc.3:                                        ; preds = %if.then.3, %for.inc.2
  %k.1.3 = phi i32 [ %k.1.2, %for.inc.2 ], [ %inc.3, %if.then.3 ]
  %indvars.iv.next.3 = add nuw nsw i64 %indvars.iv, 4
  %niter.nsub.3 = add i64 %niter, -4
  %niter.ncmp.3 = icmp eq i64 %niter.nsub.3, 0
  br i1 %niter.ncmp.3, label %for.cond.cleanup.loopexit.unr-lcssa, label %for.body
}

declare i32 @__gxx_personality_v0(...)

; Function Attrs: nobuiltin nounwind
declare void @_ZdlPv(i8*) local_unnamed_addr #10

; Function Attrs: inlinehint uwtable
declare dereferenceable(272) %"class.std::basic_ostream"* @_ZStlsISt11char_traitsIcEERSt13basic_ostreamIcT_ES5_PKc(%"class.std::basic_ostream"* dereferenceable(272), i8*) local_unnamed_addr #11

; Function Attrs: inlinehint uwtable
declare dereferenceable(272) %"class.std::basic_ostream"* @_ZSt4endlIcSt11char_traitsIcEERSt13basic_ostreamIT_T0_ES6_(%"class.std::basic_ostream"* dereferenceable(272)) local_unnamed_addr #11

; Function Attrs: noreturn nounwind
declare void @abort() local_unnamed_addr #12

; Function Attrs: norecurse nounwind uwtable
define i32 @_Z7findRay3rayI8_point3dIdEEPii9trianglesIS1_EP5range(%struct.ray* byval nocapture readonly align 8 %r, i32* nocapture readonly %I, i32 %n, %struct.triangles* byval nocapture readonly align 8 %Tri, %struct.range* nocapture readonly %B) local_unnamed_addr #13 {
entry:
  %0 = load i32, i32* @STATS, align 4, !tbaa !12
  %tobool = icmp eq i32 %0, 0
  br i1 %tobool, label %if.end, label %if.then

if.then:                                          ; preds = %entry
  %1 = load i32, i32* @tcount, align 4, !tbaa !12
  %add = add nsw i32 %1, %n
  store i32 %add, i32* @tcount, align 4, !tbaa !12
  %2 = load i32, i32* @ccount, align 4, !tbaa !12
  %add1 = add nsw i32 %2, 1
  store i32 %add1, i32* @ccount, align 4, !tbaa !12
  br label %if.end

if.end:                                           ; preds = %entry, %if.then
  %P2 = getelementptr inbounds %struct.triangles, %struct.triangles* %Tri, i64 0, i32 2
  %3 = load %class._point3d*, %class._point3d** %P2, align 8, !tbaa !34
  %cmp106 = icmp sgt i32 %n, 0
  br i1 %cmp106, label %for.body.lr.ph, label %for.cond.cleanup

for.body.lr.ph:                                   ; preds = %if.end
  %T = getelementptr inbounds %struct.triangles, %struct.triangles* %Tri, i64 0, i32 3
  %4 = load %struct.triangle*, %struct.triangle** %T, align 8, !tbaa !36
  %agg.tmp.sroa.4.0..sroa_idx93 = getelementptr inbounds %struct.ray, %struct.ray* %r, i64 0, i32 1, i32 0
  %agg.tmp.sroa.4.0.copyload = load double, double* %agg.tmp.sroa.4.0..sroa_idx93, align 8
  %agg.tmp.sroa.5.0..sroa_idx94 = getelementptr inbounds %struct.ray, %struct.ray* %r, i64 0, i32 1, i32 1
  %agg.tmp.sroa.5.0.copyload = load double, double* %agg.tmp.sroa.5.0..sroa_idx94, align 8
  %agg.tmp.sroa.6.0..sroa_idx95 = getelementptr inbounds %struct.ray, %struct.ray* %r, i64 0, i32 1, i32 2
  %agg.tmp.sroa.6.0.copyload = load double, double* %agg.tmp.sroa.6.0..sroa_idx95, align 8
  %agg.tmp.sroa.3.0..sroa_idx92 = getelementptr inbounds %struct.ray, %struct.ray* %r, i64 0, i32 0, i32 2
  %agg.tmp.sroa.3.0.copyload = load double, double* %agg.tmp.sroa.3.0..sroa_idx92, align 8
  %5 = bitcast %struct.ray* %r to <2 x double>*
  %6 = load <2 x double>, <2 x double>* %5, align 8
  %min.i = getelementptr inbounds %struct.range, %struct.range* %B, i64 0, i32 0
  %7 = load float, float* @epsilon, align 4
  %max.i = getelementptr inbounds %struct.range, %struct.range* %B, i64 0, i32 1
  %min7.i = getelementptr inbounds %struct.range, %struct.range* %B, i64 1, i32 0
  %max14.i = getelementptr inbounds %struct.range, %struct.range* %B, i64 1, i32 1
  %min20.i = getelementptr inbounds %struct.range, %struct.range* %B, i64 2, i32 0
  %max26.i = getelementptr inbounds %struct.range, %struct.range* %B, i64 2, i32 1
  %wide.trip.count = zext i32 %n to i64
  %8 = insertelement <2 x double> undef, double %agg.tmp.sroa.6.0.copyload, i32 0
  %9 = insertelement <2 x double> %8, double %agg.tmp.sroa.4.0.copyload, i32 1
  %10 = insertelement <2 x double> undef, double %agg.tmp.sroa.4.0.copyload, i32 0
  %11 = insertelement <2 x double> %10, double %agg.tmp.sroa.6.0.copyload, i32 1
  %12 = insertelement <2 x double> undef, double %agg.tmp.sroa.5.0.copyload, i32 0
  %13 = insertelement <2 x double> %12, double %agg.tmp.sroa.4.0.copyload, i32 1
  %14 = extractelement <2 x double> %6, i32 0
  %15 = extractelement <2 x double> %6, i32 1
  br label %for.body

for.cond.cleanup:                                 ; preds = %if.end22, %if.end
  %k.0.lcssa = phi i32 [ -1, %if.end ], [ %k.1, %if.end22 ]
  ret i32 %k.0.lcssa

for.body:                                         ; preds = %if.end22, %for.body.lr.ph
  %indvars.iv = phi i64 [ 0, %for.body.lr.ph ], [ %indvars.iv.next, %if.end22 ]
  %tMin.0109 = phi double [ 0x47EFFFFFE0000000, %for.body.lr.ph ], [ %tMin.1, %if.end22 ]
  %k.0108 = phi i32 [ -1, %for.body.lr.ph ], [ %k.1, %if.end22 ]
  %arrayidx = getelementptr inbounds i32, i32* %I, i64 %indvars.iv
  %16 = load i32, i32* %arrayidx, align 4, !tbaa !12
  %idx.ext = sext i32 %16 to i64
  %arrayidx3 = getelementptr inbounds %struct.triangle, %struct.triangle* %4, i64 %idx.ext, i32 0, i64 0
  %17 = load i32, i32* %arrayidx3, align 4, !tbaa !12
  %idxprom4 = sext i32 %17 to i64
  %m.sroa.0.0..sroa_idx = getelementptr inbounds %class._point3d, %class._point3d* %3, i64 %idxprom4, i32 0
  %m.sroa.0.0.copyload = load double, double* %m.sroa.0.0..sroa_idx, align 8
  %m.sroa.4.0..sroa_idx67 = getelementptr inbounds %class._point3d, %class._point3d* %3, i64 %idxprom4, i32 1
  %m.sroa.4.0.copyload = load double, double* %m.sroa.4.0..sroa_idx67, align 8
  %m.sroa.5.0..sroa_idx69 = getelementptr inbounds %class._point3d, %class._point3d* %3, i64 %idxprom4, i32 2
  %m.sroa.5.0.copyload = load double, double* %m.sroa.5.0..sroa_idx69, align 8
  %arrayidx7 = getelementptr inbounds %struct.triangle, %struct.triangle* %4, i64 %idx.ext, i32 0, i64 1
  %18 = load i32, i32* %arrayidx7, align 4, !tbaa !12
  %idxprom8 = sext i32 %18 to i64
  %m.sroa.6.24..sroa_idx = getelementptr inbounds %class._point3d, %class._point3d* %3, i64 %idxprom8, i32 0
  %m.sroa.6.24.copyload = load double, double* %m.sroa.6.24..sroa_idx, align 8
  %m.sroa.8.24..sroa_idx72 = getelementptr inbounds %class._point3d, %class._point3d* %3, i64 %idxprom8, i32 1
  %19 = bitcast double* %m.sroa.8.24..sroa_idx72 to <2 x double>*
  %20 = load <2 x double>, <2 x double>* %19, align 8
  %arrayidx12 = getelementptr inbounds %struct.triangle, %struct.triangle* %4, i64 %idx.ext, i32 0, i64 2
  %21 = load i32, i32* %arrayidx12, align 4, !tbaa !12
  %idxprom13 = sext i32 %21 to i64
  %m.sroa.10.48..sroa_idx = getelementptr inbounds %class._point3d, %class._point3d* %3, i64 %idxprom13, i32 0
  %m.sroa.10.48.copyload = load double, double* %m.sroa.10.48..sroa_idx, align 8
  %m.sroa.12.48..sroa_idx77 = getelementptr inbounds %class._point3d, %class._point3d* %3, i64 %idxprom13, i32 1
  %m.sroa.12.48.copyload = load double, double* %m.sroa.12.48..sroa_idx77, align 8
  %m.sroa.13.48..sroa_idx79 = getelementptr inbounds %class._point3d, %class._point3d* %3, i64 %idxprom13, i32 2
  %m.sroa.13.48.copyload = load double, double* %m.sroa.13.48..sroa_idx79, align 8
  %sub.i.i = fsub double %m.sroa.6.24.copyload, %m.sroa.0.0.copyload
  %22 = insertelement <2 x double> undef, double %m.sroa.4.0.copyload, i32 0
  %23 = insertelement <2 x double> %22, double %m.sroa.5.0.copyload, i32 1
  %24 = fsub <2 x double> %20, %23
  %sub4.i153.i = fsub double %m.sroa.12.48.copyload, %m.sroa.4.0.copyload
  %25 = insertelement <2 x double> undef, double %m.sroa.13.48.copyload, i32 0
  %26 = insertelement <2 x double> %25, double %m.sroa.10.48.copyload, i32 1
  %27 = insertelement <2 x double> undef, double %m.sroa.5.0.copyload, i32 0
  %28 = insertelement <2 x double> %27, double %m.sroa.0.0.copyload, i32 1
  %29 = fsub <2 x double> %26, %28
  %30 = extractelement <2 x double> %29, i32 0
  %mul.i131.i = fmul double %agg.tmp.sroa.5.0.copyload, %30
  %mul4.i134.i = fmul double %agg.tmp.sroa.6.0.copyload, %sub4.i153.i
  %sub.i135.i = fsub double %mul.i131.i, %mul4.i134.i
  %31 = insertelement <2 x double> undef, double %sub4.i153.i, i32 0
  %32 = shufflevector <2 x double> %31, <2 x double> %29, <2 x i32> <i32 0, i32 3>
  %33 = fmul <2 x double> %11, %32
  %34 = shufflevector <2 x double> %29, <2 x double> undef, <2 x i32> <i32 1, i32 0>
  %35 = fmul <2 x double> %13, %34
  %36 = fsub <2 x double> %33, %35
  %mul.i119.i = fmul double %sub.i.i, %sub.i135.i
  %37 = extractelement <2 x double> %24, i32 1
  %38 = shufflevector <2 x double> %24, <2 x double> undef, <2 x i32> <i32 1, i32 0>
  %39 = fmul <2 x double> %38, %36
  %40 = extractelement <2 x double> %39, i32 1
  %add.i123.i = fadd double %mul.i119.i, %40
  %41 = extractelement <2 x double> %39, i32 0
  %add7.i127.i = fadd double %41, %add.i123.i
  %cmp.i = fcmp ogt double %add7.i127.i, -1.000000e-08
  %cmp9.i = fcmp olt double %add7.i127.i, 1.000000e-08
  %or.cond.i = and i1 %cmp.i, %cmp9.i
  br i1 %or.cond.i, label %if.end22, label %if.end.i

if.end.i:                                         ; preds = %for.body
  %div.i = fdiv double 1.000000e+00, %add7.i127.i
  %42 = insertelement <2 x double> undef, double %m.sroa.0.0.copyload, i32 0
  %43 = insertelement <2 x double> %42, double %m.sroa.4.0.copyload, i32 1
  %44 = fsub <2 x double> %6, %43
  %sub6.i112.i = fsub double %agg.tmp.sroa.3.0.copyload, %m.sroa.5.0.copyload
  %45 = extractelement <2 x double> %44, i32 0
  %mul.i94.i = fmul double %45, %sub.i135.i
  %46 = insertelement <2 x double> undef, double %sub6.i112.i, i32 0
  %47 = shufflevector <2 x double> %46, <2 x double> %44, <2 x i32> <i32 0, i32 3>
  %48 = fmul <2 x double> %47, %36
  %49 = extractelement <2 x double> %48, i32 1
  %add.i98.i = fadd double %mul.i94.i, %49
  %50 = extractelement <2 x double> %48, i32 0
  %add7.i102.i = fadd double %50, %add.i98.i
  %mul.i = fmul double %add7.i102.i, %div.i
  %cmp14.i = fcmp olt double %mul.i, 0.000000e+00
  %cmp15.i = fcmp ogt double %mul.i, 1.000000e+00
  %or.cond41.i = or i1 %cmp14.i, %cmp15.i
  br i1 %or.cond41.i, label %if.end22, label %if.end17.i

if.end17.i:                                       ; preds = %if.end.i
  %51 = extractelement <2 x double> %44, i32 1
  %mul6.i87.i = fmul double %sub6.i112.i, %sub.i.i
  %mul9.i.i = fmul double %45, %37
  %sub10.i.i = fsub double %mul6.i87.i, %mul9.i.i
  %52 = fmul <2 x double> %44, %24
  %53 = insertelement <2 x double> undef, double %sub.i.i, i32 0
  %54 = shufflevector <2 x double> %53, <2 x double> %24, <2 x i32> <i32 0, i32 2>
  %55 = insertelement <2 x double> undef, double %51, i32 0
  %56 = insertelement <2 x double> %55, double %sub6.i112.i, i32 1
  %57 = fmul <2 x double> %56, %54
  %58 = fsub <2 x double> %52, %57
  %mul4.i73.i = fmul double %agg.tmp.sroa.5.0.copyload, %sub10.i.i
  %59 = fmul <2 x double> %9, %58
  %60 = extractelement <2 x double> %59, i32 1
  %add.i74.i = fadd double %mul4.i73.i, %60
  %61 = extractelement <2 x double> %59, i32 0
  %add7.i78.i = fadd double %61, %add.i74.i
  %mul21.i = fmul double %add7.i78.i, %div.i
  %cmp22.i = fcmp olt double %mul21.i, 0.000000e+00
  %add.i = fadd double %mul.i, %mul21.i
  %cmp24.i = fcmp ogt double %add.i, 1.000000e+00
  %or.cond58.i = or i1 %cmp22.i, %cmp24.i
  br i1 %or.cond58.i, label %if.end22, label %_Z20rayTriangleIntersectIdET_3rayI8_point3dIS0_EEPS3_.exit

_Z20rayTriangleIntersectIdET_3rayI8_point3dIS0_EEPS3_.exit: ; preds = %if.end17.i
  %mul4.i.i = fmul double %sub4.i153.i, %sub10.i.i
  %62 = fmul <2 x double> %58, %29
  %63 = extractelement <2 x double> %62, i32 1
  %add.i.i = fadd double %mul4.i.i, %63
  %64 = extractelement <2 x double> %62, i32 0
  %add7.i.i = fadd double %64, %add.i.i
  %mul29.i = fmul double %add7.i.i, %div.i
  %cmp15 = fcmp ogt double %mul29.i, 0.000000e+00
  %cmp16 = fcmp olt double %mul29.i, %tMin.0109
  %or.cond = and i1 %cmp15, %cmp16
  br i1 %or.cond, label %land.rhs, label %if.end22

land.rhs:                                         ; preds = %_Z20rayTriangleIntersectIdET_3rayI8_point3dIS0_EEPS3_.exit
  %mul.i55 = fmul double %agg.tmp.sroa.4.0.copyload, %mul29.i
  %mul2.i = fmul double %agg.tmp.sroa.5.0.copyload, %mul29.i
  %mul3.i = fmul double %agg.tmp.sroa.6.0.copyload, %mul29.i
  %add.i48 = fadd double %14, %mul.i55
  %add4.i = fadd double %15, %mul2.i
  %add6.i = fadd double %agg.tmp.sroa.3.0.copyload, %mul3.i
  %65 = load float, float* %min.i, align 4, !tbaa !7
  %sub.i = fsub float %65, %7
  %conv.i = fpext float %sub.i to double
  %cmp.i44 = fcmp ult double %add.i48, %conv.i
  br i1 %cmp.i44, label %if.end22, label %land.lhs.true.i

land.lhs.true.i:                                  ; preds = %land.rhs
  %66 = load float, float* %max.i, align 4, !tbaa !2
  %add.i45 = fadd float %7, %66
  %conv3.i = fpext float %add.i45 to double
  %cmp4.i = fcmp ugt double %add.i48, %conv3.i
  br i1 %cmp4.i, label %if.end22, label %land.lhs.true5.i

land.lhs.true5.i:                                 ; preds = %land.lhs.true.i
  %67 = load float, float* %min7.i, align 4, !tbaa !7
  %sub8.i = fsub float %67, %7
  %conv9.i = fpext float %sub8.i to double
  %cmp10.i = fcmp ult double %add4.i, %conv9.i
  br i1 %cmp10.i, label %if.end22, label %land.lhs.true11.i

land.lhs.true11.i:                                ; preds = %land.lhs.true5.i
  %68 = load float, float* %max14.i, align 4, !tbaa !2
  %add15.i = fadd float %7, %68
  %conv16.i = fpext float %add15.i to double
  %cmp17.i = fcmp ugt double %add4.i, %conv16.i
  br i1 %cmp17.i, label %if.end22, label %land.lhs.true18.i

land.lhs.true18.i:                                ; preds = %land.lhs.true11.i
  %69 = load float, float* %min20.i, align 4, !tbaa !7
  %sub21.i = fsub float %69, %7
  %conv22.i = fpext float %sub21.i to double
  %cmp23.i = fcmp ult double %add6.i, %conv22.i
  br i1 %cmp23.i, label %if.end22, label %_Z5inBox8_point3dIdEP5range.exit

_Z5inBox8_point3dIdEP5range.exit:                 ; preds = %land.lhs.true18.i
  %70 = load float, float* %max26.i, align 4, !tbaa !2
  %add27.i = fadd float %7, %70
  %conv28.i = fpext float %add27.i to double
  %cmp29.i = fcmp ugt double %add6.i, %conv28.i
  br i1 %cmp29.i, label %if.end22, label %if.then21

if.then21:                                        ; preds = %_Z5inBox8_point3dIdEP5range.exit
  br label %if.end22

if.end22:                                         ; preds = %_Z5inBox8_point3dIdEP5range.exit, %land.rhs, %land.lhs.true.i, %land.lhs.true5.i, %land.lhs.true11.i, %land.lhs.true18.i, %if.end17.i, %if.end.i, %for.body, %_Z20rayTriangleIntersectIdET_3rayI8_point3dIS0_EEPS3_.exit, %if.then21
  %k.1 = phi i32 [ %16, %if.then21 ], [ %k.0108, %_Z5inBox8_point3dIdEP5range.exit ], [ %k.0108, %_Z20rayTriangleIntersectIdET_3rayI8_point3dIS0_EEPS3_.exit ], [ %k.0108, %for.body ], [ %k.0108, %if.end.i ], [ %k.0108, %if.end17.i ], [ %k.0108, %land.lhs.true18.i ], [ %k.0108, %land.lhs.true11.i ], [ %k.0108, %land.lhs.true5.i ], [ %k.0108, %land.lhs.true.i ], [ %k.0108, %land.rhs ]
  %tMin.1 = phi double [ %mul29.i, %if.then21 ], [ %tMin.0109, %_Z5inBox8_point3dIdEP5range.exit ], [ %tMin.0109, %_Z20rayTriangleIntersectIdET_3rayI8_point3dIS0_EEPS3_.exit ], [ %tMin.0109, %for.body ], [ %tMin.0109, %if.end.i ], [ %tMin.0109, %if.end17.i ], [ %tMin.0109, %land.lhs.true18.i ], [ %tMin.0109, %land.lhs.true11.i ], [ %tMin.0109, %land.lhs.true5.i ], [ %tMin.0109, %land.lhs.true.i ], [ %tMin.0109, %land.rhs ]
  %indvars.iv.next = add nuw nsw i64 %indvars.iv, 1
  %exitcond = icmp eq i64 %indvars.iv.next, %wide.trip.count
  br i1 %exitcond, label %for.cond.cleanup, label %for.body
}

; Function Attrs: nounwind uwtable
define i32 @_Z7findRay3rayI8_point3dIdEEP8treeNode9trianglesIS1_E(%struct.ray* byval nocapture readonly align 8 %r, %struct.treeNode* nocapture readonly %TN, %struct.triangles* byval nocapture readonly align 8 %Tri) local_unnamed_addr #7 {
entry:
  %oo = alloca [3 x double], align 16
  %dd = alloca [3 x double], align 16
  %triangleIndices.i = getelementptr inbounds %struct.treeNode, %struct.treeNode* %TN, i64 0, i32 5
  %0 = load i32*, i32** %triangleIndices.i, align 8, !tbaa !27
  %cmp.i = icmp eq i32* %0, null
  br i1 %cmp.i, label %if.end, label %if.then

if.then:                                          ; preds = %entry
  %n = getelementptr inbounds %struct.treeNode, %struct.treeNode* %TN, i64 0, i32 6
  %1 = load i32, i32* %n, align 8, !tbaa !28
  %arraydecay = getelementptr inbounds %struct.treeNode, %struct.treeNode* %TN, i64 0, i32 2, i64 0
  %call2 = call i32 @_Z7findRay3rayI8_point3dIdEEPii9trianglesIS1_EP5range(%struct.ray* byval nonnull align 8 %r, i32* nonnull %0, i32 %1, %struct.triangles* byval nonnull align 8 %Tri, %struct.range* nonnull %arraydecay)
  br label %cleanup137

if.end:                                           ; preds = %entry
  %2 = bitcast %struct.ray* %r to <2 x i64>*
  %3 = load <2 x i64>, <2 x i64>* %2, align 8
  %o.sroa.5.0..sroa_idx181 = getelementptr inbounds %struct.ray, %struct.ray* %r, i64 0, i32 0, i32 2
  %4 = bitcast double* %o.sroa.5.0..sroa_idx181 to i64*
  %o.sroa.5.0.copyload198 = load i64, i64* %4, align 8
  %d.sroa.0.0..sroa_idx = getelementptr inbounds %struct.ray, %struct.ray* %r, i64 0, i32 1, i32 0
  %5 = bitcast double* %d.sroa.0.0..sroa_idx to <2 x i64>*
  %6 = load <2 x i64>, <2 x i64>* %5, align 8
  %d.sroa.5.0..sroa_idx176 = getelementptr inbounds %struct.ray, %struct.ray* %r, i64 0, i32 1, i32 2
  %7 = bitcast double* %d.sroa.5.0..sroa_idx176 to i64*
  %d.sroa.5.0.copyload201 = load i64, i64* %7, align 8
  %8 = bitcast [3 x double]* %oo to i8*
  call void @llvm.lifetime.start.p0i8(i64 24, i8* nonnull %8) #2
  %9 = bitcast [3 x double]* %oo to <2 x i64>*
  store <2 x i64> %3, <2 x i64>* %9, align 16, !tbaa !37
  %arrayinit.element5 = getelementptr inbounds [3 x double], [3 x double]* %oo, i64 0, i64 2
  %10 = bitcast double* %arrayinit.element5 to i64*
  store i64 %o.sroa.5.0.copyload198, i64* %10, align 16, !tbaa !37
  %11 = bitcast [3 x double]* %dd to i8*
  call void @llvm.lifetime.start.p0i8(i64 24, i8* nonnull %11) #2
  %12 = bitcast [3 x double]* %dd to <2 x i64>*
  store <2 x i64> %6, <2 x i64>* %12, align 16, !tbaa !37
  %arrayinit.element10 = getelementptr inbounds [3 x double], [3 x double]* %dd, i64 0, i64 2
  %13 = bitcast double* %arrayinit.element10 to i64*
  store i64 %d.sroa.5.0.copyload201, i64* %13, align 16, !tbaa !37
  %cutDim = getelementptr inbounds %struct.treeNode, %struct.treeNode* %TN, i64 0, i32 3
  %14 = load i32, i32* %cutDim, align 8, !tbaa !25
  %cmp = icmp eq i32 %14, 2
  %add = add nsw i32 %14, 1
  %cmp12 = icmp eq i32 %14, 0
  %sub = add nsw i32 %14, -1
  %15 = sext i32 %add to i64
  %idxprom = select i1 %cmp, i64 0, i64 %15
  %arrayidx = getelementptr inbounds [3 x double], [3 x double]* %oo, i64 0, i64 %idxprom
  %16 = load double, double* %arrayidx, align 8, !tbaa !37
  %17 = sext i32 %sub to i64
  %idxprom17 = select i1 %cmp12, i64 2, i64 %17
  %arrayidx18 = getelementptr inbounds [3 x double], [3 x double]* %oo, i64 0, i64 %idxprom17
  %18 = load double, double* %arrayidx18, align 8, !tbaa !37
  %arrayidx20 = getelementptr inbounds [3 x double], [3 x double]* %dd, i64 0, i64 %idxprom
  %19 = load double, double* %arrayidx20, align 8, !tbaa !37
  %arrayidx22 = getelementptr inbounds [3 x double], [3 x double]* %dd, i64 0, i64 %idxprom17
  %20 = load double, double* %arrayidx22, align 8, !tbaa !37
  %cutOff = getelementptr inbounds %struct.treeNode, %struct.treeNode* %TN, i64 0, i32 4
  %21 = load float, float* %cutOff, align 4, !tbaa !26
  %conv = fpext float %21 to double
  %idxprom23 = sext i32 %14 to i64
  %arrayidx24 = getelementptr inbounds [3 x double], [3 x double]* %oo, i64 0, i64 %idxprom23
  %22 = load double, double* %arrayidx24, align 8, !tbaa !37
  %sub25 = fsub double %conv, %22
  %arrayidx27 = getelementptr inbounds [3 x double], [3 x double]* %dd, i64 0, i64 %idxprom23
  %23 = load double, double* %arrayidx27, align 8, !tbaa !37
  %div = fdiv double %sub25, %23
  %mul.i = fmul double %19, %div
  %mul2.i = fmul double %20, %div
  %add.i = fadd double %16, %mul.i
  %add4.i = fadd double %18, %mul2.i
  %rx.sroa.0.0..sroa_idx = getelementptr inbounds %struct.treeNode, %struct.treeNode* %TN, i64 0, i32 2, i64 %idxprom, i32 0
  %rx.sroa.0.0.copyload = load float, float* %rx.sroa.0.0..sroa_idx, align 4
  %ry.sroa.0.0..sroa_idx = getelementptr inbounds %struct.treeNode, %struct.treeNode* %TN, i64 0, i32 2, i64 %idxprom17, i32 0
  %ry.sroa.0.0.copyload = load float, float* %ry.sroa.0.0..sroa_idx, align 4
  %ry.sroa.4.0..sroa_idx150 = getelementptr inbounds %struct.treeNode, %struct.treeNode* %TN, i64 0, i32 2, i64 %idxprom17, i32 1
  %ry.sroa.4.0.copyload = load float, float* %ry.sroa.4.0..sroa_idx150, align 4
  %conv40 = fpext float %rx.sroa.0.0.copyload to double
  %cmp41 = fcmp olt double %add.i, %conv40
  br i1 %cmp41, label %if.then42, label %if.else

if.then42:                                        ; preds = %if.end
  %mul = fmul double %19, %23
  %cmp44 = fcmp ogt double %mul, 0.000000e+00
  br i1 %cmp44, label %if.then84, label %if.then90

if.else:                                          ; preds = %if.end
  %rx.sroa.4.0..sroa_idx153 = getelementptr inbounds %struct.treeNode, %struct.treeNode* %TN, i64 0, i32 2, i64 %idxprom, i32 1
  %rx.sroa.4.0.copyload = load float, float* %rx.sroa.4.0..sroa_idx153, align 4
  %conv48 = fpext float %rx.sroa.4.0.copyload to double
  %cmp49 = fcmp ogt double %add.i, %conv48
  br i1 %cmp49, label %if.then50, label %if.else56

if.then50:                                        ; preds = %if.else
  %mul52 = fmul double %19, %23
  %cmp53 = fcmp olt double %mul52, 0.000000e+00
  br i1 %cmp53, label %if.then84, label %if.then90

if.else56:                                        ; preds = %if.else
  %conv59 = fpext float %ry.sroa.0.0.copyload to double
  %cmp60 = fcmp olt double %add4.i, %conv59
  br i1 %cmp60, label %if.then61, label %if.else67

if.then61:                                        ; preds = %if.else56
  %mul63 = fmul double %20, %23
  %cmp64 = fcmp ogt double %mul63, 0.000000e+00
  br i1 %cmp64, label %if.then84, label %if.then90

if.else67:                                        ; preds = %if.else56
  %conv70 = fpext float %ry.sroa.4.0.copyload to double
  %cmp71 = fcmp ogt double %add4.i, %conv70
  br i1 %cmp71, label %if.then72, label %if.else94

if.then72:                                        ; preds = %if.else67
  %mul74 = fmul double %20, %23
  %cmp75 = fcmp olt double %mul74, 0.000000e+00
  br i1 %cmp75, label %if.then84, label %if.then90

if.then84:                                        ; preds = %if.then72, %if.then61, %if.then50, %if.then42
  %right = getelementptr inbounds %struct.treeNode, %struct.treeNode* %TN, i64 0, i32 1
  %24 = load %struct.treeNode*, %struct.treeNode** %right, align 8, !tbaa !24
  %call87 = call i32 @_Z7findRay3rayI8_point3dIdEEP8treeNode9trianglesIS1_E(%struct.ray* byval nonnull align 8 %r, %struct.treeNode* %24, %struct.triangles* byval nonnull align 8 %Tri)
  br label %cleanup122

if.then90:                                        ; preds = %if.then42, %if.then50, %if.then61, %if.then72
  %left = getelementptr inbounds %struct.treeNode, %struct.treeNode* %TN, i64 0, i32 0
  %25 = load %struct.treeNode*, %struct.treeNode** %left, align 8, !tbaa !22
  %call93 = call i32 @_Z7findRay3rayI8_point3dIdEEP8treeNode9trianglesIS1_E(%struct.ray* byval nonnull align 8 %r, %struct.treeNode* %25, %struct.triangles* byval nonnull align 8 %Tri)
  br label %cleanup122

if.else94:                                        ; preds = %if.else67
  %cmp95 = fcmp ogt double %23, 0.000000e+00
  br i1 %cmp95, label %if.then96, label %if.else108

if.then96:                                        ; preds = %if.else94
  %left98 = getelementptr inbounds %struct.treeNode, %struct.treeNode* %TN, i64 0, i32 0
  %26 = load %struct.treeNode*, %struct.treeNode** %left98, align 8, !tbaa !22
  %call100 = call i32 @_Z7findRay3rayI8_point3dIdEEP8treeNode9trianglesIS1_E(%struct.ray* byval nonnull align 8 %r, %struct.treeNode* %26, %struct.triangles* byval nonnull align 8 %Tri)
  %cmp101 = icmp sgt i32 %call100, -1
  br i1 %cmp101, label %cleanup122, label %if.else103

if.else103:                                       ; preds = %if.then96
  %right105 = getelementptr inbounds %struct.treeNode, %struct.treeNode* %TN, i64 0, i32 1
  %27 = load %struct.treeNode*, %struct.treeNode** %right105, align 8, !tbaa !24
  %call107 = call i32 @_Z7findRay3rayI8_point3dIdEEP8treeNode9trianglesIS1_E(%struct.ray* byval nonnull align 8 %r, %struct.treeNode* %27, %struct.triangles* byval nonnull align 8 %Tri)
  br label %cleanup122

if.else108:                                       ; preds = %if.else94
  %right111 = getelementptr inbounds %struct.treeNode, %struct.treeNode* %TN, i64 0, i32 1
  %28 = load %struct.treeNode*, %struct.treeNode** %right111, align 8, !tbaa !24
  %call113 = call i32 @_Z7findRay3rayI8_point3dIdEEP8treeNode9trianglesIS1_E(%struct.ray* byval nonnull align 8 %r, %struct.treeNode* %28, %struct.triangles* byval nonnull align 8 %Tri)
  %cmp114 = icmp sgt i32 %call113, -1
  br i1 %cmp114, label %cleanup122, label %if.else116

if.else116:                                       ; preds = %if.else108
  %left118 = getelementptr inbounds %struct.treeNode, %struct.treeNode* %TN, i64 0, i32 0
  %29 = load %struct.treeNode*, %struct.treeNode** %left118, align 8, !tbaa !22
  %call120 = call i32 @_Z7findRay3rayI8_point3dIdEEP8treeNode9trianglesIS1_E(%struct.ray* byval nonnull align 8 %r, %struct.treeNode* %29, %struct.triangles* byval nonnull align 8 %Tri)
  br label %cleanup122

cleanup122:                                       ; preds = %if.else116, %if.else108, %if.else103, %if.then96, %if.then90, %if.then84
  %retval.2 = phi i32 [ %call87, %if.then84 ], [ %call93, %if.then90 ], [ %call107, %if.else103 ], [ %call100, %if.then96 ], [ %call120, %if.else116 ], [ %call113, %if.else108 ]
  call void @llvm.lifetime.end.p0i8(i64 24, i8* nonnull %11) #2
  call void @llvm.lifetime.end.p0i8(i64 24, i8* nonnull %8) #2
  br label %cleanup137

cleanup137:                                       ; preds = %cleanup122, %if.then
  %retval.3 = phi i32 [ %call2, %if.then ], [ %retval.2, %cleanup122 ]
  ret i32 %retval.3
}

; Function Attrs: uwtable
define void @_Z11processRays9trianglesI8_point3dIdEEP3rayIS1_EiP8treeNodePi(%struct.triangles* byval nocapture readonly align 8 %Tri, %struct.ray* nocapture readonly %rays, i32 %numRays, %struct.treeNode* nocapture readonly %R, i32* nocapture %results) local_unnamed_addr #6 personality i8* bitcast (i32 (...)* @__gxx_personality_v0 to i8*) {
entry:
  %0 = alloca { %struct.ray*, %struct.treeNode*, %struct.triangles*, i32* }, align 8
  %cmp26 = icmp sgt i32 %numRays, 0
  br i1 %cmp26, label %pfor.detach.lr.ph, label %sync.continue

pfor.detach.lr.ph:                                ; preds = %entry
  %1 = sext i32 %numRays to i64
  %2 = getelementptr inbounds { %struct.ray*, %struct.treeNode*, %struct.triangles*, i32* }, { %struct.ray*, %struct.treeNode*, %struct.triangles*, i32* }* %0, i64 0, i32 0
  store %struct.ray* %rays, %struct.ray** %2, align 8
  %3 = getelementptr inbounds { %struct.ray*, %struct.treeNode*, %struct.triangles*, i32* }, { %struct.ray*, %struct.treeNode*, %struct.triangles*, i32* }* %0, i64 0, i32 1
  store %struct.treeNode* %R, %struct.treeNode** %3, align 8
  %4 = getelementptr inbounds { %struct.ray*, %struct.treeNode*, %struct.triangles*, i32* }, { %struct.ray*, %struct.treeNode*, %struct.triangles*, i32* }* %0, i64 0, i32 2
  store %struct.triangles* %Tri, %struct.triangles** %4, align 8
  %5 = getelementptr inbounds { %struct.ray*, %struct.treeNode*, %struct.triangles*, i32* }, { %struct.ray*, %struct.treeNode*, %struct.triangles*, i32* }* %0, i64 0, i32 3
  store i32* %results, i32** %5, align 8
  %6 = bitcast { %struct.ray*, %struct.treeNode*, %struct.triangles*, i32* }* %0 to i8*
  call fastcc void @__cilkrts_cilk_for_64(void (i8*, i64, i64)* bitcast (void ({ %struct.ray*, %struct.treeNode*, %struct.triangles*, i32* }*, i64, i64)* @_Z11processRays9trianglesI8_point3dIdEEP3rayIS1_EiP8treeNodePi_pfor.detach.ls to void (i8*, i64, i64)*), i8* nonnull %6, i64 %1, i32 0)
  br label %sync.continue

sync.continue:                                    ; preds = %pfor.detach.lr.ph, %entry
  ret void
}

; Function Attrs: uwtable
define noalias i32* @_Z7rayCast9trianglesI8_point3dIdEEP3rayIS1_Ei(%struct.triangles* byval nocapture readonly align 8 %Tri, %struct.ray* nocapture readonly %rays, i32 %numRays) local_unnamed_addr #6 personality i8* bitcast (i32 (...)* @__gxx_personality_v0 to i8*) {
entry:
  %0 = alloca { i32* }, align 8
  %1 = alloca { %struct.ray*, %struct.treeNode*, %struct.triangles*, i32* }, align 8
  %2 = alloca { %struct.range**, %struct.event** }, align 8
  %3 = alloca { %struct.range**, %struct.event** }, align 8
  %4 = alloca { %struct.range**, %struct.event** }, align 8
  %5 = alloca { %struct.triangle*, %class._point3d*, float, %struct.range**, %struct.range**, %struct.range** }, align 8
  %now.i.i.i.i683 = alloca %struct.timeval, align 8
  %now.i.i.i.i639 = alloca %struct.timeval, align 8
  %agg.tmp241619 = alloca %struct.triangles, align 8
  %now.i.i.i.i556 = alloca %struct.timeval, align 8
  %now.i.i.i.i = alloca %struct.timeval, align 8
  %__dnew.i.i.i.i = alloca i64, align 8
  %now.i.i = alloca %struct.timeval, align 8
  %boxes = alloca [3 x %struct.range*], align 16
  %events = alloca [3 x %struct.event*], align 16
  %boundingBox = alloca [3 x %struct.range], align 16
  %agg.tmp196 = alloca %"class.std::__cxx11::basic_string", align 8
  %agg.tmp213 = alloca %"class.std::__cxx11::basic_string", align 8
  %agg.tmp242 = alloca %"class.std::__cxx11::basic_string", align 8
  %agg.tmp251 = alloca %"class.std::__cxx11::basic_string", align 8
  store i8 1, i8* getelementptr inbounds (%struct.timer, %struct.timer* @_ZL3_tm, i64 0, i32 3), align 8, !tbaa !39
  %6 = bitcast %struct.timeval* %now.i.i to i8*
  call void @llvm.lifetime.start.p0i8(i64 16, i8* nonnull %6) #2
  %call.i.i = call i32 @gettimeofday(%struct.timeval* nonnull %now.i.i, %struct.timezone* nonnull getelementptr inbounds (%struct.timer, %struct.timer* @_ZL3_tm, i64 0, i32 5)) #2
  %tv_sec.i.i = getelementptr inbounds %struct.timeval, %struct.timeval* %now.i.i, i64 0, i32 0
  %7 = load i64, i64* %tv_sec.i.i, align 8, !tbaa !43
  %conv.i.i = sitofp i64 %7 to double
  %tv_usec.i.i = getelementptr inbounds %struct.timeval, %struct.timeval* %now.i.i, i64 0, i32 1
  %8 = load i64, i64* %tv_usec.i.i, align 8, !tbaa !46
  %conv2.i.i = sitofp i64 %8 to double
  %div.i.i = fdiv double %conv2.i.i, 1.000000e+06
  %add.i.i = fadd double %div.i.i, %conv.i.i
  call void @llvm.lifetime.end.p0i8(i64 16, i8* nonnull %6) #2
  store double %add.i.i, double* getelementptr inbounds (%struct.timer, %struct.timer* @_ZL3_tm, i64 0, i32 1), align 8, !tbaa !47
  %9 = bitcast [3 x %struct.range*]* %boxes to i8*
  call void @llvm.lifetime.start.p0i8(i64 24, i8* nonnull %9) #2
  %numTriangles = getelementptr inbounds %struct.triangles, %struct.triangles* %Tri, i64 0, i32 1
  %10 = load i32, i32* %numTriangles, align 4, !tbaa !48
  %conv = sext i32 %10 to i64
  %mul = shl nsw i64 %conv, 3
  %call = tail call noalias i8* @malloc(i64 %mul) #2
  %arrayidx = getelementptr inbounds [3 x %struct.range*], [3 x %struct.range*]* %boxes, i64 0, i64 0
  %11 = bitcast [3 x %struct.range*]* %boxes to i8**
  store i8* %call, i8** %11, align 16, !tbaa !17
  %call.1 = tail call noalias i8* @malloc(i64 %mul) #2
  %arrayidx.1 = getelementptr inbounds [3 x %struct.range*], [3 x %struct.range*]* %boxes, i64 0, i64 1
  %12 = bitcast %struct.range** %arrayidx.1 to i8**
  store i8* %call.1, i8** %12, align 8, !tbaa !17
  %call.2 = tail call noalias i8* @malloc(i64 %mul) #2
  %arrayidx.2 = getelementptr inbounds [3 x %struct.range*], [3 x %struct.range*]* %boxes, i64 0, i64 2
  %13 = bitcast %struct.range** %arrayidx.2 to i8**
  store i8* %call.2, i8** %13, align 16, !tbaa !17
  %cmp3811 = icmp sgt i32 %10, 0
  br i1 %cmp3811, label %pfor.detach.lr.ph, label %sync.continue

pfor.detach.lr.ph:                                ; preds = %entry
  %P1 = getelementptr inbounds %struct.triangles, %struct.triangles* %Tri, i64 0, i32 2
  %14 = bitcast %class._point3d** %P1 to i64*
  %15 = load i64, i64* %14, align 8, !tbaa !34
  %T = getelementptr inbounds %struct.triangles, %struct.triangles* %Tri, i64 0, i32 3
  %16 = bitcast %struct.triangle** %T to i64*
  %17 = load i64, i64* %16, align 8
  %18 = load i32, i32* bitcast (float* @epsilon to i32*), align 4
  %19 = bitcast { %struct.triangle*, %class._point3d*, float, %struct.range**, %struct.range**, %struct.range** }* %5 to i64*
  store i64 %17, i64* %19, align 8
  %20 = getelementptr inbounds { %struct.triangle*, %class._point3d*, float, %struct.range**, %struct.range**, %struct.range** }, { %struct.triangle*, %class._point3d*, float, %struct.range**, %struct.range**, %struct.range** }* %5, i64 0, i32 1
  %21 = bitcast %class._point3d** %20 to i64*
  store i64 %15, i64* %21, align 8
  %22 = getelementptr inbounds { %struct.triangle*, %class._point3d*, float, %struct.range**, %struct.range**, %struct.range** }, { %struct.triangle*, %class._point3d*, float, %struct.range**, %struct.range**, %struct.range** }* %5, i64 0, i32 2
  %23 = bitcast float* %22 to i32*
  store i32 %18, i32* %23, align 8
  %24 = getelementptr inbounds { %struct.triangle*, %class._point3d*, float, %struct.range**, %struct.range**, %struct.range** }, { %struct.triangle*, %class._point3d*, float, %struct.range**, %struct.range**, %struct.range** }* %5, i64 0, i32 3
  store %struct.range** %arrayidx, %struct.range*** %24, align 8
  %25 = getelementptr inbounds { %struct.triangle*, %class._point3d*, float, %struct.range**, %struct.range**, %struct.range** }, { %struct.triangle*, %class._point3d*, float, %struct.range**, %struct.range**, %struct.range** }* %5, i64 0, i32 4
  store %struct.range** %arrayidx.1, %struct.range*** %25, align 8
  %26 = getelementptr inbounds { %struct.triangle*, %class._point3d*, float, %struct.range**, %struct.range**, %struct.range** }, { %struct.triangle*, %class._point3d*, float, %struct.range**, %struct.range**, %struct.range** }* %5, i64 0, i32 5
  store %struct.range** %arrayidx.2, %struct.range*** %26, align 8
  %27 = bitcast { %struct.triangle*, %class._point3d*, float, %struct.range**, %struct.range**, %struct.range** }* %5 to i8*
  invoke fastcc void @__cilkrts_cilk_for_64(void (i8*, i64, i64)* bitcast (void ({ %struct.triangle*, %class._point3d*, float, %struct.range**, %struct.range**, %struct.range** }*, i64, i64)* @_Z7rayCast9trianglesI8_point3dIdEEP3rayIS1_Ei_pfor.detach.ls to void (i8*, i64, i64)*), i8* nonnull %27, i64 %conv, i32 0)
          to label %sync.continue unwind label %lpad92

lpad92:                                           ; preds = %pfor.detach.lr.ph
  %28 = landingpad { i8*, i32 }
          cleanup
  %29 = extractvalue { i8*, i32 } %28, 0
  %30 = extractvalue { i8*, i32 } %28, 1
  br label %ehcleanup328

sync.continue:                                    ; preds = %entry, %pfor.detach.lr.ph
  %31 = bitcast [3 x %struct.event*]* %events to i8*
  call void @llvm.lifetime.start.p0i8(i64 24, i8* nonnull %31) #2
  %32 = bitcast [3 x %struct.range]* %boundingBox to i8*
  call void @llvm.lifetime.start.p0i8(i64 24, i8* nonnull %32) #2
  %array.begin = getelementptr inbounds [3 x %struct.range], [3 x %struct.range]* %boundingBox, i64 0, i64 0
  %mul106 = shl nsw i32 %10, 1
  %conv107 = sext i32 %mul106 to i64
  %mul108 = shl nsw i64 %conv107, 3
  %sub186 = add nsw i32 %mul106, -1
  %idxprom187 = sext i32 %sub186 to i64
  %call109 = call noalias i8* @malloc(i64 %mul108) #2
  %arrayidx111 = getelementptr inbounds [3 x %struct.event*], [3 x %struct.event*]* %events, i64 0, i64 0
  %33 = bitcast [3 x %struct.event*]* %events to i8**
  store i8* %call109, i8** %33, align 16, !tbaa !17
  %34 = bitcast i8* %call109 to %struct.event*
  br i1 %cmp3811, label %pfor.detach123.preheader, label %sync.continue169

pfor.detach123.preheader:                         ; preds = %sync.continue
  %35 = getelementptr inbounds { %struct.range**, %struct.event** }, { %struct.range**, %struct.event** }* %4, i64 0, i32 0
  store %struct.range** %arrayidx, %struct.range*** %35, align 8
  %36 = getelementptr inbounds { %struct.range**, %struct.event** }, { %struct.range**, %struct.event** }* %4, i64 0, i32 1
  store %struct.event** %arrayidx111, %struct.event*** %36, align 8
  %37 = bitcast { %struct.range**, %struct.event** }* %4 to i8*
  invoke fastcc void @__cilkrts_cilk_for_64(void (i8*, i64, i64)* bitcast (void ({ %struct.range**, %struct.event** }*, i64, i64)* @_Z7rayCast9trianglesI8_point3dIdEEP3rayIS1_Ei_pfor.detach123.ls to void (i8*, i64, i64)*), i8* nonnull %37, i64 %conv, i32 0)
          to label %pfor.detach123.preheader.sync.continue169_crit_edge unwind label %lpad162.loopexit

pfor.detach123.preheader.sync.continue169_crit_edge: ; preds = %pfor.detach123.preheader
  %.pre = load %struct.event*, %struct.event** %arrayidx111, align 16, !tbaa !17
  br label %sync.continue169

call5.i.i.i9.i.noexc:                             ; preds = %sync.continue169.2
  %_M_p.i18.i.i.i.i = getelementptr inbounds %"class.std::__cxx11::basic_string", %"class.std::__cxx11::basic_string"* %agg.tmp196, i64 0, i32 0, i32 0
  store i8* %call5.i.i.i9.i510, i8** %_M_p.i18.i.i.i.i, align 8, !tbaa !49
  %38 = load i64, i64* %__dnew.i.i.i.i, align 8, !tbaa !52
  %_M_allocated_capacity.i.i.i.i.i = getelementptr inbounds %"class.std::__cxx11::basic_string", %"class.std::__cxx11::basic_string"* %agg.tmp196, i64 0, i32 2, i32 0
  store i64 %38, i64* %_M_allocated_capacity.i.i.i.i.i, align 8, !tbaa !53
  call void @llvm.memcpy.p0i8.p0i8.i64(i8* %call5.i.i.i9.i510, i8* nonnull getelementptr inbounds ([25 x i8], [25 x i8]* @.str.4, i64 0, i64 0), i64 24, i32 1, i1 false) #2
  %_M_string_length.i.i.i.i.i.i = getelementptr inbounds %"class.std::__cxx11::basic_string", %"class.std::__cxx11::basic_string"* %agg.tmp196, i64 0, i32 1
  store i64 %38, i64* %_M_string_length.i.i.i.i.i.i, align 8, !tbaa !54
  %39 = load i8*, i8** %_M_p.i18.i.i.i.i, align 8, !tbaa !49
  %arrayidx.i.i.i.i.i = getelementptr inbounds i8, i8* %39, i64 %38
  store i8 0, i8* %arrayidx.i.i.i.i.i, align 1, !tbaa !53
  call void @llvm.lifetime.end.p0i8(i64 8, i8* nonnull %185) #2
  %40 = load i8*, i8** %_M_p.i18.i.i.i.i, align 8, !tbaa !49
  %41 = load i64, i64* %_M_string_length.i.i.i.i.i.i, align 8, !tbaa !54
  %call2.i.i524 = invoke dereferenceable(272) %"class.std::basic_ostream"* @_ZSt16__ostream_insertIcSt11char_traitsIcEERSt13basic_ostreamIT_T0_ES6_PKS3_l(%"class.std::basic_ostream"* nonnull dereferenceable(272) @_ZSt4cout, i8* %40, i64 %41)
          to label %call2.i.i.noexc unwind label %lpad200

lpad162.loopexit:                                 ; preds = %pfor.detach123.preheader
  %lpad.loopexit = landingpad { i8*, i32 }
          cleanup
  br label %lpad162

lpad162.loopexit.split-lp.loopexit:               ; preds = %pfor.detach123.1.preheader
  %lpad.loopexit825 = landingpad { i8*, i32 }
          cleanup
  br label %lpad162

lpad162.loopexit.split-lp.loopexit.split-lp:      ; preds = %pfor.detach123.2.preheader
  %lpad.loopexit.split-lp826 = landingpad { i8*, i32 }
          cleanup
  br label %lpad162

lpad162:                                          ; preds = %lpad162.loopexit.split-lp.loopexit, %lpad162.loopexit.split-lp.loopexit.split-lp, %lpad162.loopexit
  %lpad.phi = phi { i8*, i32 } [ %lpad.loopexit, %lpad162.loopexit ], [ %lpad.loopexit825, %lpad162.loopexit.split-lp.loopexit ], [ %lpad.loopexit.split-lp826, %lpad162.loopexit.split-lp.loopexit.split-lp ]
  %42 = extractvalue { i8*, i32 } %lpad.phi, 0
  %43 = extractvalue { i8*, i32 } %lpad.phi, 1
  br label %ehcleanup326

sync.continue169:                                 ; preds = %pfor.detach123.preheader.sync.continue169_crit_edge, %sync.continue
  %44 = phi %struct.event* [ %.pre, %pfor.detach123.preheader.sync.continue169_crit_edge ], [ %34, %sync.continue ]
  call void @_Z10sampleSortI5event6cmpValiEvPT_T1_T0_(%struct.event* %44, i32 %mul106)
  %45 = load %struct.event*, %struct.event** %arrayidx111, align 16, !tbaa !17
  %46 = bitcast %struct.event* %45 to i32*
  %47 = load i32, i32* %46, align 4, !tbaa !11
  %v189 = getelementptr inbounds %struct.event, %struct.event* %45, i64 %idxprom187, i32 0
  %48 = bitcast float* %v189 to i32*
  %49 = load i32, i32* %48, align 4, !tbaa !11
  %.sroa_cast793 = bitcast [3 x %struct.range]* %boundingBox to i32*
  store i32 %47, i32* %.sroa_cast793, align 16
  %.sroa_idx794 = getelementptr inbounds [3 x %struct.range], [3 x %struct.range]* %boundingBox, i64 0, i64 0, i32 1
  %.sroa_cast795 = bitcast float* %.sroa_idx794 to i32*
  store i32 %49, i32* %.sroa_cast795, align 4
  %call109.1 = call noalias i8* @malloc(i64 %mul108) #2
  %arrayidx111.1 = getelementptr inbounds [3 x %struct.event*], [3 x %struct.event*]* %events, i64 0, i64 1
  %50 = bitcast %struct.event** %arrayidx111.1 to i8**
  store i8* %call109.1, i8** %50, align 8, !tbaa !17
  %51 = bitcast i8* %call109.1 to %struct.event*
  br i1 %cmp3811, label %pfor.detach123.1.preheader, label %sync.continue169.1

pfor.detach123.1.preheader:                       ; preds = %sync.continue169
  %52 = getelementptr inbounds { %struct.range**, %struct.event** }, { %struct.range**, %struct.event** }* %3, i64 0, i32 0
  store %struct.range** %arrayidx.1, %struct.range*** %52, align 8
  %53 = getelementptr inbounds { %struct.range**, %struct.event** }, { %struct.range**, %struct.event** }* %3, i64 0, i32 1
  store %struct.event** %arrayidx111.1, %struct.event*** %53, align 8
  %54 = bitcast { %struct.range**, %struct.event** }* %3 to i8*
  invoke fastcc void @__cilkrts_cilk_for_64(void (i8*, i64, i64)* bitcast (void ({ %struct.range**, %struct.event** }*, i64, i64)* @_Z7rayCast9trianglesI8_point3dIdEEP3rayIS1_Ei_pfor.detach123.1.ls to void (i8*, i64, i64)*), i8* nonnull %54, i64 %conv, i32 0)
          to label %pfor.detach123.1.preheader.sync.continue169.1_crit_edge unwind label %lpad162.loopexit.split-lp.loopexit

pfor.detach123.1.preheader.sync.continue169.1_crit_edge: ; preds = %pfor.detach123.1.preheader
  %.pre833 = load %struct.event*, %struct.event** %arrayidx111.1, align 8, !tbaa !17
  br label %sync.continue169.1

call2.i.i.noexc:                                  ; preds = %call5.i.i.i9.i.noexc
  %call1.i.i525 = invoke dereferenceable(272) %"class.std::basic_ostream"* @_ZSt16__ostream_insertIcSt11char_traitsIcEERSt13basic_ostreamIT_T0_ES6_PKS3_l(%"class.std::basic_ostream"* nonnull dereferenceable(272) %call2.i.i524, i8* nonnull getelementptr inbounds ([4 x i8], [4 x i8]* @.str.13, i64 0, i64 0), i64 3)
          to label %call1.i.i.noexc unwind label %lpad200

call1.i.i.noexc:                                  ; preds = %call2.i.i.noexc
  %55 = load i8, i8* getelementptr inbounds (%struct.timer, %struct.timer* @_ZL3_tm, i64 0, i32 3), align 8, !tbaa !39, !range !55
  %tobool.i.i.i521 = icmp eq i8 %55, 0
  br i1 %tobool.i.i.i521, label %_ZN5timer10reportNextEv.exit.i, label %if.end.i.i.i522

if.end.i.i.i522:                                  ; preds = %call1.i.i.noexc
  %56 = bitcast %struct.timeval* %now.i.i.i.i to i8*
  call void @llvm.lifetime.start.p0i8(i64 16, i8* nonnull %56) #2
  %call.i.i.i.i = call i32 @gettimeofday(%struct.timeval* nonnull %now.i.i.i.i, %struct.timezone* nonnull getelementptr inbounds (%struct.timer, %struct.timer* @_ZL3_tm, i64 0, i32 5)) #2
  %tv_sec.i.i.i.i = getelementptr inbounds %struct.timeval, %struct.timeval* %now.i.i.i.i, i64 0, i32 0
  %57 = load i64, i64* %tv_sec.i.i.i.i, align 8, !tbaa !43
  %conv.i.i.i.i = sitofp i64 %57 to double
  %tv_usec.i.i.i.i = getelementptr inbounds %struct.timeval, %struct.timeval* %now.i.i.i.i, i64 0, i32 1
  %58 = load i64, i64* %tv_usec.i.i.i.i, align 8, !tbaa !46
  %conv2.i.i.i.i = sitofp i64 %58 to double
  %div.i.i.i.i = fdiv double %conv2.i.i.i.i, 1.000000e+06
  %add.i.i.i.i = fadd double %div.i.i.i.i, %conv.i.i.i.i
  call void @llvm.lifetime.end.p0i8(i64 16, i8* nonnull %56) #2
  %59 = load double, double* getelementptr inbounds (%struct.timer, %struct.timer* @_ZL3_tm, i64 0, i32 1), align 8, !tbaa !47
  %sub.i.i.i = fsub double %add.i.i.i.i, %59
  %60 = load double, double* getelementptr inbounds (%struct.timer, %struct.timer* @_ZL3_tm, i64 0, i32 0), align 8, !tbaa !56
  %add.i.i.i = fadd double %60, %sub.i.i.i
  store double %add.i.i.i, double* getelementptr inbounds (%struct.timer, %struct.timer* @_ZL3_tm, i64 0, i32 0), align 8, !tbaa !56
  store double %add.i.i.i.i, double* getelementptr inbounds (%struct.timer, %struct.timer* @_ZL3_tm, i64 0, i32 1), align 8, !tbaa !47
  br label %_ZN5timer10reportNextEv.exit.i

_ZN5timer10reportNextEv.exit.i:                   ; preds = %if.end.i.i.i522, %call1.i.i.noexc
  %retval.0.i.i.i523 = phi double [ %sub.i.i.i, %if.end.i.i.i522 ], [ 0.000000e+00, %call1.i.i.noexc ]
  invoke void @_ZN5timer7reportTEd(%struct.timer* nonnull @_ZL3_tm, double %retval.0.i.i.i523)
          to label %invoke.cont201 unwind label %lpad200

invoke.cont201:                                   ; preds = %_ZN5timer10reportNextEv.exit.i
  %61 = load i8*, i8** %_M_p.i18.i.i.i.i, align 8, !tbaa !49
  %cmp.i.i.i528 = icmp eq i8* %61, %184
  br i1 %cmp.i.i.i528, label %_ZNSt7__cxx1112basic_stringIcSt11char_traitsIcESaIcEED2Ev.exit530, label %if.then.i.i529

if.then.i.i529:                                   ; preds = %invoke.cont201
  call void @_ZdlPv(i8* %61) #2
  br label %_ZNSt7__cxx1112basic_stringIcSt11char_traitsIcESaIcEED2Ev.exit530

_ZNSt7__cxx1112basic_stringIcSt11char_traitsIcESaIcEED2Ev.exit530: ; preds = %invoke.cont201, %if.then.i.i529
  %cmp6.i = icmp sgt i32 %10, 1
  br i1 %cmp6.i, label %while.body.lr.ph.i, label %_ZN5utilsL6log2UpIiEEiT_.exit

while.body.lr.ph.i:                               ; preds = %_ZNSt7__cxx1112basic_stringIcSt11char_traitsIcESaIcEED2Ev.exit530
  %sub.i = add nsw i32 %10, -1
  br label %while.body.i

while.body.i:                                     ; preds = %while.body.i, %while.body.lr.ph.i
  %b.08.i = phi i32 [ %sub.i, %while.body.lr.ph.i ], [ %shr5.i, %while.body.i ]
  %a.07.i = phi i32 [ 0, %while.body.lr.ph.i ], [ %inc.i, %while.body.i ]
  %shr5.i = lshr i32 %b.08.i, 1
  %inc.i = add nuw nsw i32 %a.07.i, 1
  %cmp.i531 = icmp eq i32 %shr5.i, 0
  br i1 %cmp.i531, label %_ZN5utilsL6log2UpIiEEiT_.exit, label %while.body.i

_ZN5utilsL6log2UpIiEEiT_.exit:                    ; preds = %while.body.i, %_ZNSt7__cxx1112basic_stringIcSt11char_traitsIcESaIcEED2Ev.exit530
  %a.0.lcssa.i = phi i32 [ 0, %_ZNSt7__cxx1112basic_stringIcSt11char_traitsIcESaIcEED2Ev.exit530 ], [ %inc.i, %while.body.i ]
  %sub207 = add nsw i32 %a.0.lcssa.i, -1
  %62 = load i32, i32* @maxRecursionDepth, align 4, !tbaa !12
  %cmp.i532 = icmp slt i32 %sub207, %62
  %.sroa.speculated789 = select i1 %cmp.i532, i32 %sub207, i32 %62
  %call212 = call %struct.treeNode* @_Z12generateNodePP5rangePP5eventS0_ii(%struct.range** nonnull %arrayidx, %struct.event** nonnull %arrayidx111, %struct.range* nonnull %array.begin, i32 %mul106, i32 %.sroa.speculated789)
  %63 = getelementptr inbounds %"class.std::__cxx11::basic_string", %"class.std::__cxx11::basic_string"* %agg.tmp213, i64 0, i32 2
  %64 = bitcast %"class.std::__cxx11::basic_string"* %agg.tmp213 to %union.anon**
  store %union.anon* %63, %union.anon** %64, align 8, !tbaa !57
  %65 = bitcast %union.anon* %63 to i8*
  call void @llvm.memcpy.p0i8.p0i8.i64(i8* nonnull %65, i8* nonnull getelementptr inbounds ([11 x i8], [11 x i8]* @.str.5, i64 0, i64 0), i64 10, i32 1, i1 false) #2
  %_M_string_length.i.i.i.i.i.i551 = getelementptr inbounds %"class.std::__cxx11::basic_string", %"class.std::__cxx11::basic_string"* %agg.tmp213, i64 0, i32 1
  store i64 10, i64* %_M_string_length.i.i.i.i.i.i551, align 8, !tbaa !54
  %66 = getelementptr inbounds %"class.std::__cxx11::basic_string", %"class.std::__cxx11::basic_string"* %agg.tmp213, i64 0, i32 2, i32 1, i64 2
  store i8 0, i8* %66, align 2, !tbaa !53
  %_M_p.i.i.i.i557 = getelementptr inbounds %"class.std::__cxx11::basic_string", %"class.std::__cxx11::basic_string"* %agg.tmp213, i64 0, i32 0, i32 0
  %call2.i.i573 = invoke dereferenceable(272) %"class.std::basic_ostream"* @_ZSt16__ostream_insertIcSt11char_traitsIcEERSt13basic_ostreamIT_T0_ES6_PKS3_l(%"class.std::basic_ostream"* nonnull dereferenceable(272) @_ZSt4cout, i8* nonnull %65, i64 10)
          to label %call2.i.i.noexc572 unwind label %lpad217

call2.i.i.noexc572:                               ; preds = %_ZN5utilsL6log2UpIiEEiT_.exit
  %call1.i.i575 = invoke dereferenceable(272) %"class.std::basic_ostream"* @_ZSt16__ostream_insertIcSt11char_traitsIcEERSt13basic_ostreamIT_T0_ES6_PKS3_l(%"class.std::basic_ostream"* nonnull dereferenceable(272) %call2.i.i573, i8* nonnull getelementptr inbounds ([4 x i8], [4 x i8]* @.str.13, i64 0, i64 0), i64 3)
          to label %call1.i.i.noexc574 unwind label %lpad217

call1.i.i.noexc574:                               ; preds = %call2.i.i.noexc572
  %67 = load i8, i8* getelementptr inbounds (%struct.timer, %struct.timer* @_ZL3_tm, i64 0, i32 3), align 8, !tbaa !39, !range !55
  %tobool.i.i.i559 = icmp eq i8 %67, 0
  br i1 %tobool.i.i.i559, label %_ZN5timer10reportNextEv.exit.i571, label %if.end.i.i.i569

if.end.i.i.i569:                                  ; preds = %call1.i.i.noexc574
  %68 = bitcast %struct.timeval* %now.i.i.i.i556 to i8*
  call void @llvm.lifetime.start.p0i8(i64 16, i8* nonnull %68) #2
  %call.i.i.i.i560 = call i32 @gettimeofday(%struct.timeval* nonnull %now.i.i.i.i556, %struct.timezone* nonnull getelementptr inbounds (%struct.timer, %struct.timer* @_ZL3_tm, i64 0, i32 5)) #2
  %tv_sec.i.i.i.i561 = getelementptr inbounds %struct.timeval, %struct.timeval* %now.i.i.i.i556, i64 0, i32 0
  %69 = load i64, i64* %tv_sec.i.i.i.i561, align 8, !tbaa !43
  %conv.i.i.i.i562 = sitofp i64 %69 to double
  %tv_usec.i.i.i.i563 = getelementptr inbounds %struct.timeval, %struct.timeval* %now.i.i.i.i556, i64 0, i32 1
  %70 = load i64, i64* %tv_usec.i.i.i.i563, align 8, !tbaa !46
  %conv2.i.i.i.i564 = sitofp i64 %70 to double
  %div.i.i.i.i565 = fdiv double %conv2.i.i.i.i564, 1.000000e+06
  %add.i.i.i.i566 = fadd double %div.i.i.i.i565, %conv.i.i.i.i562
  call void @llvm.lifetime.end.p0i8(i64 16, i8* nonnull %68) #2
  %71 = load double, double* getelementptr inbounds (%struct.timer, %struct.timer* @_ZL3_tm, i64 0, i32 1), align 8, !tbaa !47
  %sub.i.i.i567 = fsub double %add.i.i.i.i566, %71
  %72 = load double, double* getelementptr inbounds (%struct.timer, %struct.timer* @_ZL3_tm, i64 0, i32 0), align 8, !tbaa !56
  %add.i.i.i568 = fadd double %72, %sub.i.i.i567
  store double %add.i.i.i568, double* getelementptr inbounds (%struct.timer, %struct.timer* @_ZL3_tm, i64 0, i32 0), align 8, !tbaa !56
  store double %add.i.i.i.i566, double* getelementptr inbounds (%struct.timer, %struct.timer* @_ZL3_tm, i64 0, i32 1), align 8, !tbaa !47
  br label %_ZN5timer10reportNextEv.exit.i571

_ZN5timer10reportNextEv.exit.i571:                ; preds = %if.end.i.i.i569, %call1.i.i.noexc574
  %retval.0.i.i.i570 = phi double [ %sub.i.i.i567, %if.end.i.i.i569 ], [ 0.000000e+00, %call1.i.i.noexc574 ]
  invoke void @_ZN5timer7reportTEd(%struct.timer* nonnull @_ZL3_tm, double %retval.0.i.i.i570)
          to label %invoke.cont218 unwind label %lpad217

invoke.cont218:                                   ; preds = %_ZN5timer10reportNextEv.exit.i571
  %73 = load i8*, i8** %_M_p.i.i.i.i557, align 8, !tbaa !49
  %cmp.i.i.i579 = icmp eq i8* %73, %65
  br i1 %cmp.i.i.i579, label %_ZNSt7__cxx1112basic_stringIcSt11char_traitsIcESaIcEED2Ev.exit581, label %if.then.i.i580

if.then.i.i580:                                   ; preds = %invoke.cont218
  call void @_ZdlPv(i8* %73) #2
  br label %_ZNSt7__cxx1112basic_stringIcSt11char_traitsIcESaIcEED2Ev.exit581

_ZNSt7__cxx1112basic_stringIcSt11char_traitsIcESaIcEED2Ev.exit581: ; preds = %invoke.cont218, %if.then.i.i580
  %74 = load i32, i32* @STATS, align 4, !tbaa !12
  %tobool = icmp eq i32 %74, 0
  br i1 %tobool, label %if.end, label %if.then

if.then:                                          ; preds = %_ZNSt7__cxx1112basic_stringIcSt11char_traitsIcESaIcEED2Ev.exit581
  %call1.i583 = call dereferenceable(272) %"class.std::basic_ostream"* @_ZSt16__ostream_insertIcSt11char_traitsIcEERSt13basic_ostreamIT_T0_ES6_PKS3_l(%"class.std::basic_ostream"* nonnull dereferenceable(272) @_ZSt4cout, i8* nonnull getelementptr inbounds ([31 x i8], [31 x i8]* @.str.6, i64 0, i64 0), i64 30)
  %n223 = getelementptr inbounds %struct.treeNode, %struct.treeNode* %call212, i64 0, i32 6
  %75 = load i32, i32* %n223, align 8, !tbaa !28
  %call224 = call dereferenceable(272) %"class.std::basic_ostream"* @_ZNSolsEi(%"class.std::basic_ostream"* nonnull @_ZSt4cout, i32 %75)
  %call1.i586 = call dereferenceable(272) %"class.std::basic_ostream"* @_ZSt16__ostream_insertIcSt11char_traitsIcEERSt13basic_ostreamIT_T0_ES6_PKS3_l(%"class.std::basic_ostream"* nonnull dereferenceable(272) %call224, i8* nonnull getelementptr inbounds ([11 x i8], [11 x i8]* @.str.7, i64 0, i64 0), i64 10)
  %leaves = getelementptr inbounds %struct.treeNode, %struct.treeNode* %call212, i64 0, i32 7
  %76 = load i32, i32* %leaves, align 4, !tbaa !29
  %call226 = call dereferenceable(272) %"class.std::basic_ostream"* @_ZNSolsEi(%"class.std::basic_ostream"* nonnull %call224, i32 %76)
  %77 = bitcast %"class.std::basic_ostream"* %call226 to i8**
  %vtable.i589 = load i8*, i8** %77, align 8, !tbaa !58
  %vbase.offset.ptr.i590 = getelementptr i8, i8* %vtable.i589, i64 -24
  %78 = bitcast i8* %vbase.offset.ptr.i590 to i64*
  %vbase.offset.i591 = load i64, i64* %78, align 8
  %79 = bitcast %"class.std::basic_ostream"* %call226 to i8*
  %add.ptr.i592 = getelementptr inbounds i8, i8* %79, i64 %vbase.offset.i591
  %_M_ctype.i.i593 = getelementptr inbounds i8, i8* %add.ptr.i592, i64 240
  %80 = bitcast i8* %_M_ctype.i.i593 to %"class.std::ctype"**
  %81 = load %"class.std::ctype"*, %"class.std::ctype"** %80, align 8, !tbaa !60
  %tobool.i.i.i594 = icmp eq %"class.std::ctype"* %81, null
  br i1 %tobool.i.i.i594, label %if.then.i.i.i595, label %_ZSt13__check_facetISt5ctypeIcEERKT_PS3_.exit.i.i598

if.then.i.i.i595:                                 ; preds = %if.then
  call void @_ZSt16__throw_bad_castv() #22
  unreachable

_ZSt13__check_facetISt5ctypeIcEERKT_PS3_.exit.i.i598: ; preds = %if.then
  %_M_widen_ok.i.i.i596 = getelementptr inbounds %"class.std::ctype", %"class.std::ctype"* %81, i64 0, i32 8
  %82 = load i8, i8* %_M_widen_ok.i.i.i596, align 8, !tbaa !62
  %tobool.i3.i.i597 = icmp eq i8 %82, 0
  br i1 %tobool.i3.i.i597, label %if.end.i.i.i604, label %if.then.i4.i.i600

if.then.i4.i.i600:                                ; preds = %_ZSt13__check_facetISt5ctypeIcEERKT_PS3_.exit.i.i598
  %arrayidx.i.i.i599 = getelementptr inbounds %"class.std::ctype", %"class.std::ctype"* %81, i64 0, i32 9, i64 10
  %83 = load i8, i8* %arrayidx.i.i.i599, align 1, !tbaa !53
  br label %_ZSt4endlIcSt11char_traitsIcEERSt13basic_ostreamIT_T0_ES6_.exit608

if.end.i.i.i604:                                  ; preds = %_ZSt13__check_facetISt5ctypeIcEERKT_PS3_.exit.i.i598
  call void @_ZNKSt5ctypeIcE13_M_widen_initEv(%"class.std::ctype"* nonnull %81)
  %84 = bitcast %"class.std::ctype"* %81 to i8 (%"class.std::ctype"*, i8)***
  %vtable.i.i.i601 = load i8 (%"class.std::ctype"*, i8)**, i8 (%"class.std::ctype"*, i8)*** %84, align 8, !tbaa !58
  %vfn.i.i.i602 = getelementptr inbounds i8 (%"class.std::ctype"*, i8)*, i8 (%"class.std::ctype"*, i8)** %vtable.i.i.i601, i64 6
  %85 = load i8 (%"class.std::ctype"*, i8)*, i8 (%"class.std::ctype"*, i8)** %vfn.i.i.i602, align 8
  %call.i.i.i603 = call signext i8 %85(%"class.std::ctype"* nonnull %81, i8 signext 10)
  br label %_ZSt4endlIcSt11char_traitsIcEERSt13basic_ostreamIT_T0_ES6_.exit608

_ZSt4endlIcSt11char_traitsIcEERSt13basic_ostreamIT_T0_ES6_.exit608: ; preds = %if.then.i4.i.i600, %if.end.i.i.i604
  %retval.0.i.i.i605 = phi i8 [ %83, %if.then.i4.i.i600 ], [ %call.i.i.i603, %if.end.i.i.i604 ]
  %call1.i606 = call dereferenceable(272) %"class.std::basic_ostream"* @_ZNSo3putEc(%"class.std::basic_ostream"* nonnull %call226, i8 signext %retval.0.i.i.i605)
  %call.i.i607 = call dereferenceable(272) %"class.std::basic_ostream"* @_ZNSo5flushEv(%"class.std::basic_ostream"* nonnull %call1.i606)
  br label %if.end

lpad198:                                          ; preds = %sync.continue169.2
  %86 = landingpad { i8*, i32 }
          cleanup
  %87 = extractvalue { i8*, i32 } %86, 0
  %88 = extractvalue { i8*, i32 } %86, 1
  br label %ehcleanup326

lpad200:                                          ; preds = %_ZN5timer10reportNextEv.exit.i, %call2.i.i.noexc, %call5.i.i.i9.i.noexc
  %89 = landingpad { i8*, i32 }
          cleanup
  %90 = extractvalue { i8*, i32 } %89, 0
  %91 = extractvalue { i8*, i32 } %89, 1
  %92 = load i8*, i8** %_M_p.i18.i.i.i.i, align 8, !tbaa !49
  %cmp.i.i.i611 = icmp eq i8* %92, %184
  br i1 %cmp.i.i.i611, label %ehcleanup326, label %if.then.i.i612

if.then.i.i612:                                   ; preds = %lpad200
  call void @_ZdlPv(i8* %92) #2
  br label %ehcleanup326

lpad217:                                          ; preds = %_ZN5timer10reportNextEv.exit.i571, %call2.i.i.noexc572, %_ZN5utilsL6log2UpIiEEiT_.exit
  %93 = landingpad { i8*, i32 }
          cleanup
  %94 = extractvalue { i8*, i32 } %93, 0
  %95 = extractvalue { i8*, i32 } %93, 1
  %96 = load i8*, i8** %_M_p.i.i.i.i557, align 8, !tbaa !49
  %cmp.i.i.i616 = icmp eq i8* %96, %65
  br i1 %cmp.i.i.i616, label %ehcleanup326, label %if.then.i.i617

if.then.i.i617:                                   ; preds = %lpad217
  call void @_ZdlPv(i8* %96) #2
  br label %ehcleanup326

if.end:                                           ; preds = %_ZNSt7__cxx1112basic_stringIcSt11char_traitsIcESaIcEED2Ev.exit581, %_ZSt4endlIcSt11char_traitsIcEERSt13basic_ostreamIT_T0_ES6_.exit608
  %97 = load i8*, i8** %11, align 16, !tbaa !17
  call void @free(i8* %97) #2
  %98 = load i8*, i8** %12, align 8, !tbaa !17
  call void @free(i8* %98) #2
  %99 = load i8*, i8** %13, align 16, !tbaa !17
  call void @free(i8* %99) #2
  %conv238 = sext i32 %numRays to i64
  %mul239 = shl nsw i64 %conv238, 2
  %call240 = call noalias i8* @malloc(i64 %mul239) #2
  %100 = bitcast i8* %call240 to i32*
  %101 = bitcast %struct.triangles* %Tri to i8*
  %102 = bitcast %struct.triangles* %agg.tmp241619 to i8*
  call void @llvm.lifetime.start.p0i8(i64 24, i8* nonnull %102)
  call void @llvm.memcpy.p0i8.p0i8.i64(i8* nonnull %102, i8* nonnull %101, i64 24, i32 8, i1 false)
  %cmp26.i = icmp sgt i32 %numRays, 0
  br i1 %cmp26.i, label %pfor.detach.i.preheader, label %_Z11processRays9trianglesI8_point3dIdEEP3rayIS1_EiP8treeNodePi.exit

pfor.detach.i.preheader:                          ; preds = %if.end
  %103 = getelementptr inbounds { %struct.ray*, %struct.treeNode*, %struct.triangles*, i32* }, { %struct.ray*, %struct.treeNode*, %struct.triangles*, i32* }* %1, i64 0, i32 0
  store %struct.ray* %rays, %struct.ray** %103, align 8
  %104 = getelementptr inbounds { %struct.ray*, %struct.treeNode*, %struct.triangles*, i32* }, { %struct.ray*, %struct.treeNode*, %struct.triangles*, i32* }* %1, i64 0, i32 1
  store %struct.treeNode* %call212, %struct.treeNode** %104, align 8
  %105 = getelementptr inbounds { %struct.ray*, %struct.treeNode*, %struct.triangles*, i32* }, { %struct.ray*, %struct.treeNode*, %struct.triangles*, i32* }* %1, i64 0, i32 2
  store %struct.triangles* %agg.tmp241619, %struct.triangles** %105, align 8
  %106 = getelementptr inbounds { %struct.ray*, %struct.treeNode*, %struct.triangles*, i32* }, { %struct.ray*, %struct.treeNode*, %struct.triangles*, i32* }* %1, i64 0, i32 3
  %107 = bitcast i32** %106 to i8**
  store i8* %call240, i8** %107, align 8
  %108 = bitcast { %struct.ray*, %struct.treeNode*, %struct.triangles*, i32* }* %1 to i8*
  call fastcc void @__cilkrts_cilk_for_64(void (i8*, i64, i64)* bitcast (void ({ %struct.ray*, %struct.treeNode*, %struct.triangles*, i32* }*, i64, i64)* @_Z7rayCast9trianglesI8_point3dIdEEP3rayIS1_Ei_pfor.detach.i.ls to void (i8*, i64, i64)*), i8* nonnull %108, i64 %conv238, i32 0)
  br label %_Z11processRays9trianglesI8_point3dIdEEP3rayIS1_EiP8treeNodePi.exit

_Z11processRays9trianglesI8_point3dIdEEP3rayIS1_EiP8treeNodePi.exit: ; preds = %pfor.detach.i.preheader, %if.end
  call void @llvm.lifetime.end.p0i8(i64 24, i8* nonnull %102)
  %109 = getelementptr inbounds %"class.std::__cxx11::basic_string", %"class.std::__cxx11::basic_string"* %agg.tmp242, i64 0, i32 2
  %110 = bitcast %"class.std::__cxx11::basic_string"* %agg.tmp242 to %union.anon**
  store %union.anon* %109, %union.anon** %110, align 8, !tbaa !57
  %111 = bitcast %union.anon* %109 to i8*
  call void @llvm.memcpy.p0i8.p0i8.i64(i8* nonnull %111, i8* nonnull getelementptr inbounds ([15 x i8], [15 x i8]* @.str.8, i64 0, i64 0), i64 14, i32 1, i1 false) #2
  %_M_string_length.i.i.i.i.i.i634 = getelementptr inbounds %"class.std::__cxx11::basic_string", %"class.std::__cxx11::basic_string"* %agg.tmp242, i64 0, i32 1
  store i64 14, i64* %_M_string_length.i.i.i.i.i.i634, align 8, !tbaa !54
  %112 = getelementptr inbounds %"class.std::__cxx11::basic_string", %"class.std::__cxx11::basic_string"* %agg.tmp242, i64 0, i32 2, i32 1, i64 6
  store i8 0, i8* %112, align 2, !tbaa !53
  %_M_p.i.i.i.i640 = getelementptr inbounds %"class.std::__cxx11::basic_string", %"class.std::__cxx11::basic_string"* %agg.tmp242, i64 0, i32 0, i32 0
  %call2.i.i656 = invoke dereferenceable(272) %"class.std::basic_ostream"* @_ZSt16__ostream_insertIcSt11char_traitsIcEERSt13basic_ostreamIT_T0_ES6_PKS3_l(%"class.std::basic_ostream"* nonnull dereferenceable(272) @_ZSt4cout, i8* nonnull %111, i64 14)
          to label %call2.i.i.noexc655 unwind label %lpad246

call2.i.i.noexc655:                               ; preds = %_Z11processRays9trianglesI8_point3dIdEEP3rayIS1_EiP8treeNodePi.exit
  %call1.i.i658 = invoke dereferenceable(272) %"class.std::basic_ostream"* @_ZSt16__ostream_insertIcSt11char_traitsIcEERSt13basic_ostreamIT_T0_ES6_PKS3_l(%"class.std::basic_ostream"* nonnull dereferenceable(272) %call2.i.i656, i8* nonnull getelementptr inbounds ([4 x i8], [4 x i8]* @.str.13, i64 0, i64 0), i64 3)
          to label %call1.i.i.noexc657 unwind label %lpad246

call1.i.i.noexc657:                               ; preds = %call2.i.i.noexc655
  %113 = load i8, i8* getelementptr inbounds (%struct.timer, %struct.timer* @_ZL3_tm, i64 0, i32 3), align 8, !tbaa !39, !range !55
  %tobool.i.i.i642 = icmp eq i8 %113, 0
  br i1 %tobool.i.i.i642, label %_ZN5timer10reportNextEv.exit.i654, label %if.end.i.i.i652

if.end.i.i.i652:                                  ; preds = %call1.i.i.noexc657
  %114 = bitcast %struct.timeval* %now.i.i.i.i639 to i8*
  call void @llvm.lifetime.start.p0i8(i64 16, i8* nonnull %114) #2
  %call.i.i.i.i643 = call i32 @gettimeofday(%struct.timeval* nonnull %now.i.i.i.i639, %struct.timezone* nonnull getelementptr inbounds (%struct.timer, %struct.timer* @_ZL3_tm, i64 0, i32 5)) #2
  %tv_sec.i.i.i.i644 = getelementptr inbounds %struct.timeval, %struct.timeval* %now.i.i.i.i639, i64 0, i32 0
  %115 = load i64, i64* %tv_sec.i.i.i.i644, align 8, !tbaa !43
  %conv.i.i.i.i645 = sitofp i64 %115 to double
  %tv_usec.i.i.i.i646 = getelementptr inbounds %struct.timeval, %struct.timeval* %now.i.i.i.i639, i64 0, i32 1
  %116 = load i64, i64* %tv_usec.i.i.i.i646, align 8, !tbaa !46
  %conv2.i.i.i.i647 = sitofp i64 %116 to double
  %div.i.i.i.i648 = fdiv double %conv2.i.i.i.i647, 1.000000e+06
  %add.i.i.i.i649 = fadd double %div.i.i.i.i648, %conv.i.i.i.i645
  call void @llvm.lifetime.end.p0i8(i64 16, i8* nonnull %114) #2
  %117 = load double, double* getelementptr inbounds (%struct.timer, %struct.timer* @_ZL3_tm, i64 0, i32 1), align 8, !tbaa !47
  %sub.i.i.i650 = fsub double %add.i.i.i.i649, %117
  %118 = load double, double* getelementptr inbounds (%struct.timer, %struct.timer* @_ZL3_tm, i64 0, i32 0), align 8, !tbaa !56
  %add.i.i.i651 = fadd double %118, %sub.i.i.i650
  store double %add.i.i.i651, double* getelementptr inbounds (%struct.timer, %struct.timer* @_ZL3_tm, i64 0, i32 0), align 8, !tbaa !56
  store double %add.i.i.i.i649, double* getelementptr inbounds (%struct.timer, %struct.timer* @_ZL3_tm, i64 0, i32 1), align 8, !tbaa !47
  br label %_ZN5timer10reportNextEv.exit.i654

_ZN5timer10reportNextEv.exit.i654:                ; preds = %if.end.i.i.i652, %call1.i.i.noexc657
  %retval.0.i.i.i653 = phi double [ %sub.i.i.i650, %if.end.i.i.i652 ], [ 0.000000e+00, %call1.i.i.noexc657 ]
  invoke void @_ZN5timer7reportTEd(%struct.timer* nonnull @_ZL3_tm, double %retval.0.i.i.i653)
          to label %invoke.cont247 unwind label %lpad246

invoke.cont247:                                   ; preds = %_ZN5timer10reportNextEv.exit.i654
  %119 = load i8*, i8** %_M_p.i.i.i.i640, align 8, !tbaa !49
  %cmp.i.i.i662 = icmp eq i8* %119, %111
  br i1 %cmp.i.i.i662, label %_ZNSt7__cxx1112basic_stringIcSt11char_traitsIcESaIcEED2Ev.exit665, label %if.then.i.i663

if.then.i.i663:                                   ; preds = %invoke.cont247
  call void @_ZdlPv(i8* %119) #2
  br label %_ZNSt7__cxx1112basic_stringIcSt11char_traitsIcESaIcEED2Ev.exit665

_ZNSt7__cxx1112basic_stringIcSt11char_traitsIcESaIcEED2Ev.exit665: ; preds = %invoke.cont247, %if.then.i.i663
  call void @_ZN8treeNode3delEPS_(%struct.treeNode* nonnull %call212)
  %120 = getelementptr inbounds %"class.std::__cxx11::basic_string", %"class.std::__cxx11::basic_string"* %agg.tmp251, i64 0, i32 2
  %121 = bitcast %"class.std::__cxx11::basic_string"* %agg.tmp251 to %union.anon**
  store %union.anon* %120, %union.anon** %121, align 8, !tbaa !57
  %122 = bitcast %union.anon* %120 to i8*
  call void @llvm.memcpy.p0i8.p0i8.i64(i8* nonnull %122, i8* nonnull getelementptr inbounds ([12 x i8], [12 x i8]* @.str.9, i64 0, i64 0), i64 11, i32 1, i1 false) #2
  %_M_string_length.i.i.i.i.i.i678 = getelementptr inbounds %"class.std::__cxx11::basic_string", %"class.std::__cxx11::basic_string"* %agg.tmp251, i64 0, i32 1
  store i64 11, i64* %_M_string_length.i.i.i.i.i.i678, align 8, !tbaa !54
  %123 = getelementptr inbounds %"class.std::__cxx11::basic_string", %"class.std::__cxx11::basic_string"* %agg.tmp251, i64 0, i32 2, i32 1, i64 3
  store i8 0, i8* %123, align 1, !tbaa !53
  %_M_p.i.i.i.i684 = getelementptr inbounds %"class.std::__cxx11::basic_string", %"class.std::__cxx11::basic_string"* %agg.tmp251, i64 0, i32 0, i32 0
  %call2.i.i700 = invoke dereferenceable(272) %"class.std::basic_ostream"* @_ZSt16__ostream_insertIcSt11char_traitsIcEERSt13basic_ostreamIT_T0_ES6_PKS3_l(%"class.std::basic_ostream"* nonnull dereferenceable(272) @_ZSt4cout, i8* nonnull %122, i64 11)
          to label %call2.i.i.noexc699 unwind label %lpad255

call2.i.i.noexc699:                               ; preds = %_ZNSt7__cxx1112basic_stringIcSt11char_traitsIcESaIcEED2Ev.exit665
  %call1.i.i702 = invoke dereferenceable(272) %"class.std::basic_ostream"* @_ZSt16__ostream_insertIcSt11char_traitsIcEERSt13basic_ostreamIT_T0_ES6_PKS3_l(%"class.std::basic_ostream"* nonnull dereferenceable(272) %call2.i.i700, i8* nonnull getelementptr inbounds ([4 x i8], [4 x i8]* @.str.13, i64 0, i64 0), i64 3)
          to label %call1.i.i.noexc701 unwind label %lpad255

call1.i.i.noexc701:                               ; preds = %call2.i.i.noexc699
  %124 = load i8, i8* getelementptr inbounds (%struct.timer, %struct.timer* @_ZL3_tm, i64 0, i32 3), align 8, !tbaa !39, !range !55
  %tobool.i.i.i686 = icmp eq i8 %124, 0
  br i1 %tobool.i.i.i686, label %_ZN5timer10reportNextEv.exit.i698, label %if.end.i.i.i696

if.end.i.i.i696:                                  ; preds = %call1.i.i.noexc701
  %125 = bitcast %struct.timeval* %now.i.i.i.i683 to i8*
  call void @llvm.lifetime.start.p0i8(i64 16, i8* nonnull %125) #2
  %call.i.i.i.i687 = call i32 @gettimeofday(%struct.timeval* nonnull %now.i.i.i.i683, %struct.timezone* nonnull getelementptr inbounds (%struct.timer, %struct.timer* @_ZL3_tm, i64 0, i32 5)) #2
  %tv_sec.i.i.i.i688 = getelementptr inbounds %struct.timeval, %struct.timeval* %now.i.i.i.i683, i64 0, i32 0
  %126 = load i64, i64* %tv_sec.i.i.i.i688, align 8, !tbaa !43
  %conv.i.i.i.i689 = sitofp i64 %126 to double
  %tv_usec.i.i.i.i690 = getelementptr inbounds %struct.timeval, %struct.timeval* %now.i.i.i.i683, i64 0, i32 1
  %127 = load i64, i64* %tv_usec.i.i.i.i690, align 8, !tbaa !46
  %conv2.i.i.i.i691 = sitofp i64 %127 to double
  %div.i.i.i.i692 = fdiv double %conv2.i.i.i.i691, 1.000000e+06
  %add.i.i.i.i693 = fadd double %div.i.i.i.i692, %conv.i.i.i.i689
  call void @llvm.lifetime.end.p0i8(i64 16, i8* nonnull %125) #2
  %128 = load double, double* getelementptr inbounds (%struct.timer, %struct.timer* @_ZL3_tm, i64 0, i32 1), align 8, !tbaa !47
  %sub.i.i.i694 = fsub double %add.i.i.i.i693, %128
  %129 = load double, double* getelementptr inbounds (%struct.timer, %struct.timer* @_ZL3_tm, i64 0, i32 0), align 8, !tbaa !56
  %add.i.i.i695 = fadd double %129, %sub.i.i.i694
  store double %add.i.i.i695, double* getelementptr inbounds (%struct.timer, %struct.timer* @_ZL3_tm, i64 0, i32 0), align 8, !tbaa !56
  store double %add.i.i.i.i693, double* getelementptr inbounds (%struct.timer, %struct.timer* @_ZL3_tm, i64 0, i32 1), align 8, !tbaa !47
  br label %_ZN5timer10reportNextEv.exit.i698

_ZN5timer10reportNextEv.exit.i698:                ; preds = %if.end.i.i.i696, %call1.i.i.noexc701
  %retval.0.i.i.i697 = phi double [ %sub.i.i.i694, %if.end.i.i.i696 ], [ 0.000000e+00, %call1.i.i.noexc701 ]
  invoke void @_ZN5timer7reportTEd(%struct.timer* nonnull @_ZL3_tm, double %retval.0.i.i.i697)
          to label %invoke.cont256 unwind label %lpad255

invoke.cont256:                                   ; preds = %_ZN5timer10reportNextEv.exit.i698
  %130 = load i8*, i8** %_M_p.i.i.i.i684, align 8, !tbaa !49
  %cmp.i.i.i536 = icmp eq i8* %130, %122
  br i1 %cmp.i.i.i536, label %_ZNSt7__cxx1112basic_stringIcSt11char_traitsIcESaIcEED2Ev.exit538, label %if.then.i.i537

if.then.i.i537:                                   ; preds = %invoke.cont256
  call void @_ZdlPv(i8* %130) #2
  br label %_ZNSt7__cxx1112basic_stringIcSt11char_traitsIcESaIcEED2Ev.exit538

_ZNSt7__cxx1112basic_stringIcSt11char_traitsIcESaIcEED2Ev.exit538: ; preds = %invoke.cont256, %if.then.i.i537
  %131 = load i32, i32* @CHECK, align 4, !tbaa !12
  %tobool260 = icmp eq i32 %131, 0
  br i1 %tobool260, label %if.end314, label %if.then261

if.then261:                                       ; preds = %_ZNSt7__cxx1112basic_stringIcSt11char_traitsIcESaIcEED2Ev.exit538
  %mul263 = shl nsw i64 %conv, 2
  %call264 = call noalias i8* @malloc(i64 %mul263) #2
  %132 = bitcast i8* %call264 to i32*
  br i1 %cmp3811, label %pfor.cond.cleanup275.loopexit, label %for.body293.preheader

pfor.cond.cleanup275.loopexit:                    ; preds = %if.then261
  %wide.trip.count = zext i32 %10 to i64
  %133 = bitcast { i32* }* %0 to i8**
  store i8* %call264, i8** %133, align 8
  %134 = bitcast { i32* }* %0 to i8*
  call fastcc void @__cilkrts_cilk_for_64(void (i8*, i64, i64)* bitcast (void ({ i32* }*, i64, i64)* @_Z7rayCast9trianglesI8_point3dIdEEP3rayIS1_Ei_pfor.detach276.ls to void (i8*, i64, i64)*), i8* nonnull %134, i64 %wide.trip.count, i32 0)
  br label %for.body293.preheader

for.body293.preheader:                            ; preds = %if.then261, %pfor.cond.cleanup275.loopexit
  br label %for.body293

lpad246:                                          ; preds = %_ZN5timer10reportNextEv.exit.i654, %call2.i.i.noexc655, %_Z11processRays9trianglesI8_point3dIdEEP3rayIS1_EiP8treeNodePi.exit
  %135 = landingpad { i8*, i32 }
          cleanup
  %136 = extractvalue { i8*, i32 } %135, 0
  %137 = extractvalue { i8*, i32 } %135, 1
  %138 = load i8*, i8** %_M_p.i.i.i.i640, align 8, !tbaa !49
  %cmp.i.i.i517 = icmp eq i8* %138, %111
  br i1 %cmp.i.i.i517, label %ehcleanup326, label %if.then.i.i518

if.then.i.i518:                                   ; preds = %lpad246
  call void @_ZdlPv(i8* %138) #2
  br label %ehcleanup326

lpad255:                                          ; preds = %_ZN5timer10reportNextEv.exit.i698, %call2.i.i.noexc699, %_ZNSt7__cxx1112basic_stringIcSt11char_traitsIcESaIcEED2Ev.exit665
  %139 = landingpad { i8*, i32 }
          cleanup
  %140 = extractvalue { i8*, i32 } %139, 0
  %141 = extractvalue { i8*, i32 } %139, 1
  %142 = load i8*, i8** %_M_p.i.i.i.i684, align 8, !tbaa !49
  %cmp.i.i.i = icmp eq i8* %142, %122
  br i1 %cmp.i.i.i, label %ehcleanup326, label %if.then.i.i

if.then.i.i:                                      ; preds = %lpad255
  call void @_ZdlPv(i8* %142) #2
  br label %ehcleanup326

for.cond290:                                      ; preds = %_ZSt4endlIcSt11char_traitsIcEERSt13basic_ostreamIT_T0_ES6_.exit496
  %cmp291 = icmp ult i64 %indvars.iv.next, 10
  br i1 %cmp291, label %for.body293, label %if.end314

for.body293:                                      ; preds = %for.body293.preheader, %for.cond290
  %indvars.iv = phi i64 [ %indvars.iv.next, %for.cond290 ], [ 0, %for.body293.preheader ]
  %arrayidx295 = getelementptr inbounds i32, i32* %100, i64 %indvars.iv
  %143 = load i32, i32* %arrayidx295, align 4, !tbaa !12
  %call296 = call dereferenceable(272) %"class.std::basic_ostream"* @_ZNSolsEi(%"class.std::basic_ostream"* nonnull @_ZSt4cout, i32 %143)
  %144 = bitcast %"class.std::basic_ostream"* %call296 to i8**
  %vtable.i477 = load i8*, i8** %144, align 8, !tbaa !58
  %vbase.offset.ptr.i478 = getelementptr i8, i8* %vtable.i477, i64 -24
  %145 = bitcast i8* %vbase.offset.ptr.i478 to i64*
  %vbase.offset.i479 = load i64, i64* %145, align 8
  %146 = bitcast %"class.std::basic_ostream"* %call296 to i8*
  %add.ptr.i480 = getelementptr inbounds i8, i8* %146, i64 %vbase.offset.i479
  %_M_ctype.i.i481 = getelementptr inbounds i8, i8* %add.ptr.i480, i64 240
  %147 = bitcast i8* %_M_ctype.i.i481 to %"class.std::ctype"**
  %148 = load %"class.std::ctype"*, %"class.std::ctype"** %147, align 8, !tbaa !60
  %tobool.i.i.i482 = icmp eq %"class.std::ctype"* %148, null
  br i1 %tobool.i.i.i482, label %if.then.i.i.i483, label %_ZSt13__check_facetISt5ctypeIcEERKT_PS3_.exit.i.i486

if.then.i.i.i483:                                 ; preds = %for.body293
  call void @_ZSt16__throw_bad_castv() #22
  unreachable

_ZSt13__check_facetISt5ctypeIcEERKT_PS3_.exit.i.i486: ; preds = %for.body293
  %_M_widen_ok.i.i.i484 = getelementptr inbounds %"class.std::ctype", %"class.std::ctype"* %148, i64 0, i32 8
  %149 = load i8, i8* %_M_widen_ok.i.i.i484, align 8, !tbaa !62
  %tobool.i3.i.i485 = icmp eq i8 %149, 0
  br i1 %tobool.i3.i.i485, label %if.end.i.i.i492, label %if.then.i4.i.i488

if.then.i4.i.i488:                                ; preds = %_ZSt13__check_facetISt5ctypeIcEERKT_PS3_.exit.i.i486
  %arrayidx.i.i.i487 = getelementptr inbounds %"class.std::ctype", %"class.std::ctype"* %148, i64 0, i32 9, i64 10
  %150 = load i8, i8* %arrayidx.i.i.i487, align 1, !tbaa !53
  br label %_ZSt4endlIcSt11char_traitsIcEERSt13basic_ostreamIT_T0_ES6_.exit496

if.end.i.i.i492:                                  ; preds = %_ZSt13__check_facetISt5ctypeIcEERKT_PS3_.exit.i.i486
  call void @_ZNKSt5ctypeIcE13_M_widen_initEv(%"class.std::ctype"* nonnull %148)
  %151 = bitcast %"class.std::ctype"* %148 to i8 (%"class.std::ctype"*, i8)***
  %vtable.i.i.i489 = load i8 (%"class.std::ctype"*, i8)**, i8 (%"class.std::ctype"*, i8)*** %151, align 8, !tbaa !58
  %vfn.i.i.i490 = getelementptr inbounds i8 (%"class.std::ctype"*, i8)*, i8 (%"class.std::ctype"*, i8)** %vtable.i.i.i489, i64 6
  %152 = load i8 (%"class.std::ctype"*, i8)*, i8 (%"class.std::ctype"*, i8)** %vfn.i.i.i490, align 8
  %call.i.i.i491 = call signext i8 %152(%"class.std::ctype"* nonnull %148, i8 signext 10)
  br label %_ZSt4endlIcSt11char_traitsIcEERSt13basic_ostreamIT_T0_ES6_.exit496

_ZSt4endlIcSt11char_traitsIcEERSt13basic_ostreamIT_T0_ES6_.exit496: ; preds = %if.then.i4.i.i488, %if.end.i.i.i492
  %retval.0.i.i.i493 = phi i8 [ %150, %if.then.i4.i.i488 ], [ %call.i.i.i491, %if.end.i.i.i492 ]
  %call1.i494 = call dereferenceable(272) %"class.std::basic_ostream"* @_ZNSo3putEc(%"class.std::basic_ostream"* nonnull %call296, i8 signext %retval.0.i.i.i493)
  %call.i.i495 = call dereferenceable(272) %"class.std::basic_ostream"* @_ZNSo5flushEv(%"class.std::basic_ostream"* nonnull %call1.i494)
  %arrayidx300 = getelementptr inbounds %struct.ray, %struct.ray* %rays, i64 %indvars.iv
  %call303 = call i32 @_Z7findRay3rayI8_point3dIdEEPii9trianglesIS1_EP5range(%struct.ray* byval nonnull align 8 %arrayidx300, i32* %132, i32 %10, %struct.triangles* byval nonnull align 8 %Tri, %struct.range* nonnull %array.begin)
  %cmp306 = icmp eq i32 %call303, %143
  %indvars.iv.next = add nuw nsw i64 %indvars.iv, 1
  br i1 %cmp306, label %for.cond290, label %if.then307

if.then307:                                       ; preds = %_ZSt4endlIcSt11char_traitsIcEERSt13basic_ostreamIT_T0_ES6_.exit496
  %call308 = call dereferenceable(272) %"class.std::basic_ostream"* @_ZStlsISt11char_traitsIcEERSt13basic_ostreamIcT_ES5_PKc(%"class.std::basic_ostream"* nonnull dereferenceable(272) @_ZSt4cout, i8* getelementptr inbounds ([43 x i8], [43 x i8]* @.str.10, i64 0, i64 0))
  %call.i = call dereferenceable(272) %"class.std::basic_ostream"* @_ZSt4endlIcSt11char_traitsIcEERSt13basic_ostreamIT_T0_ES6_(%"class.std::basic_ostream"* nonnull dereferenceable(272) %call308)
  call void @abort() #23
  unreachable

if.end314:                                        ; preds = %for.cond290, %_ZNSt7__cxx1112basic_stringIcSt11char_traitsIcESaIcEED2Ev.exit538
  %153 = load i32, i32* @STATS, align 4, !tbaa !12
  %tobool315 = icmp eq i32 %153, 0
  br i1 %tobool315, label %if.end322, label %if.then316

if.then316:                                       ; preds = %if.end314
  %call1.i456 = call dereferenceable(272) %"class.std::basic_ostream"* @_ZSt16__ostream_insertIcSt11char_traitsIcEERSt13basic_ostreamIT_T0_ES6_PKS3_l(%"class.std::basic_ostream"* nonnull dereferenceable(272) @_ZSt4cout, i8* nonnull getelementptr inbounds ([8 x i8], [8 x i8]* @.str.11, i64 0, i64 0), i64 7)
  %154 = load i32, i32* @tcount, align 4, !tbaa !12
  %call318 = call dereferenceable(272) %"class.std::basic_ostream"* @_ZNSolsEi(%"class.std::basic_ostream"* nonnull @_ZSt4cout, i32 %154)
  %call1.i449 = call dereferenceable(272) %"class.std::basic_ostream"* @_ZSt16__ostream_insertIcSt11char_traitsIcEERSt13basic_ostreamIT_T0_ES6_PKS3_l(%"class.std::basic_ostream"* nonnull dereferenceable(272) %call318, i8* nonnull getelementptr inbounds ([9 x i8], [9 x i8]* @.str.12, i64 0, i64 0), i64 8)
  %155 = load i32, i32* @ccount, align 4, !tbaa !12
  %call320 = call dereferenceable(272) %"class.std::basic_ostream"* @_ZNSolsEi(%"class.std::basic_ostream"* nonnull %call318, i32 %155)
  %156 = bitcast %"class.std::basic_ostream"* %call320 to i8**
  %vtable.i = load i8*, i8** %156, align 8, !tbaa !58
  %vbase.offset.ptr.i = getelementptr i8, i8* %vtable.i, i64 -24
  %157 = bitcast i8* %vbase.offset.ptr.i to i64*
  %vbase.offset.i = load i64, i64* %157, align 8
  %158 = bitcast %"class.std::basic_ostream"* %call320 to i8*
  %add.ptr.i = getelementptr inbounds i8, i8* %158, i64 %vbase.offset.i
  %_M_ctype.i.i = getelementptr inbounds i8, i8* %add.ptr.i, i64 240
  %159 = bitcast i8* %_M_ctype.i.i to %"class.std::ctype"**
  %160 = load %"class.std::ctype"*, %"class.std::ctype"** %159, align 8, !tbaa !60
  %tobool.i.i.i = icmp eq %"class.std::ctype"* %160, null
  br i1 %tobool.i.i.i, label %if.then.i.i.i, label %_ZSt13__check_facetISt5ctypeIcEERKT_PS3_.exit.i.i

if.then.i.i.i:                                    ; preds = %if.then316
  call void @_ZSt16__throw_bad_castv() #22
  unreachable

_ZSt13__check_facetISt5ctypeIcEERKT_PS3_.exit.i.i: ; preds = %if.then316
  %_M_widen_ok.i.i.i = getelementptr inbounds %"class.std::ctype", %"class.std::ctype"* %160, i64 0, i32 8
  %161 = load i8, i8* %_M_widen_ok.i.i.i, align 8, !tbaa !62
  %tobool.i3.i.i = icmp eq i8 %161, 0
  br i1 %tobool.i3.i.i, label %if.end.i.i.i, label %if.then.i4.i.i

if.then.i4.i.i:                                   ; preds = %_ZSt13__check_facetISt5ctypeIcEERKT_PS3_.exit.i.i
  %arrayidx.i.i.i = getelementptr inbounds %"class.std::ctype", %"class.std::ctype"* %160, i64 0, i32 9, i64 10
  %162 = load i8, i8* %arrayidx.i.i.i, align 1, !tbaa !53
  br label %_ZSt4endlIcSt11char_traitsIcEERSt13basic_ostreamIT_T0_ES6_.exit

if.end.i.i.i:                                     ; preds = %_ZSt13__check_facetISt5ctypeIcEERKT_PS3_.exit.i.i
  call void @_ZNKSt5ctypeIcE13_M_widen_initEv(%"class.std::ctype"* nonnull %160)
  %163 = bitcast %"class.std::ctype"* %160 to i8 (%"class.std::ctype"*, i8)***
  %vtable.i.i.i = load i8 (%"class.std::ctype"*, i8)**, i8 (%"class.std::ctype"*, i8)*** %163, align 8, !tbaa !58
  %vfn.i.i.i = getelementptr inbounds i8 (%"class.std::ctype"*, i8)*, i8 (%"class.std::ctype"*, i8)** %vtable.i.i.i, i64 6
  %164 = load i8 (%"class.std::ctype"*, i8)*, i8 (%"class.std::ctype"*, i8)** %vfn.i.i.i, align 8
  %call.i.i.i = call signext i8 %164(%"class.std::ctype"* nonnull %160, i8 signext 10)
  br label %_ZSt4endlIcSt11char_traitsIcEERSt13basic_ostreamIT_T0_ES6_.exit

_ZSt4endlIcSt11char_traitsIcEERSt13basic_ostreamIT_T0_ES6_.exit: ; preds = %if.then.i4.i.i, %if.end.i.i.i
  %retval.0.i.i.i = phi i8 [ %162, %if.then.i4.i.i ], [ %call.i.i.i, %if.end.i.i.i ]
  %call1.i = call dereferenceable(272) %"class.std::basic_ostream"* @_ZNSo3putEc(%"class.std::basic_ostream"* nonnull %call320, i8 signext %retval.0.i.i.i)
  %call.i.i438 = call dereferenceable(272) %"class.std::basic_ostream"* @_ZNSo5flushEv(%"class.std::basic_ostream"* nonnull %call1.i)
  br label %if.end322

if.end322:                                        ; preds = %if.end314, %_ZSt4endlIcSt11char_traitsIcEERSt13basic_ostreamIT_T0_ES6_.exit
  call void @llvm.lifetime.end.p0i8(i64 24, i8* nonnull %32) #2
  call void @llvm.lifetime.end.p0i8(i64 24, i8* nonnull %31) #2
  call void @llvm.lifetime.end.p0i8(i64 24, i8* nonnull %9) #2
  ret i32* %100

ehcleanup326:                                     ; preds = %lpad162, %lpad255, %if.then.i.i, %lpad246, %if.then.i.i518, %lpad217, %if.then.i.i617, %lpad198, %lpad200, %if.then.i.i612
  %ehselector.slot94.6 = phi i32 [ %43, %lpad162 ], [ %88, %lpad198 ], [ %91, %lpad200 ], [ %91, %if.then.i.i612 ], [ %95, %lpad217 ], [ %95, %if.then.i.i617 ], [ %137, %lpad246 ], [ %137, %if.then.i.i518 ], [ %141, %lpad255 ], [ %141, %if.then.i.i ]
  %exn.slot93.6 = phi i8* [ %42, %lpad162 ], [ %87, %lpad198 ], [ %90, %lpad200 ], [ %90, %if.then.i.i612 ], [ %94, %lpad217 ], [ %94, %if.then.i.i617 ], [ %136, %lpad246 ], [ %136, %if.then.i.i518 ], [ %140, %lpad255 ], [ %140, %if.then.i.i ]
  call void @llvm.lifetime.end.p0i8(i64 24, i8* nonnull %32) #2
  call void @llvm.lifetime.end.p0i8(i64 24, i8* nonnull %31) #2
  br label %ehcleanup328

ehcleanup328:                                     ; preds = %lpad92, %ehcleanup326
  %ehselector.slot94.7 = phi i32 [ %ehselector.slot94.6, %ehcleanup326 ], [ %30, %lpad92 ]
  %exn.slot93.7 = phi i8* [ %exn.slot93.6, %ehcleanup326 ], [ %29, %lpad92 ]
  call void @llvm.lifetime.end.p0i8(i64 24, i8* nonnull %9) #2
  %lpad.val333 = insertvalue { i8*, i32 } undef, i8* %exn.slot93.7, 0
  %lpad.val334 = insertvalue { i8*, i32 } %lpad.val333, i32 %ehselector.slot94.7, 1
  resume { i8*, i32 } %lpad.val334

sync.continue169.1:                               ; preds = %pfor.detach123.1.preheader.sync.continue169.1_crit_edge, %sync.continue169
  %165 = phi %struct.event* [ %.pre833, %pfor.detach123.1.preheader.sync.continue169.1_crit_edge ], [ %51, %sync.continue169 ]
  call void @_Z10sampleSortI5event6cmpValiEvPT_T1_T0_(%struct.event* %165, i32 %mul106)
  %166 = load %struct.event*, %struct.event** %arrayidx111.1, align 8, !tbaa !17
  %167 = bitcast %struct.event* %166 to i32*
  %168 = load i32, i32* %167, align 4, !tbaa !11
  %v189.1 = getelementptr inbounds %struct.event, %struct.event* %166, i64 %idxprom187, i32 0
  %169 = bitcast float* %v189.1 to i32*
  %170 = load i32, i32* %169, align 4, !tbaa !11
  %arrayidx191.1 = getelementptr inbounds [3 x %struct.range], [3 x %struct.range]* %boundingBox, i64 0, i64 1
  %.sroa_cast793.1 = bitcast %struct.range* %arrayidx191.1 to i32*
  store i32 %168, i32* %.sroa_cast793.1, align 8
  %.sroa_idx794.1 = getelementptr inbounds [3 x %struct.range], [3 x %struct.range]* %boundingBox, i64 0, i64 1, i32 1
  %.sroa_cast795.1 = bitcast float* %.sroa_idx794.1 to i32*
  store i32 %170, i32* %.sroa_cast795.1, align 4
  %call109.2 = call noalias i8* @malloc(i64 %mul108) #2
  %arrayidx111.2 = getelementptr inbounds [3 x %struct.event*], [3 x %struct.event*]* %events, i64 0, i64 2
  %171 = bitcast %struct.event** %arrayidx111.2 to i8**
  store i8* %call109.2, i8** %171, align 16, !tbaa !17
  %172 = bitcast i8* %call109.2 to %struct.event*
  br i1 %cmp3811, label %pfor.detach123.2.preheader, label %sync.continue169.2

pfor.detach123.2.preheader:                       ; preds = %sync.continue169.1
  %173 = getelementptr inbounds { %struct.range**, %struct.event** }, { %struct.range**, %struct.event** }* %2, i64 0, i32 0
  store %struct.range** %arrayidx.2, %struct.range*** %173, align 8
  %174 = getelementptr inbounds { %struct.range**, %struct.event** }, { %struct.range**, %struct.event** }* %2, i64 0, i32 1
  store %struct.event** %arrayidx111.2, %struct.event*** %174, align 8
  %175 = bitcast { %struct.range**, %struct.event** }* %2 to i8*
  invoke fastcc void @__cilkrts_cilk_for_64(void (i8*, i64, i64)* bitcast (void ({ %struct.range**, %struct.event** }*, i64, i64)* @_Z7rayCast9trianglesI8_point3dIdEEP3rayIS1_Ei_pfor.detach123.2.ls to void (i8*, i64, i64)*), i8* nonnull %175, i64 %conv, i32 0)
          to label %pfor.detach123.2.preheader.sync.continue169.2_crit_edge unwind label %lpad162.loopexit.split-lp.loopexit.split-lp

pfor.detach123.2.preheader.sync.continue169.2_crit_edge: ; preds = %pfor.detach123.2.preheader
  %.pre834 = load %struct.event*, %struct.event** %arrayidx111.2, align 16, !tbaa !17
  br label %sync.continue169.2

sync.continue169.2:                               ; preds = %pfor.detach123.2.preheader.sync.continue169.2_crit_edge, %sync.continue169.1
  %176 = phi %struct.event* [ %.pre834, %pfor.detach123.2.preheader.sync.continue169.2_crit_edge ], [ %172, %sync.continue169.1 ]
  call void @_Z10sampleSortI5event6cmpValiEvPT_T1_T0_(%struct.event* %176, i32 %mul106)
  %177 = load %struct.event*, %struct.event** %arrayidx111.2, align 16, !tbaa !17
  %178 = bitcast %struct.event* %177 to i32*
  %179 = load i32, i32* %178, align 4, !tbaa !11
  %v189.2 = getelementptr inbounds %struct.event, %struct.event* %177, i64 %idxprom187, i32 0
  %180 = bitcast float* %v189.2 to i32*
  %181 = load i32, i32* %180, align 4, !tbaa !11
  %arrayidx191.2 = getelementptr inbounds [3 x %struct.range], [3 x %struct.range]* %boundingBox, i64 0, i64 2
  %.sroa_cast793.2 = bitcast %struct.range* %arrayidx191.2 to i32*
  store i32 %179, i32* %.sroa_cast793.2, align 16
  %.sroa_idx794.2 = getelementptr inbounds [3 x %struct.range], [3 x %struct.range]* %boundingBox, i64 0, i64 2, i32 1
  %.sroa_cast795.2 = bitcast float* %.sroa_idx794.2 to i32*
  store i32 %181, i32* %.sroa_cast795.2, align 4
  %182 = getelementptr inbounds %"class.std::__cxx11::basic_string", %"class.std::__cxx11::basic_string"* %agg.tmp196, i64 0, i32 2
  %183 = bitcast %"class.std::__cxx11::basic_string"* %agg.tmp196 to %union.anon**
  store %union.anon* %182, %union.anon** %183, align 8, !tbaa !57
  %184 = bitcast %union.anon* %182 to i8*
  %185 = bitcast i64* %__dnew.i.i.i.i to i8*
  call void @llvm.lifetime.start.p0i8(i64 8, i8* nonnull %185) #2
  store i64 24, i64* %__dnew.i.i.i.i, align 8, !tbaa !52
  %call5.i.i.i9.i510 = invoke i8* @_ZNSt7__cxx1112basic_stringIcSt11char_traitsIcESaIcEE9_M_createERmm(%"class.std::__cxx11::basic_string"* nonnull %agg.tmp196, i64* nonnull dereferenceable(8) %__dnew.i.i.i.i, i64 0)
          to label %call5.i.i.i9.i.noexc unwind label %lpad198
}

; Function Attrs: uwtable
define linkonce_odr void @_Z10sampleSortI5event6cmpValiEvPT_T1_T0_(%struct.event* %A, i32 %n) local_unnamed_addr #6 comdat personality i8* bitcast (i32 (...)* @__gxx_personality_v0 to i8*) {
entry:
  %0 = alloca { i64, i32*, i64, i32, %struct.event*, %struct.event*, %struct.event*, i8* }, align 8
  %1 = alloca { i64, i64, i64, %struct.event*, i64, i32*, i1, i1, i64, %struct.event*, %struct.event* }, align 8
  %2 = alloca { %struct.event*, %struct.event* }, align 8
  %3 = alloca { i64, %struct.event*, %struct.event* }, align 8
  %ref.tmp = alloca %struct.transpose, align 8
  %ref.tmp127 = alloca %struct.blockTrans, align 8
  %cmp = icmp slt i32 %n, 1000
  br i1 %cmp, label %if.then, label %if.else

if.then:                                          ; preds = %entry
  tail call void @_Z9quickSortI5event6cmpValiEvPT_T1_T0_(%struct.event* %A, i32 %n)
  br label %if.end206

if.else:                                          ; preds = %entry
  %conv.i = sitofp i32 %n to double
  %sqrt = tail call double @sqrt(double %conv.i) #1
  %4 = tail call double @llvm.fabs.f64(double %sqrt)
  %5 = tail call double @llvm.ceil.f64(double %4)
  %conv = fptosi double %5 to i64
  %div = sdiv i64 %conv, 2
  %add = add nsw i64 %div, 1
  %sub = add nsw i32 %n, -1
  %conv1 = sext i32 %sub to i64
  %div2 = sdiv i64 %conv1, %add
  %add3 = add nsw i64 %div2, 1
  %conv6 = trunc i64 %add to i32
  %sext = mul i64 %add, 42949672960
  %conv7 = ashr exact i64 %sext, 32
  %mul8 = ashr exact i64 %sext, 29
  %call9 = tail call noalias i8* @malloc(i64 %mul8) #2
  %6 = bitcast i8* %call9 to %struct.event*
  %cmp14383 = icmp sgt i64 %sext, 0
  br i1 %cmp14383, label %pfor.detach.lr.ph, label %sync.continue

pfor.detach.lr.ph:                                ; preds = %if.else
  %conv18 = sext i32 %n to i64
  %7 = icmp sgt i64 %conv7, 1
  %smax = select i1 %7, i64 %conv7, i64 1
  %8 = getelementptr inbounds { i64, %struct.event*, %struct.event* }, { i64, %struct.event*, %struct.event* }* %3, i64 0, i32 0
  store i64 %conv18, i64* %8, align 8
  %9 = getelementptr inbounds { i64, %struct.event*, %struct.event* }, { i64, %struct.event*, %struct.event* }* %3, i64 0, i32 1
  store %struct.event* %A, %struct.event** %9, align 8
  %10 = getelementptr inbounds { i64, %struct.event*, %struct.event* }, { i64, %struct.event*, %struct.event* }* %3, i64 0, i32 2
  %11 = bitcast %struct.event** %10 to i8**
  store i8* %call9, i8** %11, align 8
  %12 = bitcast { i64, %struct.event*, %struct.event* }* %3 to i8*
  call fastcc void @__cilkrts_cilk_for_64(void (i8*, i64, i64)* bitcast (void ({ i64, %struct.event*, %struct.event* }*, i64, i64)* @_Z10sampleSortI5event6cmpValiEvPT_T1_T0__pfor.detach.ls to void (i8*, i64, i64)*), i8* nonnull %12, i64 %smax, i32 0)
  br label %sync.continue

sync.continue:                                    ; preds = %pfor.detach.lr.ph, %if.else
  tail call void @_Z9quickSortI5event6cmpVallEvPT_T1_T0_(%struct.event* %6, i64 %conv7)
  %sub26 = shl i64 %add, 32
  %sext360 = add i64 %sub26, -4294967296
  %conv27 = ashr exact i64 %sext360, 32
  %mul28 = ashr exact i64 %sext360, 29
  %call29 = tail call noalias i8* @malloc(i64 %mul28) #2
  %13 = bitcast i8* %call29 to %struct.event*
  %cmp41381 = icmp sgt i64 %sext360, 0
  br i1 %cmp41381, label %pfor.cond.cleanup42.loopexit, label %sync.continue54

pfor.cond.cleanup42.loopexit:                     ; preds = %sync.continue
  %14 = icmp sgt i64 %conv27, 1
  %smax404 = select i1 %14, i64 %conv27, i64 1
  %15 = bitcast { %struct.event*, %struct.event* }* %2 to i8**
  store i8* %call9, i8** %15, align 8
  %16 = getelementptr inbounds { %struct.event*, %struct.event* }, { %struct.event*, %struct.event* }* %2, i64 0, i32 1
  %17 = bitcast %struct.event** %16 to i8**
  store i8* %call29, i8** %17, align 8
  %18 = bitcast { %struct.event*, %struct.event* }* %2 to i8*
  call fastcc void @__cilkrts_cilk_for_64(void (i8*, i64, i64)* bitcast (void ({ %struct.event*, %struct.event* }*, i64, i64)* @_Z10sampleSortI5event6cmpValiEvPT_T1_T0__pfor.detach43.ls to void (i8*, i64, i64)*), i8* nonnull %18, i64 %smax404, i32 0)
  br label %sync.continue54

sync.continue54:                                  ; preds = %sync.continue, %pfor.cond.cleanup42.loopexit
  tail call void @free(i8* %call9) #2
  %conv56 = ashr exact i64 %sub26, 32
  %mul57 = mul nsw i64 %conv56, %add
  %mul58 = shl i64 %mul57, 2
  %call59 = tail call noalias i8* @malloc(i64 %mul58) #2
  %19 = bitcast i8* %call59 to i32*
  %cmp69379 = icmp slt i64 %conv, -1
  br i1 %cmp69379, label %sync.continue104, label %pfor.detach71.lr.ph

pfor.detach71.lr.ph:                              ; preds = %sync.continue54
  %conv79 = sext i32 %n to i64
  %cmp1.i = icmp eq i64 %sext360, 0
  %add.ptr2.i = getelementptr inbounds %struct.event, %struct.event* %13, i64 %conv27
  %cmp396.i = icmp slt i64 %sext360, 0
  %20 = ashr exact i64 %sext360, 30
  %21 = add nsw i64 %20, 4
  %22 = getelementptr inbounds { i64, i64, i64, %struct.event*, i64, i32*, i1, i1, i64, %struct.event*, %struct.event* }, { i64, i64, i64, %struct.event*, i64, i32*, i1, i1, i64, %struct.event*, %struct.event* }* %1, i64 0, i32 0
  store i64 %add3, i64* %22, align 8
  %23 = getelementptr inbounds { i64, i64, i64, %struct.event*, i64, i32*, i1, i1, i64, %struct.event*, %struct.event* }, { i64, i64, i64, %struct.event*, i64, i32*, i1, i1, i64, %struct.event*, %struct.event* }* %1, i64 0, i32 1
  store i64 %div, i64* %23, align 8
  %24 = getelementptr inbounds { i64, i64, i64, %struct.event*, i64, i32*, i1, i1, i64, %struct.event*, %struct.event* }, { i64, i64, i64, %struct.event*, i64, i32*, i1, i1, i64, %struct.event*, %struct.event* }* %1, i64 0, i32 2
  store i64 %conv79, i64* %24, align 8
  %25 = getelementptr inbounds { i64, i64, i64, %struct.event*, i64, i32*, i1, i1, i64, %struct.event*, %struct.event* }, { i64, i64, i64, %struct.event*, i64, i32*, i1, i1, i64, %struct.event*, %struct.event* }* %1, i64 0, i32 3
  store %struct.event* %A, %struct.event** %25, align 8
  %26 = getelementptr inbounds { i64, i64, i64, %struct.event*, i64, i32*, i1, i1, i64, %struct.event*, %struct.event* }, { i64, i64, i64, %struct.event*, i64, i32*, i1, i1, i64, %struct.event*, %struct.event* }* %1, i64 0, i32 4
  store i64 %conv56, i64* %26, align 8
  %27 = getelementptr inbounds { i64, i64, i64, %struct.event*, i64, i32*, i1, i1, i64, %struct.event*, %struct.event* }, { i64, i64, i64, %struct.event*, i64, i32*, i1, i1, i64, %struct.event*, %struct.event* }* %1, i64 0, i32 5
  %28 = bitcast i32** %27 to i8**
  store i8* %call59, i8** %28, align 8
  %29 = getelementptr inbounds { i64, i64, i64, %struct.event*, i64, i32*, i1, i1, i64, %struct.event*, %struct.event* }, { i64, i64, i64, %struct.event*, i64, i32*, i1, i1, i64, %struct.event*, %struct.event* }* %1, i64 0, i32 6
  store i1 %cmp1.i, i1* %29, align 8
  %30 = getelementptr inbounds { i64, i64, i64, %struct.event*, i64, i32*, i1, i1, i64, %struct.event*, %struct.event* }, { i64, i64, i64, %struct.event*, i64, i32*, i1, i1, i64, %struct.event*, %struct.event* }* %1, i64 0, i32 7
  store i1 %cmp396.i, i1* %30, align 1
  %31 = getelementptr inbounds { i64, i64, i64, %struct.event*, i64, i32*, i1, i1, i64, %struct.event*, %struct.event* }, { i64, i64, i64, %struct.event*, i64, i32*, i1, i1, i64, %struct.event*, %struct.event* }* %1, i64 0, i32 8
  store i64 %21, i64* %31, align 8
  %32 = getelementptr inbounds { i64, i64, i64, %struct.event*, i64, i32*, i1, i1, i64, %struct.event*, %struct.event* }, { i64, i64, i64, %struct.event*, i64, i32*, i1, i1, i64, %struct.event*, %struct.event* }* %1, i64 0, i32 9
  %33 = bitcast %struct.event** %32 to i8**
  store i8* %call29, i8** %33, align 8
  %34 = getelementptr inbounds { i64, i64, i64, %struct.event*, i64, i32*, i1, i1, i64, %struct.event*, %struct.event* }, { i64, i64, i64, %struct.event*, i64, i32*, i1, i1, i64, %struct.event*, %struct.event* }* %1, i64 0, i32 10
  store %struct.event* %add.ptr2.i, %struct.event** %34, align 8
  %35 = bitcast { i64, i64, i64, %struct.event*, i64, i32*, i1, i1, i64, %struct.event*, %struct.event* }* %1 to i8*
  call fastcc void @__cilkrts_cilk_for_64(void (i8*, i64, i64)* bitcast (void ({ i64, i64, i64, %struct.event*, i64, i32*, i1, i1, i64, %struct.event*, %struct.event* }*, i64, i64)* @_Z10sampleSortI5event6cmpValiEvPT_T1_T0__pfor.detach71.ls to void (i8*, i64, i64)*), i8* nonnull %35, i64 %add, i32 0)
  br label %sync.continue104

sync.continue104:                                 ; preds = %pfor.detach71.lr.ph, %sync.continue54
  %mul107 = shl i64 %add3, 3
  %mul108 = mul i64 %mul107, %add
  %call109 = tail call noalias i8* @malloc(i64 %mul108) #2
  %call113 = tail call noalias i8* @malloc(i64 %mul58) #2
  %36 = bitcast i8* %call113 to i32*
  %call117 = tail call noalias i8* @malloc(i64 %mul58) #2
  %37 = bitcast i8* %call117 to i32*
  %call.i364 = tail call i32 @_ZN8sequence4scanIilSt4plusIiENS_4getAIilEEEET_PS5_T0_S7_T1_T2_S5_bb(i32* %36, i64 0, i64 %mul57, i32* %19, i32 0, i1 zeroext false, i1 zeroext false)
  %38 = bitcast %struct.transpose* %ref.tmp to i8*
  call void @llvm.lifetime.start.p0i8(i64 16, i8* nonnull %38) #2
  %39 = bitcast %struct.transpose* %ref.tmp to i8**
  store i8* %call59, i8** %39, align 8, !tbaa !64
  %B.i = getelementptr inbounds %struct.transpose, %struct.transpose* %ref.tmp, i64 0, i32 1
  %40 = bitcast i32** %B.i to i8**
  store i8* %call117, i8** %40, align 8, !tbaa !66
  call void @_ZN9transposeIiiE6transREiiiiii(%struct.transpose* nonnull %ref.tmp, i32 0, i32 %conv6, i32 %conv6, i32 0, i32 %conv6, i32 %conv6)
  call void @llvm.lifetime.end.p0i8(i64 16, i8* nonnull %38) #2
  %call.i367 = call i32 @_ZN8sequence4scanIilSt4plusIiENS_4getAIilEEEET_PS5_T0_S7_T1_T2_S5_bb(i32* %37, i64 0, i64 %mul57, i32* %37, i32 0, i1 zeroext false, i1 zeroext false)
  %41 = bitcast %struct.blockTrans* %ref.tmp127 to i8*
  call void @llvm.lifetime.start.p0i8(i64 40, i8* nonnull %41) #2
  %A.i365 = getelementptr inbounds %struct.blockTrans, %struct.blockTrans* %ref.tmp127, i64 0, i32 0
  store %struct.event* %A, %struct.event** %A.i365, align 8, !tbaa !67
  %B.i366 = getelementptr inbounds %struct.blockTrans, %struct.blockTrans* %ref.tmp127, i64 0, i32 1
  %42 = bitcast %struct.event** %B.i366 to i8**
  store i8* %call109, i8** %42, align 8, !tbaa !69
  %OA.i = getelementptr inbounds %struct.blockTrans, %struct.blockTrans* %ref.tmp127, i64 0, i32 2
  %43 = bitcast i32** %OA.i to i8**
  store i8* %call113, i8** %43, align 8, !tbaa !70
  %OB.i = getelementptr inbounds %struct.blockTrans, %struct.blockTrans* %ref.tmp127, i64 0, i32 3
  %44 = bitcast i32** %OB.i to i8**
  store i8* %call117, i8** %44, align 8, !tbaa !71
  %L.i = getelementptr inbounds %struct.blockTrans, %struct.blockTrans* %ref.tmp127, i64 0, i32 4
  %45 = bitcast i32** %L.i to i8**
  store i8* %call59, i8** %45, align 8, !tbaa !72
  call void @_ZN10blockTransI5eventiE6transREiiiiii(%struct.blockTrans* nonnull %ref.tmp127, i32 0, i32 %conv6, i32 %conv6, i32 0, i32 %conv6, i32 %conv6)
  call void @llvm.lifetime.end.p0i8(i64 40, i8* nonnull %41) #2
  call void @free(i8* %call113) #2
  call void @free(i8* %call59) #2
  %cmp139376 = icmp sgt i64 %sub26, 0
  br i1 %cmp139376, label %pfor.detach141.preheader, label %sync.continue196

pfor.detach141.preheader:                         ; preds = %sync.continue104
  %46 = icmp sgt i64 %conv56, 1
  %smax405 = select i1 %46, i64 %conv56, i64 1
  %47 = getelementptr inbounds { i64, i32*, i64, i32, %struct.event*, %struct.event*, %struct.event*, i8* }, { i64, i32*, i64, i32, %struct.event*, %struct.event*, %struct.event*, i8* }* %0, i64 0, i32 0
  store i64 %add, i64* %47, align 8
  %48 = getelementptr inbounds { i64, i32*, i64, i32, %struct.event*, %struct.event*, %struct.event*, i8* }, { i64, i32*, i64, i32, %struct.event*, %struct.event*, %struct.event*, i8* }* %0, i64 0, i32 1
  %49 = bitcast i32** %48 to i8**
  store i8* %call117, i8** %49, align 8
  %50 = getelementptr inbounds { i64, i32*, i64, i32, %struct.event*, %struct.event*, %struct.event*, i8* }, { i64, i32*, i64, i32, %struct.event*, %struct.event*, %struct.event*, i8* }* %0, i64 0, i32 2
  store i64 %conv27, i64* %50, align 8
  %51 = getelementptr inbounds { i64, i32*, i64, i32, %struct.event*, %struct.event*, %struct.event*, i8* }, { i64, i32*, i64, i32, %struct.event*, %struct.event*, %struct.event*, i8* }* %0, i64 0, i32 3
  store i32 %n, i32* %51, align 8
  %52 = getelementptr inbounds { i64, i32*, i64, i32, %struct.event*, %struct.event*, %struct.event*, i8* }, { i64, i32*, i64, i32, %struct.event*, %struct.event*, %struct.event*, i8* }* %0, i64 0, i32 4
  %53 = bitcast %struct.event** %52 to i8**
  store i8* %call29, i8** %53, align 8
  %54 = getelementptr inbounds { i64, i32*, i64, i32, %struct.event*, %struct.event*, %struct.event*, i8* }, { i64, i32*, i64, i32, %struct.event*, %struct.event*, %struct.event*, i8* }* %0, i64 0, i32 5
  %55 = bitcast %struct.event** %54 to i8**
  store i8* %call109, i8** %55, align 8
  %56 = getelementptr inbounds { i64, i32*, i64, i32, %struct.event*, %struct.event*, %struct.event*, i8* }, { i64, i32*, i64, i32, %struct.event*, %struct.event*, %struct.event*, i8* }* %0, i64 0, i32 6
  store %struct.event* %A, %struct.event** %56, align 8
  %57 = getelementptr inbounds { i64, i32*, i64, i32, %struct.event*, %struct.event*, %struct.event*, i8* }, { i64, i32*, i64, i32, %struct.event*, %struct.event*, %struct.event*, i8* }* %0, i64 0, i32 7
  store i8* %call109, i8** %57, align 8
  %58 = bitcast { i64, i32*, i64, i32, %struct.event*, %struct.event*, %struct.event*, i8* }* %0 to i8*
  call fastcc void @__cilkrts_cilk_for_64(void (i8*, i64, i64)* bitcast (void ({ i64, i32*, i64, i32, %struct.event*, %struct.event*, %struct.event*, i8* }*, i64, i64)* @_Z10sampleSortI5event6cmpValiEvPT_T1_T0__pfor.detach141.ls to void (i8*, i64, i64)*), i8* nonnull %58, i64 %smax405, i32 0)
  br label %sync.continue196

sync.continue196:                                 ; preds = %pfor.detach141.preheader, %sync.continue104
  call void @free(i8* %call29) #2
  call void @free(i8* %call117) #2
  call void @free(i8* %call109) #2
  br label %if.end206

if.end206:                                        ; preds = %sync.continue196, %if.then
  ret void
}

declare dereferenceable(272) %"class.std::basic_ostream"* @_ZNSolsEi(%"class.std::basic_ostream"*, i32) local_unnamed_addr #0

; Function Attrs: stealable uwtable
define linkonce_odr void @_ZN8treeNode3delEPS_(%struct.treeNode* %T) local_unnamed_addr #8 comdat align 2 personality i8* bitcast (i32 (...)* @__gxx_personality_v0 to i8*) {
entry:
  %__cilkrts_sf = alloca %struct.__cilkrts_stack_frame, align 8
  %0 = call %struct.__cilkrts_worker* @__cilkrts_get_tls_worker() #2
  %1 = icmp eq %struct.__cilkrts_worker* %0, null
  br i1 %1, label %slowpath.i, label %__cilkrts_enter_frame_1.exit

slowpath.i:                                       ; preds = %entry
  %2 = call %struct.__cilkrts_worker* @__cilkrts_bind_thread_1() #2
  br label %__cilkrts_enter_frame_1.exit

__cilkrts_enter_frame_1.exit:                     ; preds = %entry, %slowpath.i
  %.sink = phi i32 [ 16777344, %slowpath.i ], [ 16777216, %entry ]
  %3 = phi %struct.__cilkrts_worker* [ %2, %slowpath.i ], [ %0, %entry ]
  %4 = getelementptr inbounds %struct.__cilkrts_stack_frame, %struct.__cilkrts_stack_frame* %__cilkrts_sf, i64 0, i32 0
  store atomic i32 %.sink, i32* %4 release, align 8
  %5 = getelementptr inbounds %struct.__cilkrts_worker, %struct.__cilkrts_worker* %3, i64 0, i32 9
  %6 = load atomic %struct.__cilkrts_stack_frame*, %struct.__cilkrts_stack_frame** %5 acquire, align 8
  %7 = getelementptr inbounds %struct.__cilkrts_stack_frame, %struct.__cilkrts_stack_frame* %__cilkrts_sf, i64 0, i32 2
  store atomic %struct.__cilkrts_stack_frame* %6, %struct.__cilkrts_stack_frame** %7 release, align 8
  %8 = getelementptr inbounds %struct.__cilkrts_stack_frame, %struct.__cilkrts_stack_frame* %__cilkrts_sf, i64 0, i32 3
  store atomic %struct.__cilkrts_worker* %3, %struct.__cilkrts_worker** %8 release, align 8
  store atomic %struct.__cilkrts_stack_frame* %__cilkrts_sf, %struct.__cilkrts_stack_frame** %5 release, align 8
  %triangleIndices.i = getelementptr inbounds %struct.treeNode, %struct.treeNode* %T, i64 0, i32 5
  %9 = load i32*, i32** %triangleIndices.i, align 8, !tbaa !27
  %cmp.i = icmp eq i32* %9, null
  br i1 %cmp.i, label %if.else, label %if.then

if.then:                                          ; preds = %__cilkrts_enter_frame_1.exit
  %10 = bitcast i32* %9 to i8*
  tail call void @free(i8* %10) #2
  %.pre = getelementptr inbounds %struct.__cilkrts_stack_frame, %struct.__cilkrts_stack_frame* %__cilkrts_sf, i64 0, i32 0
  br label %if.end

if.else:                                          ; preds = %__cilkrts_enter_frame_1.exit
  %left = getelementptr inbounds %struct.treeNode, %struct.treeNode* %T, i64 0, i32 0
  %11 = load %struct.treeNode*, %struct.treeNode** %left, align 8, !tbaa !22
  %12 = getelementptr inbounds %struct.__cilkrts_stack_frame, %struct.__cilkrts_stack_frame* %__cilkrts_sf, i64 0, i32 6
  %13 = getelementptr inbounds %struct.__cilkrts_stack_frame, %struct.__cilkrts_stack_frame* %__cilkrts_sf, i64 0, i32 7
  call void asm sideeffect "stmxcsr $0\0A\09fnstcw $1", "*m,*m,~{dirflag},~{fpsr},~{flags}"(i32* nonnull %12, i16* nonnull %13) #2
  %14 = getelementptr inbounds %struct.__cilkrts_stack_frame, %struct.__cilkrts_stack_frame* %__cilkrts_sf, i64 0, i32 5
  %15 = call i8* @llvm.frameaddress(i32 0)
  %16 = getelementptr inbounds [5 x i8*], [5 x i8*]* %14, i64 0, i64 0
  store volatile i8* %15, i8** %16, align 8
  %17 = call i8* @llvm.stacksave()
  %18 = getelementptr inbounds %struct.__cilkrts_stack_frame, %struct.__cilkrts_stack_frame* %__cilkrts_sf, i64 0, i32 5, i64 2
  store volatile i8* %17, i8** %18, align 8
  %19 = bitcast [5 x i8*]* %14 to i8*
  %20 = call i32 @llvm.eh.sjlj.setjmp(i8* nonnull %19) #21
  %21 = icmp eq i32 %20, 0
  br i1 %21, label %if.else.split15, label %det.cont

if.else.split15:                                  ; preds = %if.else
  invoke fastcc void @_ZN8treeNode3delEPS__det.achd.cilk(%struct.treeNode* %11)
          to label %det.cont unwind label %lpad1

det.cont:                                         ; preds = %if.else, %if.else.split15
  %right = getelementptr inbounds %struct.treeNode, %struct.treeNode* %T, i64 0, i32 1
  %22 = load %struct.treeNode*, %struct.treeNode** %right, align 8, !tbaa !24
  invoke void @_ZN8treeNode3delEPS_(%struct.treeNode* %22)
          to label %invoke.cont5 unwind label %lpad1

invoke.cont5:                                     ; preds = %det.cont
  %23 = getelementptr inbounds %struct.__cilkrts_stack_frame, %struct.__cilkrts_stack_frame* %__cilkrts_sf, i64 0, i32 0
  %24 = load atomic i32, i32* %23 acquire, align 8
  %25 = and i32 %24, 2
  %26 = icmp eq i32 %25, 0
  br i1 %26, label %__cilk_sync.exit, label %cilk.sync.savestate.i

cilk.sync.savestate.i:                            ; preds = %invoke.cont5
  %27 = load atomic %struct.__cilkrts_worker*, %struct.__cilkrts_worker** %8 acquire, align 8
  call void asm sideeffect "stmxcsr $0\0A\09fnstcw $1", "*m,*m,~{dirflag},~{fpsr},~{flags}"(i32* nonnull %12, i16* nonnull %13) #2
  store volatile i8* %15, i8** %16, align 8
  %28 = call i8* @llvm.stacksave()
  store volatile i8* %28, i8** %18, align 8
  %29 = call i32 @llvm.eh.sjlj.setjmp(i8* nonnull %19) #21
  %30 = icmp eq i32 %29, 0
  br i1 %30, label %cilk.sync.runtimecall.i, label %cilk.sync.excepting.i

cilk.sync.runtimecall.i:                          ; preds = %cilk.sync.savestate.i
  call void @__cilkrts_sync(%struct.__cilkrts_stack_frame* nonnull %__cilkrts_sf)
  br label %__cilk_sync.exit

cilk.sync.excepting.i:                            ; preds = %cilk.sync.savestate.i
  %31 = load atomic i32, i32* %23 acquire, align 8
  %32 = and i32 %31, 16
  %33 = icmp eq i32 %32, 0
  br i1 %33, label %__cilk_sync.exit, label %cilk.sync.rethrow.i

cilk.sync.rethrow.i:                              ; preds = %cilk.sync.excepting.i
  call void @__cilkrts_rethrow(%struct.__cilkrts_stack_frame* nonnull %__cilkrts_sf) #22
  unreachable

__cilk_sync.exit:                                 ; preds = %invoke.cont5, %cilk.sync.runtimecall.i, %cilk.sync.excepting.i
  %34 = load atomic %struct.__cilkrts_worker*, %struct.__cilkrts_worker** %8 acquire, align 8
  %35 = getelementptr inbounds %struct.__cilkrts_worker, %struct.__cilkrts_worker* %34, i64 0, i32 12, i32 0
  %36 = load i64, i64* %35, align 8
  %37 = add i64 %36, 1
  store i64 %37, i64* %35, align 8
  br label %if.end

lpad1:                                            ; preds = %if.else.split15, %det.cont
  %38 = landingpad { i8*, i32 }
          cleanup
  %39 = getelementptr inbounds %struct.__cilkrts_stack_frame, %struct.__cilkrts_stack_frame* %__cilkrts_sf, i64 0, i32 0
  %40 = load atomic i32, i32* %39 acquire, align 8
  %41 = and i32 %40, 2
  %42 = icmp eq i32 %41, 0
  br i1 %42, label %__cilk_sync.exit20, label %cilk.sync.savestate.i16

cilk.sync.savestate.i16:                          ; preds = %lpad1
  %43 = load atomic %struct.__cilkrts_worker*, %struct.__cilkrts_worker** %8 acquire, align 8
  call void asm sideeffect "stmxcsr $0\0A\09fnstcw $1", "*m,*m,~{dirflag},~{fpsr},~{flags}"(i32* nonnull %12, i16* nonnull %13) #2
  store volatile i8* %15, i8** %16, align 8
  %44 = call i8* @llvm.stacksave()
  store volatile i8* %44, i8** %18, align 8
  %45 = call i32 @llvm.eh.sjlj.setjmp(i8* nonnull %19) #21
  %46 = icmp eq i32 %45, 0
  br i1 %46, label %cilk.sync.runtimecall.i17, label %cilk.sync.excepting.i18

cilk.sync.runtimecall.i17:                        ; preds = %cilk.sync.savestate.i16
  call void @__cilkrts_sync(%struct.__cilkrts_stack_frame* nonnull %__cilkrts_sf)
  br label %__cilk_sync.exit20

cilk.sync.excepting.i18:                          ; preds = %cilk.sync.savestate.i16
  %47 = load atomic i32, i32* %39 acquire, align 8
  %48 = and i32 %47, 16
  %49 = icmp eq i32 %48, 0
  br i1 %49, label %__cilk_sync.exit20, label %cilk.sync.rethrow.i19

cilk.sync.rethrow.i19:                            ; preds = %cilk.sync.excepting.i18
  call void @__cilkrts_rethrow(%struct.__cilkrts_stack_frame* nonnull %__cilkrts_sf) #22
  unreachable

__cilk_sync.exit20:                               ; preds = %lpad1, %cilk.sync.runtimecall.i17, %cilk.sync.excepting.i18
  %50 = load atomic %struct.__cilkrts_worker*, %struct.__cilkrts_worker** %8 acquire, align 8
  %51 = getelementptr inbounds %struct.__cilkrts_worker, %struct.__cilkrts_worker* %50, i64 0, i32 12, i32 0
  %52 = load i64, i64* %51, align 8
  %53 = add i64 %52, 1
  store i64 %53, i64* %51, align 8
  %54 = load atomic %struct.__cilkrts_worker*, %struct.__cilkrts_worker** %8 acquire, align 8
  %55 = bitcast %struct.__cilkrts_stack_frame** %7 to i64*
  %56 = load i64, i64* %55, align 8
  %57 = getelementptr inbounds %struct.__cilkrts_worker, %struct.__cilkrts_worker* %54, i64 0, i32 9
  %58 = bitcast %struct.__cilkrts_stack_frame** %57 to i64*
  store atomic i64 %56, i64* %58 release, align 8
  store atomic %struct.__cilkrts_stack_frame* null, %struct.__cilkrts_stack_frame** %7 release, align 8
  %59 = load atomic i32, i32* %39 acquire, align 8
  %60 = icmp eq i32 %59, 16777216
  br i1 %60, label %__cilk_parent_epilogue.exit22, label %body.i21

if.end:                                           ; preds = %__cilk_sync.exit, %if.then
  %.pre-phi = phi i32* [ %23, %__cilk_sync.exit ], [ %.pre, %if.then ]
  %61 = bitcast %struct.treeNode* %T to i8*
  tail call void @free(i8* %61) #2
  %62 = load atomic %struct.__cilkrts_worker*, %struct.__cilkrts_worker** %8 acquire, align 8
  %63 = bitcast %struct.__cilkrts_stack_frame** %7 to i64*
  %64 = load i64, i64* %63, align 8
  %65 = getelementptr inbounds %struct.__cilkrts_worker, %struct.__cilkrts_worker* %62, i64 0, i32 9
  %66 = bitcast %struct.__cilkrts_stack_frame** %65 to i64*
  store atomic i64 %64, i64* %66 release, align 8
  store atomic %struct.__cilkrts_stack_frame* null, %struct.__cilkrts_stack_frame** %7 release, align 8
  %67 = load atomic i32, i32* %.pre-phi acquire, align 8
  %68 = icmp eq i32 %67, 16777216
  br i1 %68, label %__cilk_parent_epilogue.exit, label %body.i

body.i:                                           ; preds = %if.end
  call void @__cilkrts_leave_frame(%struct.__cilkrts_stack_frame* nonnull %__cilkrts_sf) #2
  br label %__cilk_parent_epilogue.exit

__cilk_parent_epilogue.exit:                      ; preds = %if.end, %body.i
  ret void

body.i21:                                         ; preds = %__cilk_sync.exit20
  call void @__cilkrts_leave_frame(%struct.__cilkrts_stack_frame* nonnull %__cilkrts_sf) #2
  br label %__cilk_parent_epilogue.exit22

__cilk_parent_epilogue.exit22:                    ; preds = %__cilk_sync.exit20, %body.i21
  resume { i8*, i32 } %38
}

; Function Attrs: argmemonly nounwind
declare void @llvm.memset.p0i8.i64(i8* nocapture writeonly, i8, i64, i32, i1) #5

; Function Attrs: nounwind
declare i32 @gettimeofday(%struct.timeval* nocapture, %struct.timezone* nocapture) local_unnamed_addr #1

declare dereferenceable(272) %"class.std::basic_ostream"* @_ZSt16__ostream_insertIcSt11char_traitsIcEERSt13basic_ostreamIT_T0_ES6_PKS3_l(%"class.std::basic_ostream"* dereferenceable(272), i8*, i64) local_unnamed_addr #0

; Function Attrs: uwtable
define linkonce_odr void @_ZN5timer7reportTEd(%struct.timer* %this, double %time) local_unnamed_addr #6 comdat align 2 {
entry:
  %call1.i = tail call dereferenceable(272) %"class.std::basic_ostream"* @_ZSt16__ostream_insertIcSt11char_traitsIcEERSt13basic_ostreamIT_T0_ES6_PKS3_l(%"class.std::basic_ostream"* nonnull dereferenceable(272) @_ZSt4cout, i8* nonnull getelementptr inbounds ([12 x i8], [12 x i8]* @.str.14, i64 0, i64 0), i64 11)
  %vtable.i = load i8*, i8** bitcast (%"class.std::basic_ostream"* @_ZSt4cout to i8**), align 8, !tbaa !58
  %vbase.offset.ptr.i = getelementptr i8, i8* %vtable.i, i64 -24
  %0 = bitcast i8* %vbase.offset.ptr.i to i64*
  %vbase.offset.i = load i64, i64* %0, align 8
  %add.ptr.i = getelementptr inbounds i8, i8* bitcast (%"class.std::basic_ostream"* @_ZSt4cout to i8*), i64 %vbase.offset.i
  %_M_precision.i.i = getelementptr inbounds i8, i8* %add.ptr.i, i64 8
  %1 = bitcast i8* %_M_precision.i.i to i64*
  store i64 3, i64* %1, align 8, !tbaa !73
  %call.i = tail call dereferenceable(272) %"class.std::basic_ostream"* @_ZNSo9_M_insertIdEERSoT_(%"class.std::basic_ostream"* nonnull @_ZSt4cout, double %time)
  %2 = bitcast %"class.std::basic_ostream"* %call.i to i8**
  %vtable.i7 = load i8*, i8** %2, align 8, !tbaa !58
  %vbase.offset.ptr.i8 = getelementptr i8, i8* %vtable.i7, i64 -24
  %3 = bitcast i8* %vbase.offset.ptr.i8 to i64*
  %vbase.offset.i9 = load i64, i64* %3, align 8
  %4 = bitcast %"class.std::basic_ostream"* %call.i to i8*
  %add.ptr.i10 = getelementptr inbounds i8, i8* %4, i64 %vbase.offset.i9
  %_M_ctype.i.i = getelementptr inbounds i8, i8* %add.ptr.i10, i64 240
  %5 = bitcast i8* %_M_ctype.i.i to %"class.std::ctype"**
  %6 = load %"class.std::ctype"*, %"class.std::ctype"** %5, align 8, !tbaa !60
  %tobool.i.i.i = icmp eq %"class.std::ctype"* %6, null
  br i1 %tobool.i.i.i, label %if.then.i.i.i, label %_ZSt13__check_facetISt5ctypeIcEERKT_PS3_.exit.i.i

if.then.i.i.i:                                    ; preds = %entry
  tail call void @_ZSt16__throw_bad_castv() #22
  unreachable

_ZSt13__check_facetISt5ctypeIcEERKT_PS3_.exit.i.i: ; preds = %entry
  %_M_widen_ok.i.i.i = getelementptr inbounds %"class.std::ctype", %"class.std::ctype"* %6, i64 0, i32 8
  %7 = load i8, i8* %_M_widen_ok.i.i.i, align 8, !tbaa !62
  %tobool.i3.i.i = icmp eq i8 %7, 0
  br i1 %tobool.i3.i.i, label %if.end.i.i.i, label %if.then.i4.i.i

if.then.i4.i.i:                                   ; preds = %_ZSt13__check_facetISt5ctypeIcEERKT_PS3_.exit.i.i
  %arrayidx.i.i.i = getelementptr inbounds %"class.std::ctype", %"class.std::ctype"* %6, i64 0, i32 9, i64 10
  %8 = load i8, i8* %arrayidx.i.i.i, align 1, !tbaa !53
  br label %_ZSt4endlIcSt11char_traitsIcEERSt13basic_ostreamIT_T0_ES6_.exit

if.end.i.i.i:                                     ; preds = %_ZSt13__check_facetISt5ctypeIcEERKT_PS3_.exit.i.i
  tail call void @_ZNKSt5ctypeIcE13_M_widen_initEv(%"class.std::ctype"* nonnull %6)
  %9 = bitcast %"class.std::ctype"* %6 to i8 (%"class.std::ctype"*, i8)***
  %vtable.i.i.i = load i8 (%"class.std::ctype"*, i8)**, i8 (%"class.std::ctype"*, i8)*** %9, align 8, !tbaa !58
  %vfn.i.i.i = getelementptr inbounds i8 (%"class.std::ctype"*, i8)*, i8 (%"class.std::ctype"*, i8)** %vtable.i.i.i, i64 6
  %10 = load i8 (%"class.std::ctype"*, i8)*, i8 (%"class.std::ctype"*, i8)** %vfn.i.i.i, align 8
  %call.i.i.i = tail call signext i8 %10(%"class.std::ctype"* nonnull %6, i8 signext 10)
  br label %_ZSt4endlIcSt11char_traitsIcEERSt13basic_ostreamIT_T0_ES6_.exit

_ZSt4endlIcSt11char_traitsIcEERSt13basic_ostreamIT_T0_ES6_.exit: ; preds = %if.then.i4.i.i, %if.end.i.i.i
  %retval.0.i.i.i = phi i8 [ %8, %if.then.i4.i.i ], [ %call.i.i.i, %if.end.i.i.i ]
  %call1.i11 = tail call dereferenceable(272) %"class.std::basic_ostream"* @_ZNSo3putEc(%"class.std::basic_ostream"* nonnull %call.i, i8 signext %retval.0.i.i.i)
  %call.i.i12 = tail call dereferenceable(272) %"class.std::basic_ostream"* @_ZNSo5flushEv(%"class.std::basic_ostream"* nonnull %call1.i11)
  ret void
}

declare dereferenceable(272) %"class.std::basic_ostream"* @_ZNSo9_M_insertIdEERSoT_(%"class.std::basic_ostream"*, double) local_unnamed_addr #0

declare dereferenceable(272) %"class.std::basic_ostream"* @_ZNSo3putEc(%"class.std::basic_ostream"*, i8 signext) local_unnamed_addr #0

declare dereferenceable(272) %"class.std::basic_ostream"* @_ZNSo5flushEv(%"class.std::basic_ostream"*) local_unnamed_addr #0

; Function Attrs: noreturn
declare void @_ZSt16__throw_bad_castv() local_unnamed_addr #14

declare void @_ZNKSt5ctypeIcE13_M_widen_initEv(%"class.std::ctype"*) local_unnamed_addr #0

; Function Attrs: uwtable
define linkonce_odr i32 @_ZN8sequence4scanIiiN5utils4addFIiEENS_4getAIiiEEEET_PS6_T0_S8_T1_T2_S6_bb(i32* %Out, i32 %s, i32 %e, i32* %g.coerce, i32 %zero, i1 zeroext %inclusive, i1 zeroext %back) local_unnamed_addr #6 comdat personality i8* bitcast (i32 (...)* @__gxx_personality_v0 to i8*) {
entry:
  %0 = alloca { i64, i64, i64, i32, i32*, i1, i1, i32*, i32* }, align 8
  %1 = alloca { i32, i64, i64, i32, i32*, i32* }, align 8
  %sub = sub nsw i32 %e, %s
  %sub2 = add nsw i32 %sub, -1
  %div = sdiv i32 %sub2, 1024
  %add = add nsw i32 %div, 1
  %cmp = icmp slt i32 %sub, 2049
  br i1 %cmp, label %if.then, label %pfor.detach.lr.ph

if.then:                                          ; preds = %entry
  br i1 %inclusive, label %if.then.i, label %if.else18.i

if.then.i:                                        ; preds = %if.then
  br i1 %back, label %if.then3.i, label %if.else.i

if.then3.i:                                       ; preds = %if.then.i
  %conv4.i = sext i32 %s to i64
  %cmp107.i = icmp sgt i32 %e, %s
  br i1 %cmp107.i, label %for.body.lr.ph.i, label %cleanup

for.body.lr.ph.i:                                 ; preds = %if.then3.i
  %sub.i = add nsw i32 %e, -1
  %conv.i = sext i32 %sub.i to i64
  br label %for.body.i

for.body.i:                                       ; preds = %for.body.i, %for.body.lr.ph.i
  %i.0109.i = phi i64 [ %conv.i, %for.body.lr.ph.i ], [ %dec.i, %for.body.i ]
  %r.0108.i = phi i32 [ %zero, %for.body.lr.ph.i ], [ %add.i88.i, %for.body.i ]
  %sext103.i = shl i64 %i.0109.i, 32
  %idxprom.i.i = ashr exact i64 %sext103.i, 32
  %arrayidx.i.i = getelementptr inbounds i32, i32* %g.coerce, i64 %idxprom.i.i
  %2 = load i32, i32* %arrayidx.i.i, align 4, !tbaa !12
  %add.i88.i = add nsw i32 %2, %r.0108.i
  %arrayidx.i = getelementptr inbounds i32, i32* %Out, i64 %i.0109.i
  store i32 %add.i88.i, i32* %arrayidx.i, align 4, !tbaa !12
  %dec.i = add nsw i64 %i.0109.i, -1
  %cmp.i = icmp sgt i64 %i.0109.i, %conv4.i
  br i1 %cmp.i, label %for.body.i, label %cleanup

if.else.i:                                        ; preds = %if.then.i
  %cmp9110.i = icmp sgt i32 %e, %s
  br i1 %cmp9110.i, label %for.body11.lr.ph.i, label %cleanup

for.body11.lr.ph.i:                               ; preds = %if.else.i
  %3 = sext i32 %s to i64
  %wide.trip.count.i = sext i32 %e to i64
  %4 = sub nsw i64 %wide.trip.count.i, %3
  %5 = xor i64 %3, -1
  %6 = add nsw i64 %wide.trip.count.i, %5
  %xtraiter = and i64 %4, 7
  %lcmp.mod = icmp eq i64 %xtraiter, 0
  br i1 %lcmp.mod, label %for.body11.i.prol.loopexit, label %for.body11.i.prol.preheader

for.body11.i.prol.preheader:                      ; preds = %for.body11.lr.ph.i
  br label %for.body11.i.prol

for.body11.i.prol:                                ; preds = %for.body11.i.prol.preheader, %for.body11.i.prol
  %indvars.iv.i.prol = phi i64 [ %indvars.iv.next.i.prol, %for.body11.i.prol ], [ %3, %for.body11.i.prol.preheader ]
  %r.1111.i.prol = phi i32 [ %add.i84.i.prol, %for.body11.i.prol ], [ %zero, %for.body11.i.prol.preheader ]
  %prol.iter = phi i64 [ %prol.iter.sub, %for.body11.i.prol ], [ %xtraiter, %for.body11.i.prol.preheader ]
  %arrayidx.i87.i.prol = getelementptr inbounds i32, i32* %g.coerce, i64 %indvars.iv.i.prol
  %7 = load i32, i32* %arrayidx.i87.i.prol, align 4, !tbaa !12
  %add.i84.i.prol = add nsw i32 %7, %r.1111.i.prol
  %arrayidx15.i.prol = getelementptr inbounds i32, i32* %Out, i64 %indvars.iv.i.prol
  store i32 %add.i84.i.prol, i32* %arrayidx15.i.prol, align 4, !tbaa !12
  %indvars.iv.next.i.prol = add nsw i64 %indvars.iv.i.prol, 1
  %prol.iter.sub = add nsw i64 %prol.iter, -1
  %prol.iter.cmp = icmp eq i64 %prol.iter.sub, 0
  br i1 %prol.iter.cmp, label %for.body11.i.prol.loopexit.loopexit, label %for.body11.i.prol, !llvm.loop !79

for.body11.i.prol.loopexit.loopexit:              ; preds = %for.body11.i.prol
  %8 = add nsw i64 %xtraiter, %3
  br label %for.body11.i.prol.loopexit

for.body11.i.prol.loopexit:                       ; preds = %for.body11.i.prol.loopexit.loopexit, %for.body11.lr.ph.i
  %add.i84.i.lcssa.unr = phi i32 [ undef, %for.body11.lr.ph.i ], [ %add.i84.i.prol, %for.body11.i.prol.loopexit.loopexit ]
  %indvars.iv.i.unr = phi i64 [ %3, %for.body11.lr.ph.i ], [ %8, %for.body11.i.prol.loopexit.loopexit ]
  %r.1111.i.unr = phi i32 [ %zero, %for.body11.lr.ph.i ], [ %add.i84.i.prol, %for.body11.i.prol.loopexit.loopexit ]
  %9 = icmp ult i64 %6, 7
  br i1 %9, label %cleanup, label %for.body11.i.preheader

for.body11.i.preheader:                           ; preds = %for.body11.i.prol.loopexit
  br label %for.body11.i

for.body11.i:                                     ; preds = %for.body11.i.preheader, %for.body11.i
  %indvars.iv.i = phi i64 [ %indvars.iv.next.i.7, %for.body11.i ], [ %indvars.iv.i.unr, %for.body11.i.preheader ]
  %r.1111.i = phi i32 [ %add.i84.i.7, %for.body11.i ], [ %r.1111.i.unr, %for.body11.i.preheader ]
  %arrayidx.i87.i = getelementptr inbounds i32, i32* %g.coerce, i64 %indvars.iv.i
  %10 = load i32, i32* %arrayidx.i87.i, align 4, !tbaa !12
  %add.i84.i = add nsw i32 %10, %r.1111.i
  %arrayidx15.i = getelementptr inbounds i32, i32* %Out, i64 %indvars.iv.i
  store i32 %add.i84.i, i32* %arrayidx15.i, align 4, !tbaa !12
  %indvars.iv.next.i = add nsw i64 %indvars.iv.i, 1
  %arrayidx.i87.i.1 = getelementptr inbounds i32, i32* %g.coerce, i64 %indvars.iv.next.i
  %11 = load i32, i32* %arrayidx.i87.i.1, align 4, !tbaa !12
  %add.i84.i.1 = add nsw i32 %11, %add.i84.i
  %arrayidx15.i.1 = getelementptr inbounds i32, i32* %Out, i64 %indvars.iv.next.i
  store i32 %add.i84.i.1, i32* %arrayidx15.i.1, align 4, !tbaa !12
  %indvars.iv.next.i.1 = add nsw i64 %indvars.iv.i, 2
  %arrayidx.i87.i.2 = getelementptr inbounds i32, i32* %g.coerce, i64 %indvars.iv.next.i.1
  %12 = load i32, i32* %arrayidx.i87.i.2, align 4, !tbaa !12
  %add.i84.i.2 = add nsw i32 %12, %add.i84.i.1
  %arrayidx15.i.2 = getelementptr inbounds i32, i32* %Out, i64 %indvars.iv.next.i.1
  store i32 %add.i84.i.2, i32* %arrayidx15.i.2, align 4, !tbaa !12
  %indvars.iv.next.i.2 = add nsw i64 %indvars.iv.i, 3
  %arrayidx.i87.i.3 = getelementptr inbounds i32, i32* %g.coerce, i64 %indvars.iv.next.i.2
  %13 = load i32, i32* %arrayidx.i87.i.3, align 4, !tbaa !12
  %add.i84.i.3 = add nsw i32 %13, %add.i84.i.2
  %arrayidx15.i.3 = getelementptr inbounds i32, i32* %Out, i64 %indvars.iv.next.i.2
  store i32 %add.i84.i.3, i32* %arrayidx15.i.3, align 4, !tbaa !12
  %indvars.iv.next.i.3 = add nsw i64 %indvars.iv.i, 4
  %arrayidx.i87.i.4 = getelementptr inbounds i32, i32* %g.coerce, i64 %indvars.iv.next.i.3
  %14 = load i32, i32* %arrayidx.i87.i.4, align 4, !tbaa !12
  %add.i84.i.4 = add nsw i32 %14, %add.i84.i.3
  %arrayidx15.i.4 = getelementptr inbounds i32, i32* %Out, i64 %indvars.iv.next.i.3
  store i32 %add.i84.i.4, i32* %arrayidx15.i.4, align 4, !tbaa !12
  %indvars.iv.next.i.4 = add nsw i64 %indvars.iv.i, 5
  %arrayidx.i87.i.5 = getelementptr inbounds i32, i32* %g.coerce, i64 %indvars.iv.next.i.4
  %15 = load i32, i32* %arrayidx.i87.i.5, align 4, !tbaa !12
  %add.i84.i.5 = add nsw i32 %15, %add.i84.i.4
  %arrayidx15.i.5 = getelementptr inbounds i32, i32* %Out, i64 %indvars.iv.next.i.4
  store i32 %add.i84.i.5, i32* %arrayidx15.i.5, align 4, !tbaa !12
  %indvars.iv.next.i.5 = add nsw i64 %indvars.iv.i, 6
  %arrayidx.i87.i.6 = getelementptr inbounds i32, i32* %g.coerce, i64 %indvars.iv.next.i.5
  %16 = load i32, i32* %arrayidx.i87.i.6, align 4, !tbaa !12
  %add.i84.i.6 = add nsw i32 %16, %add.i84.i.5
  %arrayidx15.i.6 = getelementptr inbounds i32, i32* %Out, i64 %indvars.iv.next.i.5
  store i32 %add.i84.i.6, i32* %arrayidx15.i.6, align 4, !tbaa !12
  %indvars.iv.next.i.6 = add nsw i64 %indvars.iv.i, 7
  %arrayidx.i87.i.7 = getelementptr inbounds i32, i32* %g.coerce, i64 %indvars.iv.next.i.6
  %17 = load i32, i32* %arrayidx.i87.i.7, align 4, !tbaa !12
  %add.i84.i.7 = add nsw i32 %17, %add.i84.i.6
  %arrayidx15.i.7 = getelementptr inbounds i32, i32* %Out, i64 %indvars.iv.next.i.6
  store i32 %add.i84.i.7, i32* %arrayidx15.i.7, align 4, !tbaa !12
  %indvars.iv.next.i.7 = add nsw i64 %indvars.iv.i, 8
  %exitcond.i.7 = icmp eq i64 %indvars.iv.next.i.7, %wide.trip.count.i
  br i1 %exitcond.i.7, label %cleanup, label %for.body11.i

if.else18.i:                                      ; preds = %if.then
  br i1 %back, label %if.then20.i, label %if.else36.i

if.then20.i:                                      ; preds = %if.else18.i
  %conv25.i = sext i32 %s to i64
  %cmp26114.i = icmp sgt i32 %e, %s
  br i1 %cmp26114.i, label %for.body28.lr.ph.i, label %cleanup

for.body28.lr.ph.i:                               ; preds = %if.then20.i
  %sub22.i = add nsw i32 %e, -1
  %conv23.i = sext i32 %sub22.i to i64
  br label %for.body28.i

for.body28.i:                                     ; preds = %for.body28.i, %for.body28.lr.ph.i
  %i21.0116.i = phi i64 [ %conv23.i, %for.body28.lr.ph.i ], [ %dec34.i, %for.body28.i ]
  %r.2115.i = phi i32 [ %zero, %for.body28.lr.ph.i ], [ %add.i80.i, %for.body28.i ]
  %sext.i = shl i64 %i21.0116.i, 32
  %idxprom.i82.i = ashr exact i64 %sext.i, 32
  %arrayidx.i83.i = getelementptr inbounds i32, i32* %g.coerce, i64 %idxprom.i82.i
  %18 = load i32, i32* %arrayidx.i83.i, align 4, !tbaa !12
  %arrayidx31.i = getelementptr inbounds i32, i32* %Out, i64 %i21.0116.i
  store i32 %r.2115.i, i32* %arrayidx31.i, align 4, !tbaa !12
  %add.i80.i = add nsw i32 %18, %r.2115.i
  %dec34.i = add nsw i64 %i21.0116.i, -1
  %cmp26.i = icmp sgt i64 %i21.0116.i, %conv25.i
  br i1 %cmp26.i, label %for.body28.i, label %cleanup

if.else36.i:                                      ; preds = %if.else18.i
  %cmp39118.i = icmp sgt i32 %e, %s
  br i1 %cmp39118.i, label %for.body41.lr.ph.i, label %cleanup

for.body41.lr.ph.i:                               ; preds = %if.else36.i
  %19 = sext i32 %s to i64
  %wide.trip.count127.i = sext i32 %e to i64
  %20 = sub nsw i64 %wide.trip.count127.i, %19
  %21 = xor i64 %19, -1
  %22 = add nsw i64 %wide.trip.count127.i, %21
  %xtraiter350 = and i64 %20, 7
  %lcmp.mod351 = icmp eq i64 %xtraiter350, 0
  br i1 %lcmp.mod351, label %for.body41.i.prol.loopexit, label %for.body41.i.prol.preheader

for.body41.i.prol.preheader:                      ; preds = %for.body41.lr.ph.i
  br label %for.body41.i.prol

for.body41.i.prol:                                ; preds = %for.body41.i.prol.preheader, %for.body41.i.prol
  %indvars.iv125.i.prol = phi i64 [ %indvars.iv.next126.i.prol, %for.body41.i.prol ], [ %19, %for.body41.i.prol.preheader ]
  %r.3119.i.prol = phi i32 [ %add.i.i.prol, %for.body41.i.prol ], [ %zero, %for.body41.i.prol.preheader ]
  %prol.iter352 = phi i64 [ %prol.iter352.sub, %for.body41.i.prol ], [ %xtraiter350, %for.body41.i.prol.preheader ]
  %arrayidx.i79.i.prol = getelementptr inbounds i32, i32* %g.coerce, i64 %indvars.iv125.i.prol
  %23 = load i32, i32* %arrayidx.i79.i.prol, align 4, !tbaa !12
  %arrayidx45.i.prol = getelementptr inbounds i32, i32* %Out, i64 %indvars.iv125.i.prol
  store i32 %r.3119.i.prol, i32* %arrayidx45.i.prol, align 4, !tbaa !12
  %add.i.i.prol = add nsw i32 %23, %r.3119.i.prol
  %indvars.iv.next126.i.prol = add nsw i64 %indvars.iv125.i.prol, 1
  %prol.iter352.sub = add nsw i64 %prol.iter352, -1
  %prol.iter352.cmp = icmp eq i64 %prol.iter352.sub, 0
  br i1 %prol.iter352.cmp, label %for.body41.i.prol.loopexit.loopexit, label %for.body41.i.prol, !llvm.loop !80

for.body41.i.prol.loopexit.loopexit:              ; preds = %for.body41.i.prol
  %24 = add nsw i64 %xtraiter350, %19
  br label %for.body41.i.prol.loopexit

for.body41.i.prol.loopexit:                       ; preds = %for.body41.i.prol.loopexit.loopexit, %for.body41.lr.ph.i
  %add.i.i.lcssa.unr = phi i32 [ undef, %for.body41.lr.ph.i ], [ %add.i.i.prol, %for.body41.i.prol.loopexit.loopexit ]
