; ModuleID = 'sortTime.C'
source_filename = "sortTime.C"
target datalayout = "e-m:e-i64:64-f80:128-n8:16:32:64-S128"
target triple = "x86_64-unknown-linux-gnu"

%"class.std::ios_base::Init" = type { i8 }
%struct.timer = type <{ double, double, double, i8, [3 x i8], %struct.timezone, [4 x i8] }>
%struct.timezone = type { i32, i32 }
%"class.std::basic_ostream" = type { i32 (...)**, %"class.std::basic_ios" }
%"class.std::basic_ios" = type { %"class.std::ios_base", %"class.std::basic_ostream"*, i8, i8, %"class.std::basic_streambuf"*, %"class.std::ctype"*, %"class.std::num_put"*, %"class.std::num_get"* }
%"class.std::ios_base" = type { i32 (...)**, i64, i64, i32, i32, i32, %"struct.std::ios_base::_Callback_list"*, %"struct.std::ios_base::_Words", [8 x %"struct.std::ios_base::_Words"], i32, %"struct.std::ios_base::_Words"*, %"class.std::locale" }
%"struct.std::ios_base::_Callback_list" = type { %"struct.std::ios_base::_Callback_list"*, void (i32, %"class.std::ios_base"*, i32)*, i32, i32 }
%"struct.std::ios_base::_Words" = type { i8*, i64 }
%"class.std::locale" = type { %"class.std::locale::_Impl"* }
%"class.std::locale::_Impl" = type { i32, %"class.std::locale::facet"**, i64, %"class.std::locale::facet"**, i8** }
%"class.std::locale::facet" = type <{ i32 (...)**, i32, [4 x i8] }>
%"class.std::basic_streambuf" = type { i32 (...)**, i8*, i8*, i8*, i8*, i8*, i8*, %"class.std::locale" }
%"class.std::ctype" = type <{ %"class.std::locale::facet.base", [4 x i8], %struct.__locale_struct*, i8, [7 x i8], i32*, i32*, i16*, i8, [256 x i8], [256 x i8], i8, [6 x i8] }>
%"class.std::locale::facet.base" = type <{ i32 (...)**, i32 }>
%struct.__locale_struct = type { [13 x %struct.__locale_data*], i16*, i32*, i32*, [13 x i8*] }
%struct.__locale_data = type opaque
%"class.std::num_put" = type { %"class.std::locale::facet.base", [4 x i8] }
%"class.std::num_get" = type { %"class.std::locale::facet.base", [4 x i8] }
%"class.std::__cxx11::basic_string" = type { %"struct.std::__cxx11::basic_string<char, std::char_traits<char>, std::allocator<char> >::_Alloc_hider", i64, %union.anon.1 }
%"struct.std::__cxx11::basic_string<char, std::char_traits<char>, std::allocator<char> >::_Alloc_hider" = type { i8* }
%union.anon.1 = type { i64, [8 x i8] }
%"struct.benchIO::words" = type { i64, i8*, i64, i8** }
%"class.std::basic_ofstream" = type { %"class.std::basic_ostream.base", %"class.std::basic_filebuf", %"class.std::basic_ios" }
%"class.std::basic_ostream.base" = type { i32 (...)** }
%"class.std::basic_filebuf" = type { %"class.std::basic_streambuf", %union.pthread_mutex_t, %"class.std::__basic_file", i32, %struct.__mbstate_t, %struct.__mbstate_t, %struct.__mbstate_t, i8*, i64, i8, i8, i8, i8, i8*, i8*, i8, %"class.std::codecvt"*, i8*, i64, i8*, i8* }
%union.pthread_mutex_t = type { %struct.__pthread_mutex_s }
%struct.__pthread_mutex_s = type { i32, i32, i32, i32, i32, i16, i16, %struct.__pthread_internal_list }
%struct.__pthread_internal_list = type { %struct.__pthread_internal_list*, %struct.__pthread_internal_list* }
%"class.std::__basic_file" = type <{ %struct._IO_FILE*, i8, [7 x i8] }>
%struct._IO_FILE = type { i32, i8*, i8*, i8*, i8*, i8*, i8*, i8*, i8*, i8*, i8*, i8*, %struct._IO_marker*, %struct._IO_FILE*, i32, i32, i64, i16, i8, [1 x i8], i8*, i64, i8*, i8*, i8*, i8*, i64, i32, [20 x i8] }
%struct._IO_marker = type { %struct._IO_marker*, %struct._IO_FILE*, i32 }
%struct.__mbstate_t = type { i32, %union.anon }
%union.anon = type { i32 }
%"class.std::codecvt" = type { %"class.std::__codecvt_abstract_base.base", %struct.__locale_struct* }
%"class.std::__codecvt_abstract_base.base" = type { %"class.std::locale::facet.base" }
%"class.std::basic_ifstream" = type { %"class.std::basic_istream.base", %"class.std::basic_filebuf", %"class.std::basic_ios" }
%"class.std::basic_istream.base" = type { i32 (...)**, i64 }
%"class.std::basic_istream" = type { i32 (...)**, i64, %"class.std::basic_ios" }
%"class.std::allocator" = type { i8 }
%"struct.benchIO::seqData" = type { i8*, i64, i32, i8* }
%"struct.std::pair" = type { i32, i32 }
%"struct.std::pair.2" = type <{ i8*, i32, [4 x i8] }>
%struct.commandLine = type { i32, i8**, %"class.std::__cxx11::basic_string" }
%struct.timeval = type { i64, i64 }
%struct.transpose = type { i32*, i32* }
%struct.blockTrans = type { i32*, i32*, i32*, i32*, i32* }
%struct.__cilkrts_stack_frame = type { i32, i32, %struct.__cilkrts_stack_frame*, %struct.__cilkrts_worker*, i8*, [5 x i8*], i32, i16, i16, { %struct.__cilkrts_pedigree } }
%struct.__cilkrts_worker = type { %struct.__cilkrts_stack_frame**, %struct.__cilkrts_stack_frame**, %struct.__cilkrts_stack_frame**, %struct.__cilkrts_stack_frame**, %struct.__cilkrts_stack_frame**, i32, i8*, i8*, i8*, %struct.__cilkrts_stack_frame*, i8*, i8*, %struct.__cilkrts_pedigree }
%struct.__cilkrts_pedigree = type { i64, %struct.__cilkrts_pedigree* }
%struct.blockTrans.12 = type { %"struct.std::pair"*, %"struct.std::pair"*, i32*, i32*, i32* }
%struct.blockTrans.14 = type { double*, double*, i32*, i32*, i32* }
%struct.blockTrans.16 = type { i8**, i8**, i32*, i32*, i32* }

$_ZN11commandLine17getOptionIntValueENSt7__cxx1112basic_stringIcSt11char_traitsIcESaIcEEEi = comdat any

$_Z8timeSortIiSt4lessIiEEvPT_iT0_ibPc = comdat any

$_Z8timeSortISt4pairIiiE8pairLessEvPT_iT0_ibPc = comdat any

$_Z8timeSortIdSt4lessIdEEvPT_iT0_ibPc = comdat any

$_Z8timeSortIPc6strCmpEvPT_iT0_ibS0_ = comdat any

$_ZN8sequence4packIllN5utils9identityFIlEEEE4_seqIT_EPS5_PbT0_S9_T1_ = comdat any

$_ZN8sequence10packSerialIllN5utils9identityFIlEEEE4_seqIT_EPS5_PbT0_S9_T1_ = comdat any

$_ZN8sequence4scanIllN5utils4addFIlEENS_4getAIllEEEET_PS6_T0_S8_T1_T2_S6_bb = comdat any

$_Z8randPermIiEvPT_i = comdat any

$_Z10sampleSortIiSt4lessIiEiEvPT_T1_T0_ = comdat any

$_ZN5timer7reportTEd = comdat any

$_ZN8sequence4packIiiNS_4getAIiiEEEE4_seqIT_EPS4_PbT0_S8_T1_ = comdat any

$_ZN8sequence10packSerialIiiNS_4getAIiiEEEE4_seqIT_EPS4_PbT0_S8_T1_ = comdat any

$_ZN8sequence4scanIiiN5utils4addFIiEENS_4getAIiiEEEET_PS6_T0_S8_T1_T2_S6_bb = comdat any

$_Z9quickSortIiSt4lessIiEiEvPT_T1_T0_ = comdat any

$_Z9quickSortIiSt4lessIiElEvPT_T1_T0_ = comdat any

$_Z15quickSortSerialIiSt4lessIiElEvPT_T1_T0_ = comdat any

$_ZN8sequence4scanIilSt4plusIiENS_4getAIilEEEET_PS5_T0_S7_T1_T2_S5_bb = comdat any

$_ZN9transposeIiiE6transREiiiiii = comdat any

$_ZN10blockTransIiiE6transREiiiiii = comdat any

$_ZN7benchIO16writeArrayToFileIiEEiNSt7__cxx1112basic_stringIcSt11char_traitsIcESaIcEEEPT_lPc = comdat any

$_ZN7benchIO13arrayToStringIiEE4_seqIcEPT_l = comdat any

$_ZN8sequence6filterIclN7benchIO7notZeroEEET0_PT_S5_S3_T1_ = comdat any

$_ZN8sequence4packIclNS_4getAIclEEEE4_seqIT_EPS4_PbT0_S8_T1_ = comdat any

$_ZN8sequence10packSerialIclNS_4getAIclEEEE4_seqIT_EPS4_PbT0_S8_T1_ = comdat any

$_Z8randPermISt4pairIiiEEvPT_i = comdat any

$_Z10sampleSortISt4pairIiiE8pairLessiEvPT_T1_T0_ = comdat any

$_Z9quickSortISt4pairIiiE8pairLessiEvPT_T1_T0_ = comdat any

$_Z9quickSortISt4pairIiiE8pairLesslEvPT_T1_T0_ = comdat any

$_Z5splitISt4pairIiiE8pairLessiES0_IPT_S4_ES4_T1_T0_ = comdat any

$_Z15quickSortSerialISt4pairIiiE8pairLesslEvPT_T1_T0_ = comdat any

$_Z5splitISt4pairIiiE8pairLesslES0_IPT_S4_ES4_T1_T0_ = comdat any

$_ZN10blockTransISt4pairIiiEiE6transREiiiiii = comdat any

$_ZN7benchIO16writeArrayToFileISt4pairIiiEEEiNSt7__cxx1112basic_stringIcSt11char_traitsIcESaIcEEEPT_lPc = comdat any

$_ZN7benchIO13arrayToStringISt4pairIiiEEE4_seqIcEPT_l = comdat any

$_Z8randPermIdEvPT_i = comdat any

$_Z10sampleSortIdSt4lessIdEiEvPT_T1_T0_ = comdat any

$_Z9quickSortIdSt4lessIdEiEvPT_T1_T0_ = comdat any

$_Z9quickSortIdSt4lessIdElEvPT_T1_T0_ = comdat any

$_Z15quickSortSerialIdSt4lessIdElEvPT_T1_T0_ = comdat any

$_ZN10blockTransIdiE6transREiiiiii = comdat any

$_ZN7benchIO16writeArrayToFileIdEEiNSt7__cxx1112basic_stringIcSt11char_traitsIcESaIcEEEPT_lPc = comdat any

$_ZN7benchIO13arrayToStringIdEE4_seqIcEPT_l = comdat any

$_Z8randPermIPcEvPT_i = comdat any

$_Z10sampleSortIPc6strCmpiEvPT_T1_T0_ = comdat any

$_Z9quickSortIPc6strCmpiEvPT_T1_T0_ = comdat any

$_Z9quickSortIPc6strCmplEvPT_T1_T0_ = comdat any

$_Z8mergeSeqIPc6strCmpiEvPT_S3_PT1_llT0_ = comdat any

$_Z5splitIPc6strCmpiESt4pairIPT_S4_ES4_T1_T0_ = comdat any

$_Z15quickSortSerialIPc6strCmplEvPT_T1_T0_ = comdat any

$_Z5splitIPc6strCmplESt4pairIPT_S4_ES4_T1_T0_ = comdat any

$_Z13medianOfThreeIPc6strCmpET_S2_S2_S2_T0_ = comdat any

$_ZN10blockTransIPciE6transREiiiiii = comdat any

$_ZN7benchIO16writeArrayToFileIPcEEiNSt7__cxx1112basic_stringIcSt11char_traitsIcESaIcEEEPT_lS1_ = comdat any

$_ZN7benchIO13arrayToStringIPcEE4_seqIcEPT_l = comdat any

@_ZStL8__ioinit = internal global %"class.std::ios_base::Init" zeroinitializer, align 1
@__dso_handle = external hidden global i8
@_ZL3_tm = internal global %struct.timer zeroinitializer, align 8
@_ZSt4cout = external global %"class.std::basic_ostream", align 8
@.str = private unnamed_addr constant [22 x i8] c"Unable to open file: \00", align 1
@_ZN7benchIO11intHeaderIOB5cxx11E = global %"class.std::__cxx11::basic_string" zeroinitializer, align 8
@.str.5 = private unnamed_addr constant [12 x i8] c"sequenceInt\00", align 1
@.str.6 = private unnamed_addr constant [15 x i8] c"sequenceDouble\00", align 1
@.str.7 = private unnamed_addr constant [13 x i8] c"sequenceChar\00", align 1
@.str.8 = private unnamed_addr constant [16 x i8] c"sequenceIntPair\00", align 1
@.str.9 = private unnamed_addr constant [22 x i8] c"sequenceStringIntPair\00", align 1
@.str.10 = private unnamed_addr constant [37 x i8] c"writeArrayToFile: type not supported\00", align 1
@.str.11 = private unnamed_addr constant [7 x i8] c"double\00", align 1
@.str.12 = private unnamed_addr constant [7 x i8] c"string\00", align 1
@.str.13 = private unnamed_addr constant [4 x i8] c"int\00", align 1
@.str.14 = private unnamed_addr constant [43 x i8] c"[-p] [-o <outFile>] [-r <rounds>] <inFile>\00", align 1
@.str.18 = private unnamed_addr constant [45 x i8] c"comparisonSort: input file not of right type\00", align 1
@.str.19 = private unnamed_addr constant [42 x i8] c"basic_string::_M_construct null not valid\00", align 1
@.str.20 = private unnamed_addr constant [8 x i8] c"usage: \00", align 1
@.str.21 = private unnamed_addr constant [2 x i8] c" \00", align 1
@_ZTTSt14basic_ifstreamIcSt11char_traitsIcEE = external unnamed_addr constant [4 x i8*]
@.str.22 = private unnamed_addr constant [12 x i8] c"PBBS-time: \00", align 1
@.str.23 = private unnamed_addr constant [3 x i8] c"%d\00", align 1
@.str.24 = private unnamed_addr constant [7 x i8] c"%.11le\00", align 1
@llvm.global_ctors = appending global [1 x { i32, void ()*, i8* }] [{ i32, void ()*, i8* } { i32 65535, void ()* @_GLOBAL__sub_I_sortTime.C, i8* null }]

declare void @_ZNSt8ios_base4InitC1Ev(%"class.std::ios_base::Init"*) unnamed_addr #0

declare i32 @__gxx_personality_v0(...)

; Function Attrs: nounwind
declare void @_ZNSt8ios_base4InitD1Ev(%"class.std::ios_base::Init"*) unnamed_addr #1

; Function Attrs: nounwind
declare i32 @__cxa_atexit(void (i8*)*, i8*, i8*) local_unnamed_addr #2

; Function Attrs: nounwind
declare i32 @mallopt(i32, i32) local_unnamed_addr #1

; Function Attrs: norecurse nounwind readnone uwtable
define i64 @_Z7hashValm(i64 %a) local_unnamed_addr #3 {
entry:
  %mul = mul i64 %a, 982451653
  %add = add i64 %mul, 12345
  ret i64 %add
}

; Function Attrs: uwtable
define void @_ZN7benchIO13stringToWordsEPcl(%"struct.benchIO::words"* noalias nocapture sret %agg.result, i8* %Str, i64 %n) local_unnamed_addr #4 personality i8* bitcast (i32 (...)* @__gxx_personality_v0 to i8*) {
entry:
  %0 = tail call i32 @__cilkrts_get_nworkers()
  %__cilkrts_wc8139 = shl i32 %0, 3
  %cmp135 = icmp sgt i64 %n, 0
  br i1 %cmp135, label %pfor.detach.preheader, label %sync.continue

pfor.detach.preheader:                            ; preds = %entry
  %sub1 = add nsw i64 %n, -1
  %1 = zext i32 %__cilkrts_wc8139 to i64
  %2 = add i64 %n, -2
  %3 = add i64 %2, %1
  %4 = udiv i64 %3, %1
  %5 = icmp ult i64 %4, 2048
  %6 = select i1 %5, i64 %4, i64 2048
  call fastcc void @_ZN7benchIO13stringToWordsEPcl_pfor.detach.ls(i64 0, i64 %sub1, i64 %6, i8* %Str)
  br label %sync.continue

sync.continue:                                    ; preds = %pfor.detach.preheader, %entry
  %call10 = tail call noalias i8* @malloc(i64 %n) #2
  %7 = load i8, i8* %Str, align 1, !tbaa !2
  %tobool = icmp ne i8 %7, 0
  %frombool = zext i1 %tobool to i8
  store i8 %frombool, i8* %call10, align 1, !tbaa !5
  %cmp22133 = icmp sgt i64 %n, 1
  br i1 %cmp22133, label %pfor.detach24.preheader, label %sync.continue40

pfor.detach24.preheader:                          ; preds = %sync.continue
  %8 = add i64 %n, -2
  %9 = zext i32 %__cilkrts_wc8139 to i64
  %10 = add i64 %n, -3
  %11 = add i64 %10, %9
  %12 = udiv i64 %11, %9
  %13 = icmp ult i64 %12, 2048
  %14 = select i1 %13, i64 %12, i64 2048
  tail call fastcc void @_ZN7benchIO13stringToWordsEPcl_pfor.detach24.ls(i64 0, i64 %8, i64 %14, i8* nonnull %Str, i8* %call10)
  br label %sync.continue40

sync.continue40:                                  ; preds = %sync.continue, %pfor.detach24.preheader
  %call.i130 = call { i64*, i64 } @_ZN8sequence4packIllN5utils9identityFIlEEEE4_seqIT_EPS5_PbT0_S9_T1_(i64* null, i8* %call10, i64 0, i64 %n)
  %15 = extractvalue { i64*, i64 } %call.i130, 0
  %16 = extractvalue { i64*, i64 } %call.i130, 1
  %mul46 = shl i64 %16, 3
  %call47 = tail call noalias i8* @malloc(i64 %mul46) #2
  %cmp57131 = icmp sgt i64 %16, 0
  br i1 %cmp57131, label %pfor.detach59.preheader, label %sync.continue69

pfor.detach59.preheader:                          ; preds = %sync.continue40
  %17 = bitcast i8* %call47 to i8**
  %18 = add i64 %16, -1
  %19 = zext i32 %__cilkrts_wc8139 to i64
  %20 = add nsw i64 %19, -1
  %21 = add i64 %20, %18
  %22 = udiv i64 %21, %19
  %23 = icmp ult i64 %22, 2048
  %24 = select i1 %23, i64 %22, i64 2048
  tail call fastcc void @_ZN7benchIO13stringToWordsEPcl_pfor.detach59.ls(i64 0, i64 %18, i64 %24, i64* %15, i8* nonnull %Str, i8** %17)
  br label %sync.continue69

sync.continue69:                                  ; preds = %sync.continue40, %pfor.detach59.preheader
  %25 = bitcast i64* %15 to i8*
  tail call void @free(i8* %25) #2
  tail call void @free(i8* %call10) #2
  %n.i = getelementptr inbounds %"struct.benchIO::words", %"struct.benchIO::words"* %agg.result, i64 0, i32 0
  store i64 %n, i64* %n.i, align 8, !tbaa !7
  %Chars.i = getelementptr inbounds %"struct.benchIO::words", %"struct.benchIO::words"* %agg.result, i64 0, i32 1
  store i8* %Str, i8** %Chars.i, align 8, !tbaa !11
  %m.i = getelementptr inbounds %"struct.benchIO::words", %"struct.benchIO::words"* %agg.result, i64 0, i32 2
  store i64 %16, i64* %m.i, align 8, !tbaa !12
  %Strings.i = getelementptr inbounds %"struct.benchIO::words", %"struct.benchIO::words"* %agg.result, i64 0, i32 3
  %26 = bitcast i8*** %Strings.i to i8**
  store i8* %call47, i8** %26, align 8, !tbaa !13
  ret void
}

; Function Attrs: argmemonly nounwind
declare void @llvm.lifetime.start.p0i8(i64, i8* nocapture) #5

; Function Attrs: argmemonly nounwind
declare void @llvm.lifetime.end.p0i8(i64, i8* nocapture) #5

; Function Attrs: nounwind
declare noalias i8* @malloc(i64) local_unnamed_addr #1

; Function Attrs: nounwind
declare void @free(i8* nocapture) local_unnamed_addr #1

; Function Attrs: uwtable
define i32 @_ZN7benchIO17writeStringToFileEPclS0_(i8* %S, i64 %n, i8* %fileName) local_unnamed_addr #4 personality i8* bitcast (i32 (...)* @__gxx_personality_v0 to i8*) {
entry:
  %file = alloca %"class.std::basic_ofstream", align 8
  %0 = bitcast %"class.std::basic_ofstream"* %file to i8*
  call void @llvm.lifetime.start.p0i8(i64 512, i8* nonnull %0) #2
  invoke void @_ZNSt14basic_ofstreamIcSt11char_traitsIcEEC1EPKcSt13_Ios_Openmode(%"class.std::basic_ofstream"* nonnull %file, i8* %fileName, i32 20)
          to label %invoke.cont1 unwind label %lpad

invoke.cont1:                                     ; preds = %entry
  %_M_file.i.i = getelementptr inbounds %"class.std::basic_ofstream", %"class.std::basic_ofstream"* %file, i64 0, i32 1, i32 2
  %call.i.i = call zeroext i1 @_ZNKSt12__basic_fileIcE7is_openEv(%"class.std::__basic_file"* nonnull %_M_file.i.i) #20
  br i1 %call.i.i, label %if.end, label %if.then

if.then:                                          ; preds = %invoke.cont1
  %call3.i20 = invoke dereferenceable(272) %"class.std::basic_ostream"* @_ZSt16__ostream_insertIcSt11char_traitsIcEERSt13basic_ostreamIT_T0_ES6_PKS3_l(%"class.std::basic_ostream"* nonnull dereferenceable(272) @_ZSt4cout, i8* nonnull getelementptr inbounds ([22 x i8], [22 x i8]* @.str, i64 0, i64 0), i64 21)
          to label %invoke.cont5 unwind label %lpad2

invoke.cont5:                                     ; preds = %if.then
  %tobool.i = icmp eq i8* %fileName, null
  br i1 %tobool.i, label %if.then.i, label %if.else.i

if.then.i:                                        ; preds = %invoke.cont5
  %vtable.i = load i8*, i8** bitcast (%"class.std::basic_ostream"* @_ZSt4cout to i8**), align 8, !tbaa !14
  %vbase.offset.ptr.i = getelementptr i8, i8* %vtable.i, i64 -24
  %1 = bitcast i8* %vbase.offset.ptr.i to i64*
  %vbase.offset.i = load i64, i64* %1, align 8
  %add.ptr.i = getelementptr inbounds i8, i8* bitcast (%"class.std::basic_ostream"* @_ZSt4cout to i8*), i64 %vbase.offset.i
  %2 = bitcast i8* %add.ptr.i to %"class.std::basic_ios"*
  %_M_streambuf_state.i.i.i = getelementptr inbounds i8, i8* %add.ptr.i, i64 32
  %3 = bitcast i8* %_M_streambuf_state.i.i.i to i32*
  %4 = load i32, i32* %3, align 8, !tbaa !16
  %or.i.i.i = or i32 %4, 1
  invoke void @_ZNSt9basic_iosIcSt11char_traitsIcEE5clearESt12_Ios_Iostate(%"class.std::basic_ios"* %2, i32 %or.i.i.i)
          to label %invoke.cont7 unwind label %lpad2

if.else.i:                                        ; preds = %invoke.cont5
  %call.i.i21 = call i64 @strlen(i8* nonnull %fileName) #2
  %call3.i22 = invoke dereferenceable(272) %"class.std::basic_ostream"* @_ZSt16__ostream_insertIcSt11char_traitsIcEERSt13basic_ostreamIT_T0_ES6_PKS3_l(%"class.std::basic_ostream"* nonnull dereferenceable(272) @_ZSt4cout, i8* nonnull %fileName, i64 %call.i.i21)
          to label %invoke.cont7 unwind label %lpad2

invoke.cont7:                                     ; preds = %if.then.i, %if.else.i
  %vtable.i25 = load i8*, i8** bitcast (%"class.std::basic_ostream"* @_ZSt4cout to i8**), align 8, !tbaa !14
  %vbase.offset.ptr.i26 = getelementptr i8, i8* %vtable.i25, i64 -24
  %5 = bitcast i8* %vbase.offset.ptr.i26 to i64*
  %vbase.offset.i27 = load i64, i64* %5, align 8
  %add.ptr.i28 = getelementptr inbounds i8, i8* bitcast (%"class.std::basic_ostream"* @_ZSt4cout to i8*), i64 %vbase.offset.i27
  %_M_ctype.i = getelementptr inbounds i8, i8* %add.ptr.i28, i64 240
  %6 = bitcast i8* %_M_ctype.i to %"class.std::ctype"**
  %7 = load %"class.std::ctype"*, %"class.std::ctype"** %6, align 8, !tbaa !23
  %tobool.i55 = icmp eq %"class.std::ctype"* %7, null
  br i1 %tobool.i55, label %if.then.i56, label %call.i.noexc45

if.then.i56:                                      ; preds = %invoke.cont7
  invoke void @_ZSt16__throw_bad_castv() #21
          to label %.noexc58 unwind label %lpad2

.noexc58:                                         ; preds = %if.then.i56
  unreachable

call.i.noexc45:                                   ; preds = %invoke.cont7
  %_M_widen_ok.i = getelementptr inbounds %"class.std::ctype", %"class.std::ctype"* %7, i64 0, i32 8
  %8 = load i8, i8* %_M_widen_ok.i, align 8, !tbaa !25
  %tobool.i49 = icmp eq i8 %8, 0
  br i1 %tobool.i49, label %if.end.i, label %if.then.i50

if.then.i50:                                      ; preds = %call.i.noexc45
  %arrayidx.i = getelementptr inbounds %"class.std::ctype", %"class.std::ctype"* %7, i64 0, i32 9, i64 10
  %9 = load i8, i8* %arrayidx.i, align 1, !tbaa !2
  br label %call.i.noexc

if.end.i:                                         ; preds = %call.i.noexc45
  invoke void @_ZNKSt5ctypeIcE13_M_widen_initEv(%"class.std::ctype"* nonnull %7)
          to label %.noexc52 unwind label %lpad2

.noexc52:                                         ; preds = %if.end.i
  %10 = bitcast %"class.std::ctype"* %7 to i8 (%"class.std::ctype"*, i8)***
  %vtable.i51 = load i8 (%"class.std::ctype"*, i8)**, i8 (%"class.std::ctype"*, i8)*** %10, align 8, !tbaa !14
  %vfn.i = getelementptr inbounds i8 (%"class.std::ctype"*, i8)*, i8 (%"class.std::ctype"*, i8)** %vtable.i51, i64 6
  %11 = load i8 (%"class.std::ctype"*, i8)*, i8 (%"class.std::ctype"*, i8)** %vfn.i, align 8
  %call.i54 = invoke signext i8 %11(%"class.std::ctype"* nonnull %7, i8 signext 10)
          to label %call.i.noexc unwind label %lpad2

call.i.noexc:                                     ; preds = %.noexc52, %if.then.i50
  %retval.0.i = phi i8 [ %9, %if.then.i50 ], [ %call.i54, %.noexc52 ]
  %call2.i30 = invoke dereferenceable(272) %"class.std::basic_ostream"* @_ZNSo3putEc(%"class.std::basic_ostream"* nonnull @_ZSt4cout, i8 signext %retval.0.i)
          to label %call2.i.noexc unwind label %lpad2

call2.i.noexc:                                    ; preds = %call.i.noexc
  %call.i33 = invoke dereferenceable(272) %"class.std::basic_ostream"* @_ZNSo5flushEv(%"class.std::basic_ostream"* nonnull %call2.i30)
          to label %cleanup unwind label %lpad2

lpad:                                             ; preds = %entry
  %12 = landingpad { i8*, i32 }
          cleanup
  %13 = extractvalue { i8*, i32 } %12, 0
  %14 = extractvalue { i8*, i32 } %12, 1
  br label %ehcleanup

lpad2:                                            ; preds = %if.then.i56, %.noexc52, %if.end.i, %if.then.i41, %invoke.cont11, %call2.i.noexc, %call.i.noexc, %if.else.i, %if.then.i, %if.then, %if.end
  %15 = landingpad { i8*, i32 }
          cleanup
  %16 = extractvalue { i8*, i32 } %15, 0
  %17 = extractvalue { i8*, i32 } %15, 1
  call void @_ZNSt14basic_ofstreamIcSt11char_traitsIcEED1Ev(%"class.std::basic_ofstream"* nonnull %file) #2
  br label %ehcleanup

if.end:                                           ; preds = %invoke.cont1
  %18 = bitcast %"class.std::basic_ofstream"* %file to %"class.std::basic_ostream"*
  %call12 = invoke dereferenceable(272) %"class.std::basic_ostream"* @_ZNSo5writeEPKcl(%"class.std::basic_ostream"* nonnull %18, i8* %S, i64 %n)
          to label %invoke.cont11 unwind label %lpad2

invoke.cont11:                                    ; preds = %if.end
  %_M_filebuf.i = getelementptr inbounds %"class.std::basic_ofstream", %"class.std::basic_ofstream"* %file, i64 0, i32 1
  %call.i43 = invoke %"class.std::basic_filebuf"* @_ZNSt13basic_filebufIcSt11char_traitsIcEE5closeEv(%"class.std::basic_filebuf"* nonnull %_M_filebuf.i)
          to label %call.i.noexc42 unwind label %lpad2

call.i.noexc42:                                   ; preds = %invoke.cont11
  %tobool.i34 = icmp eq %"class.std::basic_filebuf"* %call.i43, null
  br i1 %tobool.i34, label %if.then.i41, label %cleanup

if.then.i41:                                      ; preds = %call.i.noexc42
  %19 = bitcast %"class.std::basic_ofstream"* %file to i8**
  %vtable.i35 = load i8*, i8** %19, align 8, !tbaa !14
  %vbase.offset.ptr.i36 = getelementptr i8, i8* %vtable.i35, i64 -24
  %20 = bitcast i8* %vbase.offset.ptr.i36 to i64*
  %vbase.offset.i37 = load i64, i64* %20, align 8
  %add.ptr.i38 = getelementptr inbounds i8, i8* %0, i64 %vbase.offset.i37
  %21 = bitcast i8* %add.ptr.i38 to %"class.std::basic_ios"*
  %_M_streambuf_state.i.i.i39 = getelementptr inbounds i8, i8* %add.ptr.i38, i64 32
  %22 = bitcast i8* %_M_streambuf_state.i.i.i39 to i32*
  %23 = load i32, i32* %22, align 8, !tbaa !16
  %or.i.i.i40 = or i32 %23, 4
  invoke void @_ZNSt9basic_iosIcSt11char_traitsIcEE5clearESt12_Ios_Iostate(%"class.std::basic_ios"* %21, i32 %or.i.i.i40)
          to label %cleanup unwind label %lpad2

cleanup:                                          ; preds = %call.i.noexc42, %if.then.i41, %call2.i.noexc
  %retval.0 = phi i32 [ 1, %call2.i.noexc ], [ 0, %if.then.i41 ], [ 0, %call.i.noexc42 ]
  call void @_ZNSt14basic_ofstreamIcSt11char_traitsIcEED1Ev(%"class.std::basic_ofstream"* nonnull %file) #2
  call void @llvm.lifetime.end.p0i8(i64 512, i8* nonnull %0) #2
  ret i32 %retval.0

ehcleanup:                                        ; preds = %lpad2, %lpad
  %exn.slot.0 = phi i8* [ %16, %lpad2 ], [ %13, %lpad ]
  %ehselector.slot.0 = phi i32 [ %17, %lpad2 ], [ %14, %lpad ]
  call void @llvm.lifetime.end.p0i8(i64 512, i8* nonnull %0) #2
  %lpad.val = insertvalue { i8*, i32 } undef, i8* %exn.slot.0, 0
  %lpad.val17 = insertvalue { i8*, i32 } %lpad.val, i32 %ehselector.slot.0, 1
  resume { i8*, i32 } %lpad.val17
}

; Function Attrs: uwtable
declare void @_ZNSt14basic_ofstreamIcSt11char_traitsIcEEC1EPKcSt13_Ios_Openmode(%"class.std::basic_ofstream"*, i8*, i32) unnamed_addr #4 align 2

; Function Attrs: inlinehint uwtable
declare dereferenceable(272) %"class.std::basic_ostream"* @_ZSt4endlIcSt11char_traitsIcEERSt13basic_ostreamIT_T0_ES6_(%"class.std::basic_ostream"* dereferenceable(272)) local_unnamed_addr #6

declare dereferenceable(272) %"class.std::basic_ostream"* @_ZNSo5writeEPKcl(%"class.std::basic_ostream"*, i8*, i64) local_unnamed_addr #0

; Function Attrs: nounwind uwtable
declare void @_ZNSt14basic_ofstreamIcSt11char_traitsIcEED1Ev(%"class.std::basic_ofstream"*) unnamed_addr #7 align 2

; Function Attrs: uwtable
define { i8*, i64 } @_ZN7benchIO18readStringFromFileEPc(i8* %fileName) local_unnamed_addr #4 personality i8* bitcast (i32 (...)* @__gxx_personality_v0 to i8*) {
entry:
  %0 = tail call i32 @__cilkrts_get_nworkers()
  %__cilkrts_wc8 = shl i32 %0, 3
  %file = alloca %"class.std::basic_ifstream", align 8
  %1 = bitcast %"class.std::basic_ifstream"* %file to i8*
  call void @llvm.lifetime.start.p0i8(i64 520, i8* nonnull %1) #2
  invoke void @_ZNSt14basic_ifstreamIcSt11char_traitsIcEEC1EPKcSt13_Ios_Openmode(%"class.std::basic_ifstream"* nonnull %file, i8* %fileName, i32 14)
          to label %invoke.cont3 unwind label %lpad

invoke.cont3:                                     ; preds = %entry
  %_M_file.i.i = getelementptr inbounds %"class.std::basic_ifstream", %"class.std::basic_ifstream"* %file, i64 0, i32 1, i32 2
  %call.i.i = call zeroext i1 @_ZNKSt12__basic_fileIcE7is_openEv(%"class.std::__basic_file"* nonnull %_M_file.i.i) #20
  br i1 %call.i.i, label %if.end, label %if.then

if.then:                                          ; preds = %invoke.cont3
  %call3.i62 = invoke dereferenceable(272) %"class.std::basic_ostream"* @_ZSt16__ostream_insertIcSt11char_traitsIcEERSt13basic_ostreamIT_T0_ES6_PKS3_l(%"class.std::basic_ostream"* nonnull dereferenceable(272) @_ZSt4cout, i8* nonnull getelementptr inbounds ([22 x i8], [22 x i8]* @.str, i64 0, i64 0), i64 21)
          to label %invoke.cont7 unwind label %lpad4

invoke.cont7:                                     ; preds = %if.then
  %tobool.i = icmp eq i8* %fileName, null
  br i1 %tobool.i, label %if.then.i, label %if.else.i

if.then.i:                                        ; preds = %invoke.cont7
  %vtable.i = load i8*, i8** bitcast (%"class.std::basic_ostream"* @_ZSt4cout to i8**), align 8, !tbaa !14
  %vbase.offset.ptr.i = getelementptr i8, i8* %vtable.i, i64 -24
  %2 = bitcast i8* %vbase.offset.ptr.i to i64*
  %vbase.offset.i = load i64, i64* %2, align 8
  %add.ptr.i = getelementptr inbounds i8, i8* bitcast (%"class.std::basic_ostream"* @_ZSt4cout to i8*), i64 %vbase.offset.i
  %3 = bitcast i8* %add.ptr.i to %"class.std::basic_ios"*
  %_M_streambuf_state.i.i.i = getelementptr inbounds i8, i8* %add.ptr.i, i64 32
  %4 = bitcast i8* %_M_streambuf_state.i.i.i to i32*
  %5 = load i32, i32* %4, align 8, !tbaa !16
  %or.i.i.i = or i32 %5, 1
  invoke void @_ZNSt9basic_iosIcSt11char_traitsIcEE5clearESt12_Ios_Iostate(%"class.std::basic_ios"* %3, i32 %or.i.i.i)
          to label %invoke.cont9 unwind label %lpad4

if.else.i:                                        ; preds = %invoke.cont7
  %call.i.i63 = call i64 @strlen(i8* nonnull %fileName) #2
  %call3.i64 = invoke dereferenceable(272) %"class.std::basic_ostream"* @_ZSt16__ostream_insertIcSt11char_traitsIcEERSt13basic_ostreamIT_T0_ES6_PKS3_l(%"class.std::basic_ostream"* nonnull dereferenceable(272) @_ZSt4cout, i8* nonnull %fileName, i64 %call.i.i63)
          to label %invoke.cont9 unwind label %lpad4

invoke.cont9:                                     ; preds = %if.then.i, %if.else.i
  %vtable.i67 = load i8*, i8** bitcast (%"class.std::basic_ostream"* @_ZSt4cout to i8**), align 8, !tbaa !14
  %vbase.offset.ptr.i68 = getelementptr i8, i8* %vtable.i67, i64 -24
  %6 = bitcast i8* %vbase.offset.ptr.i68 to i64*
  %vbase.offset.i69 = load i64, i64* %6, align 8
  %add.ptr.i70 = getelementptr inbounds i8, i8* bitcast (%"class.std::basic_ostream"* @_ZSt4cout to i8*), i64 %vbase.offset.i69
  %_M_ctype.i.i = getelementptr inbounds i8, i8* %add.ptr.i70, i64 240
  %7 = bitcast i8* %_M_ctype.i.i to %"class.std::ctype"**
  %8 = load %"class.std::ctype"*, %"class.std::ctype"** %7, align 8, !tbaa !23
  %tobool.i.i.i = icmp eq %"class.std::ctype"* %8, null
  br i1 %tobool.i.i.i, label %if.then.i.i.i, label %_ZSt13__check_facetISt5ctypeIcEERKT_PS3_.exit.i.i

if.then.i.i.i:                                    ; preds = %invoke.cont9
  invoke void @_ZSt16__throw_bad_castv() #21
          to label %.noexc72 unwind label %lpad4

.noexc72:                                         ; preds = %if.then.i.i.i
  unreachable

_ZSt13__check_facetISt5ctypeIcEERKT_PS3_.exit.i.i: ; preds = %invoke.cont9
  %_M_widen_ok.i.i.i = getelementptr inbounds %"class.std::ctype", %"class.std::ctype"* %8, i64 0, i32 8
  %9 = load i8, i8* %_M_widen_ok.i.i.i, align 8, !tbaa !25
  %tobool.i5.i.i = icmp eq i8 %9, 0
  br i1 %tobool.i5.i.i, label %if.end.i.i.i, label %if.then.i6.i.i

if.then.i6.i.i:                                   ; preds = %_ZSt13__check_facetISt5ctypeIcEERKT_PS3_.exit.i.i
  %arrayidx.i.i.i = getelementptr inbounds %"class.std::ctype", %"class.std::ctype"* %8, i64 0, i32 9, i64 10
  %10 = load i8, i8* %arrayidx.i.i.i, align 1, !tbaa !2
  br label %_ZNKSt9basic_iosIcSt11char_traitsIcEE5widenEc.exit.i

if.end.i.i.i:                                     ; preds = %_ZSt13__check_facetISt5ctypeIcEERKT_PS3_.exit.i.i
  invoke void @_ZNKSt5ctypeIcE13_M_widen_initEv(%"class.std::ctype"* nonnull %8)
          to label %.noexc73 unwind label %lpad4

.noexc73:                                         ; preds = %if.end.i.i.i
  %11 = bitcast %"class.std::ctype"* %8 to i8 (%"class.std::ctype"*, i8)***
  %vtable.i.i.i = load i8 (%"class.std::ctype"*, i8)**, i8 (%"class.std::ctype"*, i8)*** %11, align 8, !tbaa !14
  %vfn.i.i.i = getelementptr inbounds i8 (%"class.std::ctype"*, i8)*, i8 (%"class.std::ctype"*, i8)** %vtable.i.i.i, i64 6
  %12 = load i8 (%"class.std::ctype"*, i8)*, i8 (%"class.std::ctype"*, i8)** %vfn.i.i.i, align 8
  %call.i.i.i74 = invoke signext i8 %12(%"class.std::ctype"* nonnull %8, i8 signext 10)
          to label %_ZNKSt9basic_iosIcSt11char_traitsIcEE5widenEc.exit.i unwind label %lpad4

_ZNKSt9basic_iosIcSt11char_traitsIcEE5widenEc.exit.i: ; preds = %.noexc73, %if.then.i6.i.i
  %retval.0.i.i.i = phi i8 [ %10, %if.then.i6.i.i ], [ %call.i.i.i74, %.noexc73 ]
  %call2.i75 = invoke dereferenceable(272) %"class.std::basic_ostream"* @_ZNSo3putEc(%"class.std::basic_ostream"* nonnull @_ZSt4cout, i8 signext %retval.0.i.i.i)
          to label %call2.i.noexc unwind label %lpad4

call2.i.noexc:                                    ; preds = %_ZNKSt9basic_iosIcSt11char_traitsIcEE5widenEc.exit.i
  %call.i.i7176 = invoke dereferenceable(272) %"class.std::basic_ostream"* @_ZNSo5flushEv(%"class.std::basic_ostream"* nonnull %call2.i75)
          to label %invoke.cont11 unwind label %lpad4

invoke.cont11:                                    ; preds = %call2.i.noexc
  call void @abort() #22
  unreachable

lpad:                                             ; preds = %entry
  %13 = landingpad { i8*, i32 }
          cleanup
  %14 = extractvalue { i8*, i32 } %13, 0
  %15 = extractvalue { i8*, i32 } %13, 1
  br label %ehcleanup40

lpad4:                                            ; preds = %call2.i.noexc, %_ZNKSt9basic_iosIcSt11char_traitsIcEE5widenEc.exit.i, %.noexc73, %if.end.i.i.i, %if.then.i.i.i, %if.else.i, %if.then.i, %if.then
  %16 = landingpad { i8*, i32 }
          cleanup
  br label %ehcleanup39

if.end:                                           ; preds = %invoke.cont3
  %17 = bitcast %"class.std::basic_ifstream"* %file to %"class.std::basic_istream"*
  %call15 = invoke { i64, i64 } @_ZNSi5tellgEv(%"class.std::basic_istream"* nonnull %17)
          to label %invoke.cont14 unwind label %lpad13

invoke.cont14:                                    ; preds = %if.end
  %18 = extractvalue { i64, i64 } %call15, 0
  %call19 = invoke dereferenceable(280) %"class.std::basic_istream"* @_ZNSi5seekgElSt12_Ios_Seekdir(%"class.std::basic_istream"* nonnull %17, i64 0, i32 0)
          to label %invoke.cont18 unwind label %lpad13

invoke.cont18:                                    ; preds = %invoke.cont14
  %call22 = invoke { i64, i64 } @_ZNSi5tellgEv(%"class.std::basic_istream"* nonnull %17)
          to label %invoke.cont21 unwind label %lpad20

invoke.cont21:                                    ; preds = %invoke.cont18
  %19 = extractvalue { i64, i64 } %call22, 0
  %sub = sub nsw i64 %18, %19
  %add = add nsw i64 %sub, 1
  %call26 = call noalias i8* @malloc(i64 %add) #2
  %cmp88 = icmp slt i64 %sub, 0
  br i1 %cmp88, label %sync.continue, label %pfor.detach.lr.ph

pfor.detach.lr.ph:                                ; preds = %invoke.cont21
  %20 = zext i32 %__cilkrts_wc8 to i64
  %21 = add nsw i64 %20, -1
  %22 = add i64 %21, %sub
  %23 = udiv i64 %22, %20
  %24 = icmp ult i64 %23, 2048
  %25 = select i1 %24, i64 %23, i64 2048
  call fastcc void @_ZN7benchIO18readStringFromFileEPc_pfor.detach.ls(i64 0, i64 %sub, i64 %25, i8* %call26)
  br label %sync.continue

lpad13:                                           ; preds = %invoke.cont14, %if.end
  %26 = landingpad { i8*, i32 }
          cleanup
  br label %ehcleanup39

lpad20:                                           ; preds = %invoke.cont18
  %27 = landingpad { i8*, i32 }
          cleanup
  br label %ehcleanup39

sync.continue:                                    ; preds = %invoke.cont21, %pfor.detach.lr.ph
  %call35 = invoke dereferenceable(280) %"class.std::basic_istream"* @_ZNSi4readEPcl(%"class.std::basic_istream"* nonnull %17, i8* %call26, i64 %sub)
          to label %invoke.cont34 unwind label %lpad33

invoke.cont34:                                    ; preds = %sync.continue
  %_M_filebuf.i = getelementptr inbounds %"class.std::basic_ifstream", %"class.std::basic_ifstream"* %file, i64 0, i32 1
  %call.i86 = invoke %"class.std::basic_filebuf"* @_ZNSt13basic_filebufIcSt11char_traitsIcEE5closeEv(%"class.std::basic_filebuf"* nonnull %_M_filebuf.i)
          to label %call.i.noexc unwind label %lpad33

call.i.noexc:                                     ; preds = %invoke.cont34
  %tobool.i78 = icmp eq %"class.std::basic_filebuf"* %call.i86, null
  br i1 %tobool.i78, label %if.then.i85, label %invoke.cont36

if.then.i85:                                      ; preds = %call.i.noexc
  %28 = bitcast %"class.std::basic_ifstream"* %file to i8**
  %vtable.i79 = load i8*, i8** %28, align 8, !tbaa !14
  %vbase.offset.ptr.i80 = getelementptr i8, i8* %vtable.i79, i64 -24
  %29 = bitcast i8* %vbase.offset.ptr.i80 to i64*
  %vbase.offset.i81 = load i64, i64* %29, align 8
  %add.ptr.i82 = getelementptr inbounds i8, i8* %1, i64 %vbase.offset.i81
  %30 = bitcast i8* %add.ptr.i82 to %"class.std::basic_ios"*
  %_M_streambuf_state.i.i.i83 = getelementptr inbounds i8, i8* %add.ptr.i82, i64 32
  %31 = bitcast i8* %_M_streambuf_state.i.i.i83 to i32*
  %32 = load i32, i32* %31, align 8, !tbaa !16
  %or.i.i.i84 = or i32 %32, 4
  invoke void @_ZNSt9basic_iosIcSt11char_traitsIcEE5clearESt12_Ios_Iostate(%"class.std::basic_ios"* %30, i32 %or.i.i.i84)
          to label %invoke.cont36 unwind label %lpad33

invoke.cont36:                                    ; preds = %call.i.noexc, %if.then.i85
  call void @_ZNSt14basic_ifstreamIcSt11char_traitsIcEED2Ev(%"class.std::basic_ifstream"* nonnull %file, i8** getelementptr inbounds ([4 x i8*], [4 x i8*]* @_ZTTSt14basic_ifstreamIcSt11char_traitsIcEE, i64 0, i64 0)) #2
  %33 = getelementptr inbounds %"class.std::basic_ifstream", %"class.std::basic_ifstream"* %file, i64 0, i32 2, i32 0
  call void @_ZNSt8ios_baseD2Ev(%"class.std::ios_base"* nonnull %33) #2
  call void @llvm.lifetime.end.p0i8(i64 520, i8* nonnull %1) #2
  %.fca.0.insert = insertvalue { i8*, i64 } undef, i8* %call26, 0
  %.fca.1.insert = insertvalue { i8*, i64 } %.fca.0.insert, i64 %sub, 1
  ret { i8*, i64 } %.fca.1.insert

lpad33:                                           ; preds = %if.then.i85, %invoke.cont34, %sync.continue
  %34 = landingpad { i8*, i32 }
          cleanup
  br label %ehcleanup39

ehcleanup39:                                      ; preds = %lpad13, %lpad33, %lpad20, %lpad4
  %.sink90 = phi { i8*, i32 } [ %26, %lpad13 ], [ %34, %lpad33 ], [ %27, %lpad20 ], [ %16, %lpad4 ]
  %35 = extractvalue { i8*, i32 } %.sink90, 0
  %36 = extractvalue { i8*, i32 } %.sink90, 1
  call void @_ZNSt14basic_ifstreamIcSt11char_traitsIcEED2Ev(%"class.std::basic_ifstream"* nonnull %file, i8** getelementptr inbounds ([4 x i8*], [4 x i8*]* @_ZTTSt14basic_ifstreamIcSt11char_traitsIcEE, i64 0, i64 0)) #2
  %37 = getelementptr inbounds %"class.std::basic_ifstream", %"class.std::basic_ifstream"* %file, i64 0, i32 2, i32 0
  call void @_ZNSt8ios_baseD2Ev(%"class.std::ios_base"* nonnull %37) #2
  br label %ehcleanup40

ehcleanup40:                                      ; preds = %ehcleanup39, %lpad
  %ehselector.slot.3 = phi i32 [ %36, %ehcleanup39 ], [ %15, %lpad ]
  %exn.slot.3 = phi i8* [ %35, %ehcleanup39 ], [ %14, %lpad ]
  call void @llvm.lifetime.end.p0i8(i64 520, i8* nonnull %1) #2
  %lpad.val = insertvalue { i8*, i32 } undef, i8* %exn.slot.3, 0
  %lpad.val42 = insertvalue { i8*, i32 } %lpad.val, i32 %ehselector.slot.3, 1
  resume { i8*, i32 } %lpad.val42
}

; Function Attrs: uwtable
declare void @_ZNSt14basic_ifstreamIcSt11char_traitsIcEEC1EPKcSt13_Ios_Openmode(%"class.std::basic_ifstream"*, i8*, i32) unnamed_addr #4 align 2

; Function Attrs: noreturn nounwind
declare void @abort() local_unnamed_addr #8

declare { i64, i64 } @_ZNSi5tellgEv(%"class.std::basic_istream"*) local_unnamed_addr #0

declare dereferenceable(280) %"class.std::basic_istream"* @_ZNSi5seekgElSt12_Ios_Seekdir(%"class.std::basic_istream"*, i64, i32) local_unnamed_addr #0

declare dereferenceable(280) %"class.std::basic_istream"* @_ZNSi4readEPcl(%"class.std::basic_istream"*, i8*, i64) local_unnamed_addr #0

; Function Attrs: uwtable
declare void @_ZNSt7__cxx1112basic_stringIcSt11char_traitsIcESaIcEEC2EPKcRKS3_(%"class.std::__cxx11::basic_string"*, i8*, %"class.std::allocator"* dereferenceable(1)) unnamed_addr #4 align 2

; Function Attrs: nounwind uwtable
declare void @_ZNSt7__cxx1112basic_stringIcSt11char_traitsIcESaIcEED2Ev(%"class.std::__cxx11::basic_string"*) unnamed_addr #7 align 2

; Function Attrs: norecurse nounwind readnone uwtable
define i32 @_ZN7benchIO8dataTypeEi(i32 %a) local_unnamed_addr #3 {
entry:
  ret i32 1
}

; Function Attrs: norecurse nounwind readnone uwtable
define i32 @_ZN7benchIO8dataTypeEd(double %a) local_unnamed_addr #3 {
entry:
  ret i32 4
}

; Function Attrs: norecurse nounwind readnone uwtable
define i32 @_ZN7benchIO8dataTypeEPc(i8* nocapture readnone %a) local_unnamed_addr #3 {
entry:
  ret i32 5
}

; Function Attrs: norecurse nounwind readnone uwtable
define i32 @_ZN7benchIO8dataTypeESt4pairIiiE(i64 %a.coerce) local_unnamed_addr #3 {
entry:
  ret i32 2
}

; Function Attrs: norecurse nounwind readnone uwtable
define i32 @_ZN7benchIO8dataTypeESt4pairIPciE(i8* nocapture readnone %a.coerce0, i32 %a.coerce1) local_unnamed_addr #3 {
entry:
  ret i32 3
}

; Function Attrs: uwtable
define void @_ZN7benchIO9seqHeaderB5cxx11ENS_11elementTypeE(%"class.std::__cxx11::basic_string"* noalias sret %agg.result, i32 %dt) local_unnamed_addr #4 personality i8* bitcast (i32 (...)* @__gxx_personality_v0 to i8*) {
entry:
  %__dnew.i.i.i.i86 = alloca i64, align 8
  switch i32 %dt, label %sw.default [
    i32 1, label %sw.bb
    i32 4, label %sw.bb1
    i32 5, label %sw.bb5
    i32 2, label %sw.bb9
    i32 3, label %sw.bb13
  ]

sw.bb:                                            ; preds = %entry
  %0 = getelementptr inbounds %"class.std::__cxx11::basic_string", %"class.std::__cxx11::basic_string"* %agg.result, i64 0, i32 2
  %1 = bitcast %"class.std::__cxx11::basic_string"* %agg.result to %union.anon.1**
  store %union.anon.1* %0, %union.anon.1** %1, align 8, !tbaa !27
  %2 = bitcast %union.anon.1* %0 to i8*
  tail call void @llvm.memcpy.p0i8.p0i8.i64(i8* nonnull %2, i8* nonnull getelementptr inbounds ([12 x i8], [12 x i8]* @.str.5, i64 0, i64 0), i64 11, i32 1, i1 false) #2
  %_M_string_length.i.i.i.i.i.i = getelementptr inbounds %"class.std::__cxx11::basic_string", %"class.std::__cxx11::basic_string"* %agg.result, i64 0, i32 1
  store i64 11, i64* %_M_string_length.i.i.i.i.i.i, align 8, !tbaa !29
  %3 = getelementptr inbounds %"class.std::__cxx11::basic_string", %"class.std::__cxx11::basic_string"* %agg.result, i64 0, i32 2, i32 1, i64 3
  store i8 0, i8* %3, align 1, !tbaa !2
  br label %cleanup

sw.bb1:                                           ; preds = %entry
  %4 = getelementptr inbounds %"class.std::__cxx11::basic_string", %"class.std::__cxx11::basic_string"* %agg.result, i64 0, i32 2
  %5 = bitcast %"class.std::__cxx11::basic_string"* %agg.result to %union.anon.1**
  store %union.anon.1* %4, %union.anon.1** %5, align 8, !tbaa !27
  %6 = bitcast %union.anon.1* %4 to i8*
  tail call void @llvm.memcpy.p0i8.p0i8.i64(i8* nonnull %6, i8* nonnull getelementptr inbounds ([15 x i8], [15 x i8]* @.str.6, i64 0, i64 0), i64 14, i32 1, i1 false) #2
  %_M_string_length.i.i.i.i.i.i42 = getelementptr inbounds %"class.std::__cxx11::basic_string", %"class.std::__cxx11::basic_string"* %agg.result, i64 0, i32 1
  store i64 14, i64* %_M_string_length.i.i.i.i.i.i42, align 8, !tbaa !29
  %7 = getelementptr inbounds %"class.std::__cxx11::basic_string", %"class.std::__cxx11::basic_string"* %agg.result, i64 0, i32 2, i32 1, i64 6
  store i8 0, i8* %7, align 2, !tbaa !2
  br label %cleanup

sw.bb5:                                           ; preds = %entry
  %8 = getelementptr inbounds %"class.std::__cxx11::basic_string", %"class.std::__cxx11::basic_string"* %agg.result, i64 0, i32 2
  %9 = bitcast %"class.std::__cxx11::basic_string"* %agg.result to %union.anon.1**
  store %union.anon.1* %8, %union.anon.1** %9, align 8, !tbaa !27
  %10 = bitcast %union.anon.1* %8 to i8*
  tail call void @llvm.memcpy.p0i8.p0i8.i64(i8* nonnull %10, i8* nonnull getelementptr inbounds ([13 x i8], [13 x i8]* @.str.7, i64 0, i64 0), i64 12, i32 1, i1 false) #2
  %_M_string_length.i.i.i.i.i.i61 = getelementptr inbounds %"class.std::__cxx11::basic_string", %"class.std::__cxx11::basic_string"* %agg.result, i64 0, i32 1
  store i64 12, i64* %_M_string_length.i.i.i.i.i.i61, align 8, !tbaa !29
  %11 = getelementptr inbounds %"class.std::__cxx11::basic_string", %"class.std::__cxx11::basic_string"* %agg.result, i64 0, i32 2, i32 1, i64 4
  store i8 0, i8* %11, align 4, !tbaa !2
  br label %cleanup

sw.bb9:                                           ; preds = %entry
  %12 = getelementptr inbounds %"class.std::__cxx11::basic_string", %"class.std::__cxx11::basic_string"* %agg.result, i64 0, i32 2
  %13 = bitcast %"class.std::__cxx11::basic_string"* %agg.result to %union.anon.1**
  store %union.anon.1* %12, %union.anon.1** %13, align 8, !tbaa !27
  %14 = bitcast %union.anon.1* %12 to i8*
  tail call void @llvm.memcpy.p0i8.p0i8.i64(i8* nonnull %14, i8* nonnull getelementptr inbounds ([16 x i8], [16 x i8]* @.str.8, i64 0, i64 0), i64 15, i32 1, i1 false) #2
  %_M_string_length.i.i.i.i.i.i82 = getelementptr inbounds %"class.std::__cxx11::basic_string", %"class.std::__cxx11::basic_string"* %agg.result, i64 0, i32 1
  store i64 15, i64* %_M_string_length.i.i.i.i.i.i82, align 8, !tbaa !29
  %15 = getelementptr inbounds %"class.std::__cxx11::basic_string", %"class.std::__cxx11::basic_string"* %agg.result, i64 0, i32 2, i32 1, i64 7
  store i8 0, i8* %15, align 1, !tbaa !2
  br label %cleanup

sw.bb13:                                          ; preds = %entry
  %16 = getelementptr inbounds %"class.std::__cxx11::basic_string", %"class.std::__cxx11::basic_string"* %agg.result, i64 0, i32 2
  %17 = bitcast %"class.std::__cxx11::basic_string"* %agg.result to %union.anon.1**
  store %union.anon.1* %16, %union.anon.1** %17, align 8, !tbaa !27
  %18 = bitcast i64* %__dnew.i.i.i.i86 to i8*
  call void @llvm.lifetime.start.p0i8(i64 8, i8* nonnull %18) #2
  store i64 21, i64* %__dnew.i.i.i.i86, align 8, !tbaa !31
  %call9.i.i.i.i91 = invoke i8* @_ZNSt7__cxx1112basic_stringIcSt11char_traitsIcESaIcEE9_M_createERmm(%"class.std::__cxx11::basic_string"* nonnull %agg.result, i64* nonnull dereferenceable(8) %__dnew.i.i.i.i86, i64 0)
          to label %invoke.cont8.i.i.i.i95 unwind label %lpad15.body

invoke.cont8.i.i.i.i95:                           ; preds = %sw.bb13
  %_M_p.i28.i.i.i.i93 = getelementptr inbounds %"class.std::__cxx11::basic_string", %"class.std::__cxx11::basic_string"* %agg.result, i64 0, i32 0, i32 0
  store i8* %call9.i.i.i.i91, i8** %_M_p.i28.i.i.i.i93, align 8, !tbaa !32
  %19 = load i64, i64* %__dnew.i.i.i.i86, align 8, !tbaa !31
  %_M_allocated_capacity.i.i.i.i.i94 = getelementptr inbounds %"class.std::__cxx11::basic_string", %"class.std::__cxx11::basic_string"* %agg.result, i64 0, i32 2, i32 0
  store i64 %19, i64* %_M_allocated_capacity.i.i.i.i.i94, align 8, !tbaa !2
  call void @llvm.memcpy.p0i8.p0i8.i64(i8* %call9.i.i.i.i91, i8* nonnull getelementptr inbounds ([22 x i8], [22 x i8]* @.str.9, i64 0, i64 0), i64 21, i32 1, i1 false) #2
  %_M_string_length.i.i.i.i.i.i101 = getelementptr inbounds %"class.std::__cxx11::basic_string", %"class.std::__cxx11::basic_string"* %agg.result, i64 0, i32 1
  store i64 %19, i64* %_M_string_length.i.i.i.i.i.i101, align 8, !tbaa !29
  %20 = load i8*, i8** %_M_p.i28.i.i.i.i93, align 8, !tbaa !32
  %arrayidx.i.i.i.i.i102 = getelementptr inbounds i8, i8* %20, i64 %19
  store i8 0, i8* %arrayidx.i.i.i.i.i102, align 1, !tbaa !2
  call void @llvm.lifetime.end.p0i8(i64 8, i8* nonnull %18) #2
  br label %cleanup

lpad15.body:                                      ; preds = %sw.bb13
  %21 = landingpad { i8*, i32 }
          cleanup
  call void @llvm.lifetime.end.p0i8(i64 8, i8* nonnull %18) #2
  resume { i8*, i32 } %21

sw.default:                                       ; preds = %entry
  %call3.i66 = tail call dereferenceable(272) %"class.std::basic_ostream"* @_ZSt16__ostream_insertIcSt11char_traitsIcEERSt13basic_ostreamIT_T0_ES6_PKS3_l(%"class.std::basic_ostream"* nonnull dereferenceable(272) @_ZSt4cout, i8* nonnull getelementptr inbounds ([37 x i8], [37 x i8]* @.str.10, i64 0, i64 0), i64 36)
  %vtable.i = load i8*, i8** bitcast (%"class.std::basic_ostream"* @_ZSt4cout to i8**), align 8, !tbaa !14
  %vbase.offset.ptr.i = getelementptr i8, i8* %vtable.i, i64 -24
  %22 = bitcast i8* %vbase.offset.ptr.i to i64*
  %vbase.offset.i = load i64, i64* %22, align 8
  %add.ptr.i = getelementptr inbounds i8, i8* bitcast (%"class.std::basic_ostream"* @_ZSt4cout to i8*), i64 %vbase.offset.i
  %_M_ctype.i.i = getelementptr inbounds i8, i8* %add.ptr.i, i64 240
  %23 = bitcast i8* %_M_ctype.i.i to %"class.std::ctype"**
  %24 = load %"class.std::ctype"*, %"class.std::ctype"** %23, align 8, !tbaa !23
  %tobool.i.i.i = icmp eq %"class.std::ctype"* %24, null
  br i1 %tobool.i.i.i, label %if.then.i.i.i, label %_ZSt13__check_facetISt5ctypeIcEERKT_PS3_.exit.i.i

if.then.i.i.i:                                    ; preds = %sw.default
  tail call void @_ZSt16__throw_bad_castv() #21
  unreachable

_ZSt13__check_facetISt5ctypeIcEERKT_PS3_.exit.i.i: ; preds = %sw.default
  %_M_widen_ok.i.i.i = getelementptr inbounds %"class.std::ctype", %"class.std::ctype"* %24, i64 0, i32 8
  %25 = load i8, i8* %_M_widen_ok.i.i.i, align 8, !tbaa !25
  %tobool.i5.i.i = icmp eq i8 %25, 0
  br i1 %tobool.i5.i.i, label %if.end.i.i.i, label %if.then.i6.i.i

if.then.i6.i.i:                                   ; preds = %_ZSt13__check_facetISt5ctypeIcEERKT_PS3_.exit.i.i
  %arrayidx.i.i.i = getelementptr inbounds %"class.std::ctype", %"class.std::ctype"* %24, i64 0, i32 9, i64 10
  %26 = load i8, i8* %arrayidx.i.i.i, align 1, !tbaa !2
  br label %_ZNKSt9basic_iosIcSt11char_traitsIcEE5widenEc.exit.i

if.end.i.i.i:                                     ; preds = %_ZSt13__check_facetISt5ctypeIcEERKT_PS3_.exit.i.i
  tail call void @_ZNKSt5ctypeIcE13_M_widen_initEv(%"class.std::ctype"* nonnull %24)
  %27 = bitcast %"class.std::ctype"* %24 to i8 (%"class.std::ctype"*, i8)***
  %vtable.i.i.i = load i8 (%"class.std::ctype"*, i8)**, i8 (%"class.std::ctype"*, i8)*** %27, align 8, !tbaa !14
  %vfn.i.i.i = getelementptr inbounds i8 (%"class.std::ctype"*, i8)*, i8 (%"class.std::ctype"*, i8)** %vtable.i.i.i, i64 6
  %28 = load i8 (%"class.std::ctype"*, i8)*, i8 (%"class.std::ctype"*, i8)** %vfn.i.i.i, align 8
  %call.i.i.i24 = tail call signext i8 %28(%"class.std::ctype"* nonnull %24, i8 signext 10)
  br label %_ZNKSt9basic_iosIcSt11char_traitsIcEE5widenEc.exit.i

_ZNKSt9basic_iosIcSt11char_traitsIcEE5widenEc.exit.i: ; preds = %if.end.i.i.i, %if.then.i6.i.i
  %retval.0.i.i.i = phi i8 [ %26, %if.then.i6.i.i ], [ %call.i.i.i24, %if.end.i.i.i ]
  %call2.i25 = tail call dereferenceable(272) %"class.std::basic_ostream"* @_ZNSo3putEc(%"class.std::basic_ostream"* nonnull @_ZSt4cout, i8 signext %retval.0.i.i.i)
  %call.i.i26 = tail call dereferenceable(272) %"class.std::basic_ostream"* @_ZNSo5flushEv(%"class.std::basic_ostream"* nonnull %call2.i25)
  tail call void @abort() #22
  unreachable

cleanup:                                          ; preds = %invoke.cont8.i.i.i.i95, %sw.bb9, %sw.bb5, %sw.bb1, %sw.bb
  ret void
}

; Function Attrs: nounwind uwtable
define i32 @_ZN7benchIO21elementTypeFromStringENSt7__cxx1112basic_stringIcSt11char_traitsIcESaIcEEE(%"class.std::__cxx11::basic_string"* %s) local_unnamed_addr #7 personality i8* bitcast (i32 (...)* @__gxx_personality_v0 to i8*) {
entry:
  %call.i = tail call i32 @_ZNKSt7__cxx1112basic_stringIcSt11char_traitsIcESaIcEE7compareEPKc(%"class.std::__cxx11::basic_string"* nonnull %s, i8* getelementptr inbounds ([7 x i8], [7 x i8]* @.str.11, i64 0, i64 0)) #2
  %cmp.i = icmp eq i32 %call.i, 0
  br i1 %cmp.i, label %cleanup, label %if.else

if.else:                                          ; preds = %entry
  %call.i10 = tail call i32 @_ZNKSt7__cxx1112basic_stringIcSt11char_traitsIcESaIcEE7compareEPKc(%"class.std::__cxx11::basic_string"* nonnull %s, i8* getelementptr inbounds ([7 x i8], [7 x i8]* @.str.12, i64 0, i64 0)) #2
  %cmp.i11 = icmp eq i32 %call.i10, 0
  br i1 %cmp.i11, label %cleanup, label %if.else4

if.else4:                                         ; preds = %if.else
  %call.i12 = tail call i32 @_ZNKSt7__cxx1112basic_stringIcSt11char_traitsIcESaIcEE7compareEPKc(%"class.std::__cxx11::basic_string"* nonnull %s, i8* getelementptr inbounds ([4 x i8], [4 x i8]* @.str.13, i64 0, i64 0)) #2
  %cmp.i13 = icmp eq i32 %call.i12, 0
  %. = zext i1 %cmp.i13 to i32
  br label %cleanup

cleanup:                                          ; preds = %if.else4, %if.else, %entry
  %retval.0 = phi i32 [ 4, %entry ], [ 5, %if.else ], [ %., %if.else4 ]
  ret i32 %retval.0
}

; Function Attrs: uwtable
define void @_ZN7benchIO20readSequenceFromFileEPc(%"struct.benchIO::seqData"* noalias nocapture sret %agg.result, i8* %fileName) local_unnamed_addr #4 personality i8* bitcast (i32 (...)* @__gxx_personality_v0 to i8*) {
entry:
  %0 = tail call i32 @__cilkrts_get_nworkers()
  %__cilkrts_wc8406 = shl i32 %0, 3
  %__dnew.i.i.i.i86.i = alloca i64, align 8
  %W = alloca %"struct.benchIO::words", align 8
  %ref.tmp = alloca %"class.std::__cxx11::basic_string", align 8
  %ref.tmp23 = alloca %"class.std::__cxx11::basic_string", align 8
  %ref.tmp66 = alloca %"class.std::__cxx11::basic_string", align 8
  %ref.tmp108 = alloca %"class.std::__cxx11::basic_string", align 8
  %ref.tmp162 = alloca %"class.std::__cxx11::basic_string", align 8
  %call = invoke { i8*, i64 } @_ZN7benchIO18readStringFromFileEPc(i8* %fileName)
          to label %invoke.cont unwind label %lpad

invoke.cont:                                      ; preds = %entry
  %1 = extractvalue { i8*, i64 } %call, 0
  %2 = extractvalue { i8*, i64 } %call, 1
  %3 = bitcast %"struct.benchIO::words"* %W to i8*
  call void @llvm.lifetime.start.p0i8(i64 32, i8* nonnull %3) #2
  invoke void @_ZN7benchIO13stringToWordsEPcl(%"struct.benchIO::words"* nonnull sret %W, i8* %1, i64 %2)
          to label %invoke.cont5 unwind label %lpad1

invoke.cont5:                                     ; preds = %invoke.cont
  %Strings = getelementptr inbounds %"struct.benchIO::words", %"struct.benchIO::words"* %W, i64 0, i32 3
  %4 = load i8**, i8*** %Strings, align 8, !tbaa !13
  %5 = load i8*, i8** %4, align 8, !tbaa !33
  %m = getelementptr inbounds %"struct.benchIO::words", %"struct.benchIO::words"* %W, i64 0, i32 2
  %6 = load i64, i64* %m, align 8, !tbaa !12
  %sub = add nsw i64 %6, -1
  %7 = bitcast %"class.std::__cxx11::basic_string"* %ref.tmp to i8*
  call void @llvm.lifetime.start.p0i8(i64 32, i8* nonnull %7) #2
  %8 = getelementptr inbounds %"class.std::__cxx11::basic_string", %"class.std::__cxx11::basic_string"* %ref.tmp, i64 0, i32 2
  %9 = bitcast %"class.std::__cxx11::basic_string"* %ref.tmp to %union.anon.1**
  store %union.anon.1* %8, %union.anon.1** %9, align 8, !tbaa !27, !alias.scope !34
  %10 = bitcast %union.anon.1* %8 to i8*
  call void @llvm.memcpy.p0i8.p0i8.i64(i8* nonnull %10, i8* nonnull getelementptr inbounds ([12 x i8], [12 x i8]* @.str.5, i64 0, i64 0), i64 11, i32 1, i1 false) #2
  %_M_string_length.i.i.i.i.i.i.i = getelementptr inbounds %"class.std::__cxx11::basic_string", %"class.std::__cxx11::basic_string"* %ref.tmp, i64 0, i32 1
  store i64 11, i64* %_M_string_length.i.i.i.i.i.i.i, align 8, !tbaa !29, !alias.scope !34
  %11 = getelementptr inbounds %"class.std::__cxx11::basic_string", %"class.std::__cxx11::basic_string"* %ref.tmp, i64 0, i32 2, i32 1, i64 3
  store i8 0, i8* %11, align 1, !tbaa !2, !alias.scope !34
  %call.i331 = call i32 @_ZNKSt7__cxx1112basic_stringIcSt11char_traitsIcESaIcEE7compareEPKc(%"class.std::__cxx11::basic_string"* nonnull %ref.tmp, i8* %5) #2
  %cmp.i = icmp eq i32 %call.i331, 0
  %_M_p.i.i.i.i = getelementptr inbounds %"class.std::__cxx11::basic_string", %"class.std::__cxx11::basic_string"* %ref.tmp, i64 0, i32 0, i32 0
  %12 = load i8*, i8** %_M_p.i.i.i.i, align 8, !tbaa !32
  %cmp.i.i.i = icmp eq i8* %12, %10
  br i1 %cmp.i.i.i, label %_ZNSt7__cxx1112basic_stringIcSt11char_traitsIcESaIcEED2Ev.exit, label %if.then.i.i

if.then.i.i:                                      ; preds = %invoke.cont5
  call void @_ZdlPv(i8* %12) #2
  br label %_ZNSt7__cxx1112basic_stringIcSt11char_traitsIcESaIcEED2Ev.exit

_ZNSt7__cxx1112basic_stringIcSt11char_traitsIcESaIcEED2Ev.exit: ; preds = %invoke.cont5, %if.then.i.i
  call void @llvm.lifetime.end.p0i8(i64 32, i8* nonnull %7) #2
  br i1 %cmp.i, label %if.then, label %invoke.cont25

if.then:                                          ; preds = %_ZNSt7__cxx1112basic_stringIcSt11char_traitsIcESaIcEED2Ev.exit
  %13 = call { i64, i1 } @llvm.umul.with.overflow.i64(i64 %sub, i64 4)
  %14 = extractvalue { i64, i1 } %13, 1
  %15 = extractvalue { i64, i1 } %13, 0
  %16 = select i1 %14, i64 -1, i64 %15
  %call12 = invoke i8* @_Znam(i64 %16) #23
          to label %invoke.cont11 unwind label %lpad10

invoke.cont11:                                    ; preds = %if.then
  %cmp387 = icmp sgt i64 %6, 1
  br i1 %cmp387, label %pfor.detach.preheader, label %sync.continue

pfor.detach.preheader:                            ; preds = %invoke.cont11
  %17 = bitcast i8* %call12 to i32*
  %18 = add i64 %6, -2
  %19 = zext i32 %__cilkrts_wc8406 to i64
  %20 = add nsw i64 %19, -1
  %21 = add i64 %20, %18
  %22 = udiv i64 %21, %19
  %23 = icmp ult i64 %22, 2048
  %24 = select i1 %23, i64 %22, i64 2048
  call fastcc void @_ZN7benchIO20readSequenceFromFileEPc_pfor.detach.ls(i64 0, i64 %18, i64 %24, i8** %4, i32* nonnull %17)
  br label %sync.continue

lpad:                                             ; preds = %entry
  %25 = landingpad { i8*, i32 }
          cleanup
  %26 = extractvalue { i8*, i32 } %25, 0
  %27 = extractvalue { i8*, i32 } %25, 1
  br label %ehcleanup239

lpad1:                                            ; preds = %invoke.cont
  %28 = landingpad { i8*, i32 }
          cleanup
  %29 = extractvalue { i8*, i32 } %28, 0
  %30 = extractvalue { i8*, i32 } %28, 1
  br label %ehcleanup237

lpad10:                                           ; preds = %if.then
  %31 = landingpad { i8*, i32 }
          cleanup
  %32 = extractvalue { i8*, i32 } %31, 0
  %33 = extractvalue { i8*, i32 } %31, 1
  br label %ehcleanup237

sync.continue:                                    ; preds = %invoke.cont11, %pfor.detach.preheader
  %A.i334 = getelementptr inbounds %"struct.benchIO::seqData", %"struct.benchIO::seqData"* %agg.result, i64 0, i32 0
  store i8* %call12, i8** %A.i334, align 8, !tbaa !37
  %n.i335 = getelementptr inbounds %"struct.benchIO::seqData", %"struct.benchIO::seqData"* %agg.result, i64 0, i32 1
  store i64 %sub, i64* %n.i335, align 8, !tbaa !40
  %dt.i336 = getelementptr inbounds %"struct.benchIO::seqData", %"struct.benchIO::seqData"* %agg.result, i64 0, i32 2
  store i32 1, i32* %dt.i336, align 8, !tbaa !41
  %O.i337 = getelementptr inbounds %"struct.benchIO::seqData", %"struct.benchIO::seqData"* %agg.result, i64 0, i32 3
  store i8* null, i8** %O.i337, align 8, !tbaa !42
  br label %cleanup

invoke.cont25:                                    ; preds = %_ZNSt7__cxx1112basic_stringIcSt11char_traitsIcESaIcEED2Ev.exit
  %34 = bitcast %"class.std::__cxx11::basic_string"* %ref.tmp23 to i8*
  call void @llvm.lifetime.start.p0i8(i64 32, i8* nonnull %34) #2
  %35 = getelementptr inbounds %"class.std::__cxx11::basic_string", %"class.std::__cxx11::basic_string"* %ref.tmp23, i64 0, i32 2
  %36 = bitcast %"class.std::__cxx11::basic_string"* %ref.tmp23 to %union.anon.1**
  store %union.anon.1* %35, %union.anon.1** %36, align 8, !tbaa !27, !alias.scope !43
  %37 = bitcast %union.anon.1* %35 to i8*
  call void @llvm.memcpy.p0i8.p0i8.i64(i8* nonnull %37, i8* nonnull getelementptr inbounds ([15 x i8], [15 x i8]* @.str.6, i64 0, i64 0), i64 14, i32 1, i1 false) #2
  %_M_string_length.i.i.i.i.i.i42.i = getelementptr inbounds %"class.std::__cxx11::basic_string", %"class.std::__cxx11::basic_string"* %ref.tmp23, i64 0, i32 1
  store i64 14, i64* %_M_string_length.i.i.i.i.i.i42.i, align 8, !tbaa !29, !alias.scope !43
  %38 = getelementptr inbounds %"class.std::__cxx11::basic_string", %"class.std::__cxx11::basic_string"* %ref.tmp23, i64 0, i32 2, i32 1, i64 6
  store i8 0, i8* %38, align 2, !tbaa !2, !alias.scope !43
  %call.i345 = call i32 @_ZNKSt7__cxx1112basic_stringIcSt11char_traitsIcESaIcEE7compareEPKc(%"class.std::__cxx11::basic_string"* nonnull %ref.tmp23, i8* %5) #2
  %cmp.i346 = icmp eq i32 %call.i345, 0
  %_M_p.i.i.i.i347 = getelementptr inbounds %"class.std::__cxx11::basic_string", %"class.std::__cxx11::basic_string"* %ref.tmp23, i64 0, i32 0, i32 0
  %39 = load i8*, i8** %_M_p.i.i.i.i347, align 8, !tbaa !32
  %cmp.i.i.i349 = icmp eq i8* %39, %37
  br i1 %cmp.i.i.i349, label %_ZNSt7__cxx1112basic_stringIcSt11char_traitsIcESaIcEED2Ev.exit351, label %if.then.i.i350

if.then.i.i350:                                   ; preds = %invoke.cont25
  call void @_ZdlPv(i8* %39) #2
  br label %_ZNSt7__cxx1112basic_stringIcSt11char_traitsIcESaIcEED2Ev.exit351

_ZNSt7__cxx1112basic_stringIcSt11char_traitsIcESaIcEED2Ev.exit351: ; preds = %invoke.cont25, %if.then.i.i350
  call void @llvm.lifetime.end.p0i8(i64 32, i8* nonnull %34) #2
  br i1 %cmp.i346, label %if.then31, label %invoke.cont68

if.then31:                                        ; preds = %_ZNSt7__cxx1112basic_stringIcSt11char_traitsIcESaIcEED2Ev.exit351
  %40 = call { i64, i1 } @llvm.umul.with.overflow.i64(i64 %sub, i64 8)
  %41 = extractvalue { i64, i1 } %40, 1
  %42 = extractvalue { i64, i1 } %40, 0
  %43 = select i1 %41, i64 -1, i64 %42
  %call35 = invoke i8* @_Znam(i64 %43) #23
          to label %invoke.cont34 unwind label %lpad33

invoke.cont34:                                    ; preds = %if.then31
  %cmp45389 = icmp sgt i64 %6, 1
  br i1 %cmp45389, label %pfor.detach47.preheader, label %sync.continue61

pfor.detach47.preheader:                          ; preds = %invoke.cont34
  %44 = bitcast i8* %call35 to double*
  %45 = add i64 %6, -2
  %46 = zext i32 %__cilkrts_wc8406 to i64
  %47 = add nsw i64 %46, -1
  %48 = add i64 %47, %45
  %49 = udiv i64 %48, %46
  %50 = icmp ult i64 %49, 2048
  %51 = select i1 %50, i64 %49, i64 2048
  call fastcc void @_ZN7benchIO20readSequenceFromFileEPc_pfor.detach47.ls(i64 0, i64 %45, i64 %51, i8** %4, double* nonnull %44)
  br label %sync.continue61

lpad33:                                           ; preds = %if.then31
  %52 = landingpad { i8*, i32 }
          cleanup
  %53 = extractvalue { i8*, i32 } %52, 0
  %54 = extractvalue { i8*, i32 } %52, 1
  br label %ehcleanup237

sync.continue61:                                  ; preds = %invoke.cont34, %pfor.detach47.preheader
  %A.i353 = getelementptr inbounds %"struct.benchIO::seqData", %"struct.benchIO::seqData"* %agg.result, i64 0, i32 0
  store i8* %call35, i8** %A.i353, align 8, !tbaa !37
  %n.i354 = getelementptr inbounds %"struct.benchIO::seqData", %"struct.benchIO::seqData"* %agg.result, i64 0, i32 1
  store i64 %sub, i64* %n.i354, align 8, !tbaa !40
  %dt.i355 = getelementptr inbounds %"struct.benchIO::seqData", %"struct.benchIO::seqData"* %agg.result, i64 0, i32 2
  store i32 4, i32* %dt.i355, align 8, !tbaa !41
  %O.i356 = getelementptr inbounds %"struct.benchIO::seqData", %"struct.benchIO::seqData"* %agg.result, i64 0, i32 3
  store i8* null, i8** %O.i356, align 8, !tbaa !42
  br label %cleanup

invoke.cont68:                                    ; preds = %_ZNSt7__cxx1112basic_stringIcSt11char_traitsIcESaIcEED2Ev.exit351
  %55 = bitcast %"class.std::__cxx11::basic_string"* %ref.tmp66 to i8*
  call void @llvm.lifetime.start.p0i8(i64 32, i8* nonnull %55) #2
  %56 = getelementptr inbounds %"class.std::__cxx11::basic_string", %"class.std::__cxx11::basic_string"* %ref.tmp66, i64 0, i32 2
  %57 = bitcast %"class.std::__cxx11::basic_string"* %ref.tmp66 to %union.anon.1**
  store %union.anon.1* %56, %union.anon.1** %57, align 8, !tbaa !27, !alias.scope !46
  %58 = bitcast %union.anon.1* %56 to i8*
  call void @llvm.memcpy.p0i8.p0i8.i64(i8* nonnull %58, i8* nonnull getelementptr inbounds ([13 x i8], [13 x i8]* @.str.7, i64 0, i64 0), i64 12, i32 1, i1 false) #2
  %_M_string_length.i.i.i.i.i.i61.i = getelementptr inbounds %"class.std::__cxx11::basic_string", %"class.std::__cxx11::basic_string"* %ref.tmp66, i64 0, i32 1
  store i64 12, i64* %_M_string_length.i.i.i.i.i.i61.i, align 8, !tbaa !29, !alias.scope !46
  %59 = getelementptr inbounds %"class.std::__cxx11::basic_string", %"class.std::__cxx11::basic_string"* %ref.tmp66, i64 0, i32 2, i32 1, i64 4
  store i8 0, i8* %59, align 4, !tbaa !2, !alias.scope !46
  %call.i364 = call i32 @_ZNKSt7__cxx1112basic_stringIcSt11char_traitsIcESaIcEE7compareEPKc(%"class.std::__cxx11::basic_string"* nonnull %ref.tmp66, i8* %5) #2
  %cmp.i365 = icmp eq i32 %call.i364, 0
  %_M_p.i.i.i.i366 = getelementptr inbounds %"class.std::__cxx11::basic_string", %"class.std::__cxx11::basic_string"* %ref.tmp66, i64 0, i32 0, i32 0
  %60 = load i8*, i8** %_M_p.i.i.i.i366, align 8, !tbaa !32
  %cmp.i.i.i368 = icmp eq i8* %60, %58
  br i1 %cmp.i.i.i368, label %_ZNSt7__cxx1112basic_stringIcSt11char_traitsIcESaIcEED2Ev.exit370, label %if.then.i.i369

if.then.i.i369:                                   ; preds = %invoke.cont68
  call void @_ZdlPv(i8* %60) #2
  br label %_ZNSt7__cxx1112basic_stringIcSt11char_traitsIcESaIcEED2Ev.exit370

_ZNSt7__cxx1112basic_stringIcSt11char_traitsIcESaIcEED2Ev.exit370: ; preds = %invoke.cont68, %if.then.i.i369
  call void @llvm.lifetime.end.p0i8(i64 32, i8* nonnull %55) #2
  br i1 %cmp.i365, label %if.then74, label %invoke.cont110

if.then74:                                        ; preds = %_ZNSt7__cxx1112basic_stringIcSt11char_traitsIcESaIcEED2Ev.exit370
  %61 = call { i64, i1 } @llvm.umul.with.overflow.i64(i64 %sub, i64 8)
  %62 = extractvalue { i64, i1 } %61, 1
  %63 = extractvalue { i64, i1 } %61, 0
  %64 = select i1 %62, i64 -1, i64 %63
  %call78 = invoke i8* @_Znam(i64 %64) #23
          to label %invoke.cont77 unwind label %lpad76

invoke.cont77:                                    ; preds = %if.then74
  %cmp88391 = icmp sgt i64 %6, 1
  br i1 %cmp88391, label %pfor.detach90.preheader, label %sync.continue103

pfor.detach90.preheader:                          ; preds = %invoke.cont77
  %65 = bitcast i8* %call78 to i8**
  %66 = add i64 %6, -2
  %67 = zext i32 %__cilkrts_wc8406 to i64
  %68 = add nsw i64 %67, -1
  %69 = add i64 %68, %66
  %70 = udiv i64 %69, %67
  %71 = icmp ult i64 %70, 2048
  %72 = select i1 %71, i64 %70, i64 2048
  call fastcc void @_ZN7benchIO20readSequenceFromFileEPc_pfor.detach90.ls(i64 0, i64 %66, i64 %72, i8** %4, i8** nonnull %65)
  br label %sync.continue103

lpad76:                                           ; preds = %if.then74
  %73 = landingpad { i8*, i32 }
          cleanup
  %74 = extractvalue { i8*, i32 } %73, 0
  %75 = extractvalue { i8*, i32 } %73, 1
  br label %ehcleanup237

sync.continue103:                                 ; preds = %invoke.cont77, %pfor.detach90.preheader
  %Chars = getelementptr inbounds %"struct.benchIO::words", %"struct.benchIO::words"* %W, i64 0, i32 1
  %76 = bitcast i8** %Chars to i64*
  %77 = load i64, i64* %76, align 8, !tbaa !11
  %A.i371 = getelementptr inbounds %"struct.benchIO::seqData", %"struct.benchIO::seqData"* %agg.result, i64 0, i32 0
  store i8* %call78, i8** %A.i371, align 8, !tbaa !37
  %n.i372 = getelementptr inbounds %"struct.benchIO::seqData", %"struct.benchIO::seqData"* %agg.result, i64 0, i32 1
  store i64 %sub, i64* %n.i372, align 8, !tbaa !40
  %dt.i373 = getelementptr inbounds %"struct.benchIO::seqData", %"struct.benchIO::seqData"* %agg.result, i64 0, i32 2
  store i32 5, i32* %dt.i373, align 8, !tbaa !41
  %O.i374 = getelementptr inbounds %"struct.benchIO::seqData", %"struct.benchIO::seqData"* %agg.result, i64 0, i32 3
  %78 = bitcast i8** %O.i374 to i64*
  store i64 %77, i64* %78, align 8, !tbaa !42
  br label %cleanup

invoke.cont110:                                   ; preds = %_ZNSt7__cxx1112basic_stringIcSt11char_traitsIcESaIcEED2Ev.exit370
  %79 = bitcast %"class.std::__cxx11::basic_string"* %ref.tmp108 to i8*
  call void @llvm.lifetime.start.p0i8(i64 32, i8* nonnull %79) #2
  %80 = getelementptr inbounds %"class.std::__cxx11::basic_string", %"class.std::__cxx11::basic_string"* %ref.tmp108, i64 0, i32 2
  %81 = bitcast %"class.std::__cxx11::basic_string"* %ref.tmp108 to %union.anon.1**
  store %union.anon.1* %80, %union.anon.1** %81, align 8, !tbaa !27, !alias.scope !49
  %82 = bitcast %union.anon.1* %80 to i8*
  call void @llvm.memcpy.p0i8.p0i8.i64(i8* nonnull %82, i8* nonnull getelementptr inbounds ([16 x i8], [16 x i8]* @.str.8, i64 0, i64 0), i64 15, i32 1, i1 false) #2
  %_M_string_length.i.i.i.i.i.i82.i = getelementptr inbounds %"class.std::__cxx11::basic_string", %"class.std::__cxx11::basic_string"* %ref.tmp108, i64 0, i32 1
  store i64 15, i64* %_M_string_length.i.i.i.i.i.i82.i, align 8, !tbaa !29, !alias.scope !49
  %83 = getelementptr inbounds %"class.std::__cxx11::basic_string", %"class.std::__cxx11::basic_string"* %ref.tmp108, i64 0, i32 2, i32 1, i64 7
  store i8 0, i8* %83, align 1, !tbaa !2, !alias.scope !49
  %call.i385 = call i32 @_ZNKSt7__cxx1112basic_stringIcSt11char_traitsIcESaIcEE7compareEPKc(%"class.std::__cxx11::basic_string"* nonnull %ref.tmp108, i8* %5) #2
  %cmp.i386 = icmp eq i32 %call.i385, 0
  %_M_p.i.i.i.i380 = getelementptr inbounds %"class.std::__cxx11::basic_string", %"class.std::__cxx11::basic_string"* %ref.tmp108, i64 0, i32 0, i32 0
  %84 = load i8*, i8** %_M_p.i.i.i.i380, align 8, !tbaa !32
  %cmp.i.i.i382 = icmp eq i8* %84, %82
  br i1 %cmp.i.i.i382, label %_ZNSt7__cxx1112basic_stringIcSt11char_traitsIcESaIcEED2Ev.exit384, label %if.then.i.i383

if.then.i.i383:                                   ; preds = %invoke.cont110
  call void @_ZdlPv(i8* %84) #2
  br label %_ZNSt7__cxx1112basic_stringIcSt11char_traitsIcESaIcEED2Ev.exit384

_ZNSt7__cxx1112basic_stringIcSt11char_traitsIcESaIcEED2Ev.exit384: ; preds = %invoke.cont110, %if.then.i.i383
  call void @llvm.lifetime.end.p0i8(i64 32, i8* nonnull %79) #2
  br i1 %cmp.i386, label %if.then116, label %if.else161

if.then116:                                       ; preds = %_ZNSt7__cxx1112basic_stringIcSt11char_traitsIcESaIcEED2Ev.exit384
  %div117 = sdiv i64 %sub, 2
  %85 = call { i64, i1 } @llvm.umul.with.overflow.i64(i64 %div117, i64 8)
  %86 = extractvalue { i64, i1 } %85, 1
  %87 = extractvalue { i64, i1 } %85, 0
  %88 = select i1 %86, i64 -1, i64 %87
  %call121 = invoke i8* @_Znam(i64 %88) #23
          to label %invoke.cont120 unwind label %lpad119

invoke.cont120:                                   ; preds = %if.then116
  %89 = bitcast i8* %call121 to %"struct.std::pair"*
  %90 = icmp ult i64 %6, 3
  br i1 %90, label %sync.continue157, label %arrayctor.cont

arrayctor.cont:                                   ; preds = %invoke.cont120
  %91 = shl i64 %div117, 3
  call void @llvm.memset.p0i8.i64(i8* nonnull %call121, i8 0, i64 %91, i32 4, i1 false)
  %cmp134393 = icmp sgt i64 %6, 2
  br i1 %cmp134393, label %pfor.detach136.preheader, label %sync.continue157

pfor.detach136.preheader:                         ; preds = %arrayctor.cont
  %92 = icmp sgt i64 %div117, 1
  %smax402 = select i1 %92, i64 %div117, i64 1
  %93 = add nsw i64 %smax402, -1
  %94 = zext i32 %__cilkrts_wc8406 to i64
  %95 = add nsw i64 %94, -1
  %96 = add nsw i64 %95, %93
  %97 = udiv i64 %96, %94
  %98 = icmp ult i64 %97, 2048
  %99 = select i1 %98, i64 %97, i64 2048
  call fastcc void @_ZN7benchIO20readSequenceFromFileEPc_pfor.detach136.ls(i64 0, i64 %93, i64 %99, i8** %4, %"struct.std::pair"* nonnull %89)
  br label %sync.continue157

lpad119:                                          ; preds = %if.then116
  %100 = landingpad { i8*, i32 }
          cleanup
  %101 = extractvalue { i8*, i32 } %100, 0
  %102 = extractvalue { i8*, i32 } %100, 1
  br label %ehcleanup237

sync.continue157:                                 ; preds = %arrayctor.cont, %invoke.cont120, %pfor.detach136.preheader
  %A.i358 = getelementptr inbounds %"struct.benchIO::seqData", %"struct.benchIO::seqData"* %agg.result, i64 0, i32 0
  store i8* %call121, i8** %A.i358, align 8, !tbaa !37
  %n.i359 = getelementptr inbounds %"struct.benchIO::seqData", %"struct.benchIO::seqData"* %agg.result, i64 0, i32 1
  store i64 %div117, i64* %n.i359, align 8, !tbaa !40
  %dt.i360 = getelementptr inbounds %"struct.benchIO::seqData", %"struct.benchIO::seqData"* %agg.result, i64 0, i32 2
  store i32 2, i32* %dt.i360, align 8, !tbaa !41
  %O.i361 = getelementptr inbounds %"struct.benchIO::seqData", %"struct.benchIO::seqData"* %agg.result, i64 0, i32 3
  store i8* null, i8** %O.i361, align 8, !tbaa !42
  br label %cleanup

if.else161:                                       ; preds = %_ZNSt7__cxx1112basic_stringIcSt11char_traitsIcESaIcEED2Ev.exit384
  %103 = bitcast %"class.std::__cxx11::basic_string"* %ref.tmp162 to i8*
  call void @llvm.lifetime.start.p0i8(i64 32, i8* nonnull %103) #2
  %104 = getelementptr inbounds %"class.std::__cxx11::basic_string", %"class.std::__cxx11::basic_string"* %ref.tmp162, i64 0, i32 2
  %105 = bitcast %"class.std::__cxx11::basic_string"* %ref.tmp162 to %union.anon.1**
  store %union.anon.1* %104, %union.anon.1** %105, align 8, !tbaa !27, !alias.scope !52
  %106 = bitcast i64* %__dnew.i.i.i.i86.i to i8*
  call void @llvm.lifetime.start.p0i8(i64 8, i8* nonnull %106) #2, !noalias !52
  store i64 21, i64* %__dnew.i.i.i.i86.i, align 8, !tbaa !31, !noalias !52
  %call9.i.i.i.i91.i = invoke i8* @_ZNSt7__cxx1112basic_stringIcSt11char_traitsIcESaIcEE9_M_createERmm(%"class.std::__cxx11::basic_string"* nonnull %ref.tmp162, i64* nonnull dereferenceable(8) %__dnew.i.i.i.i86.i, i64 0)
          to label %invoke.cont164 unwind label %lpad163.body

invoke.cont164:                                   ; preds = %if.else161
  %_M_p.i28.i.i.i.i93.i = getelementptr inbounds %"class.std::__cxx11::basic_string", %"class.std::__cxx11::basic_string"* %ref.tmp162, i64 0, i32 0, i32 0
  store i8* %call9.i.i.i.i91.i, i8** %_M_p.i28.i.i.i.i93.i, align 8, !tbaa !32, !alias.scope !52
  %107 = load i64, i64* %__dnew.i.i.i.i86.i, align 8, !tbaa !31, !noalias !52
  %_M_allocated_capacity.i.i.i.i.i94.i = getelementptr inbounds %"class.std::__cxx11::basic_string", %"class.std::__cxx11::basic_string"* %ref.tmp162, i64 0, i32 2, i32 0
  store i64 %107, i64* %_M_allocated_capacity.i.i.i.i.i94.i, align 8, !tbaa !2, !alias.scope !52
  call void @llvm.memcpy.p0i8.p0i8.i64(i8* %call9.i.i.i.i91.i, i8* nonnull getelementptr inbounds ([22 x i8], [22 x i8]* @.str.9, i64 0, i64 0), i64 21, i32 1, i1 false) #2
  %_M_string_length.i.i.i.i.i.i101.i = getelementptr inbounds %"class.std::__cxx11::basic_string", %"class.std::__cxx11::basic_string"* %ref.tmp162, i64 0, i32 1
  store i64 %107, i64* %_M_string_length.i.i.i.i.i.i101.i, align 8, !tbaa !29, !alias.scope !52
  %108 = load i8*, i8** %_M_p.i28.i.i.i.i93.i, align 8, !tbaa !32, !alias.scope !52
  %arrayidx.i.i.i.i.i102.i = getelementptr inbounds i8, i8* %108, i64 %107
  store i8 0, i8* %arrayidx.i.i.i.i.i102.i, align 1, !tbaa !2
  call void @llvm.lifetime.end.p0i8(i64 8, i8* nonnull %106) #2, !noalias !52
  %call.i343 = call i32 @_ZNKSt7__cxx1112basic_stringIcSt11char_traitsIcESaIcEE7compareEPKc(%"class.std::__cxx11::basic_string"* nonnull %ref.tmp162, i8* %5) #2
  %cmp.i344 = icmp eq i32 %call.i343, 0
  %109 = load i8*, i8** %_M_p.i28.i.i.i.i93.i, align 8, !tbaa !32
  %arraydecay.i.i.i.i339 = bitcast %union.anon.1* %104 to i8*
  %cmp.i.i.i340 = icmp eq i8* %109, %arraydecay.i.i.i.i339
  br i1 %cmp.i.i.i340, label %_ZNSt7__cxx1112basic_stringIcSt11char_traitsIcESaIcEED2Ev.exit342, label %if.then.i.i341

if.then.i.i341:                                   ; preds = %invoke.cont164
  call void @_ZdlPv(i8* %109) #2
  br label %_ZNSt7__cxx1112basic_stringIcSt11char_traitsIcESaIcEED2Ev.exit342

_ZNSt7__cxx1112basic_stringIcSt11char_traitsIcESaIcEED2Ev.exit342: ; preds = %invoke.cont164, %if.then.i.i341
  call void @llvm.lifetime.end.p0i8(i64 32, i8* nonnull %103) #2
  br i1 %cmp.i344, label %if.then170, label %if.end228

if.then170:                                       ; preds = %_ZNSt7__cxx1112basic_stringIcSt11char_traitsIcESaIcEED2Ev.exit342
  %div171 = sdiv i64 %sub, 2
  %110 = call { i64, i1 } @llvm.umul.with.overflow.i64(i64 %div171, i64 16)
  %111 = extractvalue { i64, i1 } %110, 1
  %112 = extractvalue { i64, i1 } %110, 0
  %113 = select i1 %111, i64 -1, i64 %112
  %call175 = invoke i8* @_Znam(i64 %113) #23
          to label %invoke.cont174 unwind label %lpad173

invoke.cont174:                                   ; preds = %if.then170
  %114 = bitcast i8* %call175 to %"struct.std::pair.2"*
  %115 = icmp ult i64 %6, 3
  br i1 %115, label %sync.continue220, label %new.ctorloop177

new.ctorloop177:                                  ; preds = %invoke.cont174
  %arrayctor.end178 = getelementptr inbounds %"struct.std::pair.2", %"struct.std::pair.2"* %114, i64 %div171
  %116 = shl i64 %div171, 4
  %117 = add i64 %116, -16
  %118 = lshr exact i64 %117, 4
  %119 = add nuw nsw i64 %118, 1
  %xtraiter = and i64 %119, 7
  %lcmp.mod = icmp eq i64 %xtraiter, 0
  br i1 %lcmp.mod, label %arrayctor.loop179.prol.loopexit, label %arrayctor.loop179.prol.preheader

arrayctor.loop179.prol.preheader:                 ; preds = %new.ctorloop177
  %120 = shl nuw nsw i64 %xtraiter, 4
  br label %arrayctor.loop179.prol

arrayctor.loop179.prol:                           ; preds = %arrayctor.loop179.prol, %arrayctor.loop179.prol.preheader
  %arrayctor.cur180.prol = phi %"struct.std::pair.2"* [ %114, %arrayctor.loop179.prol.preheader ], [ %arrayctor.next183.prol, %arrayctor.loop179.prol ]
  %prol.iter = phi i64 [ %xtraiter, %arrayctor.loop179.prol.preheader ], [ %prol.iter.sub, %arrayctor.loop179.prol ]
  %first.i.prol = getelementptr inbounds %"struct.std::pair.2", %"struct.std::pair.2"* %arrayctor.cur180.prol, i64 0, i32 0
  store i8* null, i8** %first.i.prol, align 8, !tbaa !55
  %second.i.prol = getelementptr inbounds %"struct.std::pair.2", %"struct.std::pair.2"* %arrayctor.cur180.prol, i64 0, i32 1
  store i32 0, i32* %second.i.prol, align 8, !tbaa !57
  %arrayctor.next183.prol = getelementptr inbounds %"struct.std::pair.2", %"struct.std::pair.2"* %arrayctor.cur180.prol, i64 1
  %prol.iter.sub = add nsw i64 %prol.iter, -1
  %prol.iter.cmp = icmp eq i64 %prol.iter.sub, 0
  br i1 %prol.iter.cmp, label %arrayctor.loop179.prol.loopexit.loopexit, label %arrayctor.loop179.prol, !llvm.loop !58

arrayctor.loop179.prol.loopexit.loopexit:         ; preds = %arrayctor.loop179.prol
  %scevgep = getelementptr i8, i8* %call175, i64 %120
  %scevgep401 = bitcast i8* %scevgep to %"struct.std::pair.2"*
  br label %arrayctor.loop179.prol.loopexit

arrayctor.loop179.prol.loopexit:                  ; preds = %arrayctor.loop179.prol.loopexit.loopexit, %new.ctorloop177
  %arrayctor.cur180.unr = phi %"struct.std::pair.2"* [ %114, %new.ctorloop177 ], [ %scevgep401, %arrayctor.loop179.prol.loopexit.loopexit ]
  %121 = icmp ult i64 %117, 112
  br i1 %121, label %arrayctor.cont185, label %arrayctor.loop179.preheader

arrayctor.loop179.preheader:                      ; preds = %arrayctor.loop179.prol.loopexit
  br label %arrayctor.loop179

arrayctor.loop179:                                ; preds = %arrayctor.loop179.preheader, %arrayctor.loop179
  %arrayctor.cur180 = phi %"struct.std::pair.2"* [ %arrayctor.next183.7, %arrayctor.loop179 ], [ %arrayctor.cur180.unr, %arrayctor.loop179.preheader ]
  %first.i = getelementptr inbounds %"struct.std::pair.2", %"struct.std::pair.2"* %arrayctor.cur180, i64 0, i32 0
  store i8* null, i8** %first.i, align 8, !tbaa !55
  %second.i = getelementptr inbounds %"struct.std::pair.2", %"struct.std::pair.2"* %arrayctor.cur180, i64 0, i32 1
  store i32 0, i32* %second.i, align 8, !tbaa !57
  %first.i.1 = getelementptr inbounds %"struct.std::pair.2", %"struct.std::pair.2"* %arrayctor.cur180, i64 1, i32 0
  store i8* null, i8** %first.i.1, align 8, !tbaa !55
  %second.i.1 = getelementptr inbounds %"struct.std::pair.2", %"struct.std::pair.2"* %arrayctor.cur180, i64 1, i32 1
  store i32 0, i32* %second.i.1, align 8, !tbaa !57
  %first.i.2 = getelementptr inbounds %"struct.std::pair.2", %"struct.std::pair.2"* %arrayctor.cur180, i64 2, i32 0
  store i8* null, i8** %first.i.2, align 8, !tbaa !55
  %second.i.2 = getelementptr inbounds %"struct.std::pair.2", %"struct.std::pair.2"* %arrayctor.cur180, i64 2, i32 1
  store i32 0, i32* %second.i.2, align 8, !tbaa !57
  %first.i.3 = getelementptr inbounds %"struct.std::pair.2", %"struct.std::pair.2"* %arrayctor.cur180, i64 3, i32 0
  store i8* null, i8** %first.i.3, align 8, !tbaa !55
  %second.i.3 = getelementptr inbounds %"struct.std::pair.2", %"struct.std::pair.2"* %arrayctor.cur180, i64 3, i32 1
  store i32 0, i32* %second.i.3, align 8, !tbaa !57
  %first.i.4 = getelementptr inbounds %"struct.std::pair.2", %"struct.std::pair.2"* %arrayctor.cur180, i64 4, i32 0
  store i8* null, i8** %first.i.4, align 8, !tbaa !55
  %second.i.4 = getelementptr inbounds %"struct.std::pair.2", %"struct.std::pair.2"* %arrayctor.cur180, i64 4, i32 1
  store i32 0, i32* %second.i.4, align 8, !tbaa !57
  %first.i.5 = getelementptr inbounds %"struct.std::pair.2", %"struct.std::pair.2"* %arrayctor.cur180, i64 5, i32 0
  store i8* null, i8** %first.i.5, align 8, !tbaa !55
  %second.i.5 = getelementptr inbounds %"struct.std::pair.2", %"struct.std::pair.2"* %arrayctor.cur180, i64 5, i32 1
  store i32 0, i32* %second.i.5, align 8, !tbaa !57
  %first.i.6 = getelementptr inbounds %"struct.std::pair.2", %"struct.std::pair.2"* %arrayctor.cur180, i64 6, i32 0
  store i8* null, i8** %first.i.6, align 8, !tbaa !55
  %second.i.6 = getelementptr inbounds %"struct.std::pair.2", %"struct.std::pair.2"* %arrayctor.cur180, i64 6, i32 1
  store i32 0, i32* %second.i.6, align 8, !tbaa !57
  %first.i.7 = getelementptr inbounds %"struct.std::pair.2", %"struct.std::pair.2"* %arrayctor.cur180, i64 7, i32 0
  store i8* null, i8** %first.i.7, align 8, !tbaa !55
  %second.i.7 = getelementptr inbounds %"struct.std::pair.2", %"struct.std::pair.2"* %arrayctor.cur180, i64 7, i32 1
  store i32 0, i32* %second.i.7, align 8, !tbaa !57
  %arrayctor.next183.7 = getelementptr inbounds %"struct.std::pair.2", %"struct.std::pair.2"* %arrayctor.cur180, i64 8
  %arrayctor.done184.7 = icmp eq %"struct.std::pair.2"* %arrayctor.next183.7, %arrayctor.end178
  br i1 %arrayctor.done184.7, label %arrayctor.cont185, label %arrayctor.loop179

arrayctor.cont185:                                ; preds = %arrayctor.loop179, %arrayctor.loop179.prol.loopexit
  %cmp196395 = icmp sgt i64 %6, 2
  br i1 %cmp196395, label %pfor.detach198.preheader, label %sync.continue220

pfor.detach198.preheader:                         ; preds = %arrayctor.cont185
  %122 = icmp sgt i64 %div171, 1
  %smax = select i1 %122, i64 %div171, i64 1
  %123 = add nsw i64 %smax, -1
  %124 = zext i32 %__cilkrts_wc8406 to i64
  %125 = add nsw i64 %124, -1
  %126 = add nsw i64 %125, %123
  %127 = udiv i64 %126, %124
  %128 = icmp ult i64 %127, 2048
  %129 = select i1 %128, i64 %127, i64 2048
  call fastcc void @_ZN7benchIO20readSequenceFromFileEPc_pfor.detach198.ls(i64 0, i64 %123, i64 %129, i8** %4, %"struct.std::pair.2"* nonnull %114)
  br label %sync.continue220

lpad163.body:                                     ; preds = %if.else161
  %130 = landingpad { i8*, i32 }
          cleanup
  call void @llvm.lifetime.end.p0i8(i64 8, i8* nonnull %106) #2, !noalias !52
  %131 = extractvalue { i8*, i32 } %130, 0
  %132 = extractvalue { i8*, i32 } %130, 1
  call void @llvm.lifetime.end.p0i8(i64 32, i8* nonnull %103) #2
  br label %ehcleanup237

lpad173:                                          ; preds = %if.then170
  %133 = landingpad { i8*, i32 }
          cleanup
  %134 = extractvalue { i8*, i32 } %133, 0
  %135 = extractvalue { i8*, i32 } %133, 1
  br label %ehcleanup237

sync.continue220:                                 ; preds = %arrayctor.cont185, %invoke.cont174, %pfor.detach198.preheader
  %Chars222 = getelementptr inbounds %"struct.benchIO::words", %"struct.benchIO::words"* %W, i64 0, i32 1
  %136 = bitcast i8** %Chars222 to i64*
  %137 = load i64, i64* %136, align 8, !tbaa !11
  %A.i = getelementptr inbounds %"struct.benchIO::seqData", %"struct.benchIO::seqData"* %agg.result, i64 0, i32 0
  store i8* %call175, i8** %A.i, align 8, !tbaa !37
  %n.i = getelementptr inbounds %"struct.benchIO::seqData", %"struct.benchIO::seqData"* %agg.result, i64 0, i32 1
  store i64 %div171, i64* %n.i, align 8, !tbaa !40
  %dt.i = getelementptr inbounds %"struct.benchIO::seqData", %"struct.benchIO::seqData"* %agg.result, i64 0, i32 2
  store i32 3, i32* %dt.i, align 8, !tbaa !41
  %O.i = getelementptr inbounds %"struct.benchIO::seqData", %"struct.benchIO::seqData"* %agg.result, i64 0, i32 3
  %138 = bitcast i8** %O.i to i64*
  store i64 %137, i64* %138, align 8, !tbaa !42
  br label %cleanup

if.end228:                                        ; preds = %_ZNSt7__cxx1112basic_stringIcSt11char_traitsIcESaIcEED2Ev.exit342
  call void @abort() #22
  unreachable

cleanup:                                          ; preds = %sync.continue220, %sync.continue157, %sync.continue103, %sync.continue61, %sync.continue
  call void @llvm.lifetime.end.p0i8(i64 32, i8* nonnull %3) #2
  ret void

ehcleanup237:                                     ; preds = %lpad10, %lpad33, %lpad76, %lpad119, %lpad163.body, %lpad173, %lpad1
  %ehselector.slot.1 = phi i32 [ %30, %lpad1 ], [ %33, %lpad10 ], [ %54, %lpad33 ], [ %75, %lpad76 ], [ %102, %lpad119 ], [ %135, %lpad173 ], [ %132, %lpad163.body ]
  %exn.slot.1 = phi i8* [ %29, %lpad1 ], [ %32, %lpad10 ], [ %53, %lpad33 ], [ %74, %lpad76 ], [ %101, %lpad119 ], [ %134, %lpad173 ], [ %131, %lpad163.body ]
  call void @llvm.lifetime.end.p0i8(i64 32, i8* nonnull %3) #2
  br label %ehcleanup239

ehcleanup239:                                     ; preds = %ehcleanup237, %lpad
  %ehselector.slot.2 = phi i32 [ %ehselector.slot.1, %ehcleanup237 ], [ %27, %lpad ]
  %exn.slot.2 = phi i8* [ %exn.slot.1, %ehcleanup237 ], [ %26, %lpad ]
  %lpad.val = insertvalue { i8*, i32 } undef, i8* %exn.slot.2, 0
  %lpad.val242 = insertvalue { i8*, i32 } %lpad.val, i32 %ehselector.slot.2, 1
  resume { i8*, i32 } %lpad.val242
}

; Function Attrs: nounwind readnone speculatable
declare { i64, i1 } @llvm.umul.with.overflow.i64(i64, i64) #9

; Function Attrs: nobuiltin
declare noalias nonnull i8* @_Znam(i64) local_unnamed_addr #10

; Function Attrs: nobuiltin nounwind
declare void @_ZdaPv(i8*) local_unnamed_addr #11

; Function Attrs: norecurse uwtable
define i32 @main(i32 %argc, i8** %argv) local_unnamed_addr #12 personality i8* bitcast (i32 (...)* @__gxx_personality_v0 to i8*) {
entry:
  %ref.tmp.i194 = alloca %"class.std::__cxx11::basic_string", align 8
  %ref.tmp2.i195 = alloca %"class.std::allocator", align 1
  %ref.tmp.i = alloca %"class.std::__cxx11::basic_string", align 8
  %ref.tmp2.i = alloca %"class.std::allocator", align 1
  %__dnew.i.i.i.i.i = alloca i64, align 8
  %__dnew.i.i.i.i = alloca i64, align 8
  %P = alloca %struct.commandLine, align 8
  %agg.tmp = alloca %"class.std::__cxx11::basic_string", align 8
  %agg.tmp6 = alloca %"class.std::__cxx11::basic_string", align 8
  %agg.tmp16 = alloca %"class.std::__cxx11::basic_string", align 8
  %agg.tmp26 = alloca %"class.std::__cxx11::basic_string", align 8
  %D = alloca %"struct.benchIO::seqData", align 8
  %0 = bitcast %struct.commandLine* %P to i8*
  call void @llvm.lifetime.start.p0i8(i64 48, i8* nonnull %0) #2
  %1 = getelementptr inbounds %"class.std::__cxx11::basic_string", %"class.std::__cxx11::basic_string"* %agg.tmp, i64 0, i32 2
  %2 = bitcast %"class.std::__cxx11::basic_string"* %agg.tmp to %union.anon.1**
  store %union.anon.1* %1, %union.anon.1** %2, align 8, !tbaa !27
  %3 = bitcast %union.anon.1* %1 to i8*
  %4 = bitcast i64* %__dnew.i.i.i.i to i8*
  call void @llvm.lifetime.start.p0i8(i64 8, i8* nonnull %4) #2
  store i64 42, i64* %__dnew.i.i.i.i, align 8, !tbaa !31
  %call9.i.i.i.i = invoke i8* @_ZNSt7__cxx1112basic_stringIcSt11char_traitsIcESaIcEE9_M_createERmm(%"class.std::__cxx11::basic_string"* nonnull %agg.tmp, i64* nonnull dereferenceable(8) %__dnew.i.i.i.i, i64 0)
          to label %invoke.cont8.i.i.i.i unwind label %lpad.body

invoke.cont8.i.i.i.i:                             ; preds = %entry
  %_M_p.i28.i.i.i.i = getelementptr inbounds %"class.std::__cxx11::basic_string", %"class.std::__cxx11::basic_string"* %agg.tmp, i64 0, i32 0, i32 0
  store i8* %call9.i.i.i.i, i8** %_M_p.i28.i.i.i.i, align 8, !tbaa !32
  %5 = load i64, i64* %__dnew.i.i.i.i, align 8, !tbaa !31
  %_M_allocated_capacity.i.i.i.i.i = getelementptr inbounds %"class.std::__cxx11::basic_string", %"class.std::__cxx11::basic_string"* %agg.tmp, i64 0, i32 2, i32 0
  store i64 %5, i64* %_M_allocated_capacity.i.i.i.i.i, align 8, !tbaa !2
  call void @llvm.memcpy.p0i8.p0i8.i64(i8* %call9.i.i.i.i, i8* nonnull getelementptr inbounds ([43 x i8], [43 x i8]* @.str.14, i64 0, i64 0), i64 42, i32 1, i1 false) #2
  %_M_string_length.i.i.i.i.i.i = getelementptr inbounds %"class.std::__cxx11::basic_string", %"class.std::__cxx11::basic_string"* %agg.tmp, i64 0, i32 1
  store i64 %5, i64* %_M_string_length.i.i.i.i.i.i, align 8, !tbaa !29
  %arrayidx.i.i.i.i.i = getelementptr inbounds i8, i8* %call9.i.i.i.i, i64 %5
  store i8 0, i8* %arrayidx.i.i.i.i.i, align 1, !tbaa !2
  call void @llvm.lifetime.end.p0i8(i64 8, i8* nonnull %4) #2
  %argc.i = getelementptr inbounds %struct.commandLine, %struct.commandLine* %P, i64 0, i32 0
  store i32 %argc, i32* %argc.i, align 8, !tbaa !60
  %argv.i = getelementptr inbounds %struct.commandLine, %struct.commandLine* %P, i64 0, i32 1
  store i8** %argv, i8*** %argv.i, align 8, !tbaa !62
  %comLine.i = getelementptr inbounds %struct.commandLine, %struct.commandLine* %P, i64 0, i32 2
  %6 = getelementptr inbounds %struct.commandLine, %struct.commandLine* %P, i64 0, i32 2, i32 2
  %7 = bitcast %"class.std::__cxx11::basic_string"* %comLine.i to %union.anon.1**
  store %union.anon.1* %6, %union.anon.1** %7, align 8, !tbaa !27
  %8 = load i8*, i8** %_M_p.i28.i.i.i.i, align 8, !tbaa !32
  %9 = load i64, i64* %_M_string_length.i.i.i.i.i.i, align 8, !tbaa !29
  %cmp.i.i.i.i.i.i = icmp ne i8* %8, null
  %cmp.i.i.i.i.i = icmp eq i64 %9, 0
  %or.cond.i.i.i.i.i = or i1 %cmp.i.i.i.i.i.i, %cmp.i.i.i.i.i
  %10 = bitcast %union.anon.1* %6 to i8*
  br i1 %or.cond.i.i.i.i.i, label %invoke.cont4.i.i.i.i.i, label %if.then.i.i.i.i.i

if.then.i.i.i.i.i:                                ; preds = %invoke.cont8.i.i.i.i
  invoke void @_ZSt19__throw_logic_errorPKc(i8* getelementptr inbounds ([42 x i8], [42 x i8]* @.str.19, i64 0, i64 0)) #21
          to label %invoke.cont2.i.i.i.i.i unwind label %lpad.i.i.i.i.i

invoke.cont2.i.i.i.i.i:                           ; preds = %if.then.i.i.i.i.i
  unreachable

lpad.i.i.i.i.i:                                   ; preds = %if.then.i.i.i.i.i
  %11 = landingpad { i8*, i32 }
          cleanup
  %12 = extractvalue { i8*, i32 } %11, 0
  %13 = extractvalue { i8*, i32 } %11, 1
  br label %lpad1.body

invoke.cont4.i.i.i.i.i:                           ; preds = %invoke.cont8.i.i.i.i
  %14 = bitcast i64* %__dnew.i.i.i.i.i to i8*
  call void @llvm.lifetime.start.p0i8(i64 8, i8* nonnull %14) #2
  store i64 %9, i64* %__dnew.i.i.i.i.i, align 8, !tbaa !31
  %cmp6.i.i.i.i.i = icmp ugt i64 %9, 15
  br i1 %cmp6.i.i.i.i.i, label %if.then7.i.i.i.i.i, label %invoke.cont4.if.end12_crit_edge.i.i.i.i.i

invoke.cont4.if.end12_crit_edge.i.i.i.i.i:        ; preds = %invoke.cont4.i.i.i.i.i
  %_M_p.i.phi.trans.insert.i.i.i.i.i = getelementptr inbounds %"class.std::__cxx11::basic_string", %"class.std::__cxx11::basic_string"* %comLine.i, i64 0, i32 0, i32 0
  br label %if.end12.i.i.i.i.i

if.then7.i.i.i.i.i:                               ; preds = %invoke.cont4.i.i.i.i.i
  %call9.i.i.i.i.i = invoke i8* @_ZNSt7__cxx1112basic_stringIcSt11char_traitsIcESaIcEE9_M_createERmm(%"class.std::__cxx11::basic_string"* nonnull %comLine.i, i64* nonnull dereferenceable(8) %__dnew.i.i.i.i.i, i64 0)
          to label %invoke.cont8.i.i.i.i.i unwind label %lpad3.i.i.i.i.i

invoke.cont8.i.i.i.i.i:                           ; preds = %if.then7.i.i.i.i.i
  %_M_p.i28.i.i.i.i.i = getelementptr inbounds %"class.std::__cxx11::basic_string", %"class.std::__cxx11::basic_string"* %comLine.i, i64 0, i32 0, i32 0
  store i8* %call9.i.i.i.i.i, i8** %_M_p.i28.i.i.i.i.i, align 8, !tbaa !32
  %15 = load i64, i64* %__dnew.i.i.i.i.i, align 8, !tbaa !31
  %_M_allocated_capacity.i.i.i.i.i.i = getelementptr inbounds %struct.commandLine, %struct.commandLine* %P, i64 0, i32 2, i32 2, i32 0
  store i64 %15, i64* %_M_allocated_capacity.i.i.i.i.i.i, align 8, !tbaa !2
  br label %if.end12.i.i.i.i.i

lpad3.i.i.i.i.i:                                  ; preds = %if.then7.i.i.i.i.i
  %16 = landingpad { i8*, i32 }
          cleanup
  %17 = extractvalue { i8*, i32 } %16, 0
  %18 = extractvalue { i8*, i32 } %16, 1
  call void @llvm.lifetime.end.p0i8(i64 8, i8* nonnull %14) #2
  br label %lpad1.body

if.end12.i.i.i.i.i:                               ; preds = %invoke.cont8.i.i.i.i.i, %invoke.cont4.if.end12_crit_edge.i.i.i.i.i
  %_M_p.i.pre-phi.i.i.i.i.i = phi i8** [ %_M_p.i.phi.trans.insert.i.i.i.i.i, %invoke.cont4.if.end12_crit_edge.i.i.i.i.i ], [ %_M_p.i28.i.i.i.i.i, %invoke.cont8.i.i.i.i.i ]
  %19 = phi i8* [ %10, %invoke.cont4.if.end12_crit_edge.i.i.i.i.i ], [ %call9.i.i.i.i.i, %invoke.cont8.i.i.i.i.i ]
  switch i64 %9, label %if.end.i.i.i.i.i.i.i.i [
    i64 1, label %if.then.i.i.i.i.i.i.i
    i64 0, label %invoke.cont2
  ]

if.then.i.i.i.i.i.i.i:                            ; preds = %if.end12.i.i.i.i.i
  %20 = load i8, i8* %8, align 1, !tbaa !2
  store i8 %20, i8* %19, align 1, !tbaa !2
  br label %invoke.cont2

if.end.i.i.i.i.i.i.i.i:                           ; preds = %if.end12.i.i.i.i.i
  call void @llvm.memcpy.p0i8.p0i8.i64(i8* %19, i8* %8, i64 %9, i32 1, i1 false) #2
  br label %invoke.cont2

invoke.cont2:                                     ; preds = %if.end.i.i.i.i.i.i.i.i, %if.then.i.i.i.i.i.i.i, %if.end12.i.i.i.i.i
  %21 = load i64, i64* %__dnew.i.i.i.i.i, align 8, !tbaa !31
  %_M_string_length.i.i.i.i.i.i.i = getelementptr inbounds %struct.commandLine, %struct.commandLine* %P, i64 0, i32 2, i32 1
  store i64 %21, i64* %_M_string_length.i.i.i.i.i.i.i, align 8, !tbaa !29
  %22 = load i8*, i8** %_M_p.i.pre-phi.i.i.i.i.i, align 8, !tbaa !32
  %arrayidx.i.i.i.i.i.i = getelementptr inbounds i8, i8* %22, i64 %21
  store i8 0, i8* %arrayidx.i.i.i.i.i.i, align 1, !tbaa !2
  call void @llvm.lifetime.end.p0i8(i64 8, i8* nonnull %14) #2
  %23 = load i8*, i8** %_M_p.i28.i.i.i.i, align 8, !tbaa !32
  %cmp.i.i.i = icmp eq i8* %23, %3
  br i1 %cmp.i.i.i, label %_ZNSt7__cxx1112basic_stringIcSt11char_traitsIcESaIcEED2Ev.exit, label %if.then.i.i

if.then.i.i:                                      ; preds = %invoke.cont2
  call void @_ZdlPv(i8* %23) #2
  br label %_ZNSt7__cxx1112basic_stringIcSt11char_traitsIcESaIcEED2Ev.exit

_ZNSt7__cxx1112basic_stringIcSt11char_traitsIcESaIcEED2Ev.exit: ; preds = %invoke.cont2, %if.then.i.i
  %24 = load i32, i32* %argc.i, align 8, !tbaa !60
  %cmp.i = icmp slt i32 %24, 2
  br i1 %cmp.i, label %if.then.i, label %invoke.cont5

if.then.i:                                        ; preds = %_ZNSt7__cxx1112basic_stringIcSt11char_traitsIcESaIcEED2Ev.exit
  %call3.i280 = invoke dereferenceable(272) %"class.std::basic_ostream"* @_ZSt16__ostream_insertIcSt11char_traitsIcEERSt13basic_ostreamIT_T0_ES6_PKS3_l(%"class.std::basic_ostream"* nonnull dereferenceable(272) @_ZSt4cout, i8* nonnull getelementptr inbounds ([8 x i8], [8 x i8]* @.str.20, i64 0, i64 0), i64 7)
          to label %call.i.noexc unwind label %lpad4

call.i.noexc:                                     ; preds = %if.then.i
  %25 = load i8**, i8*** %argv.i, align 8, !tbaa !62
  %26 = load i8*, i8** %25, align 8, !tbaa !33
  %tobool.i = icmp eq i8* %26, null
  br i1 %tobool.i, label %if.then.i286, label %if.else.i

if.then.i286:                                     ; preds = %call.i.noexc
  %vtable.i282 = load i8*, i8** bitcast (%"class.std::basic_ostream"* @_ZSt4cout to i8**), align 8, !tbaa !14
  %vbase.offset.ptr.i283 = getelementptr i8, i8* %vtable.i282, i64 -24
  %27 = bitcast i8* %vbase.offset.ptr.i283 to i64*
  %vbase.offset.i284 = load i64, i64* %27, align 8
  %add.ptr.i285 = getelementptr inbounds i8, i8* bitcast (%"class.std::basic_ostream"* @_ZSt4cout to i8*), i64 %vbase.offset.i284
  %28 = bitcast i8* %add.ptr.i285 to %"class.std::basic_ios"*
  %_M_streambuf_state.i.i.i = getelementptr inbounds i8, i8* %add.ptr.i285, i64 32
  %29 = bitcast i8* %_M_streambuf_state.i.i.i to i32*
  %30 = load i32, i32* %29, align 8, !tbaa !16
  %or.i.i.i = or i32 %30, 1
  invoke void @_ZNSt9basic_iosIcSt11char_traitsIcEE5clearESt12_Ios_Iostate(%"class.std::basic_ios"* %28, i32 %or.i.i.i)
          to label %call3.i.noexc unwind label %lpad4

if.else.i:                                        ; preds = %call.i.noexc
  %call.i.i287 = call i64 @strlen(i8* nonnull %26) #2
  %call3.i290 = invoke dereferenceable(272) %"class.std::basic_ostream"* @_ZSt16__ostream_insertIcSt11char_traitsIcEERSt13basic_ostreamIT_T0_ES6_PKS3_l(%"class.std::basic_ostream"* nonnull dereferenceable(272) @_ZSt4cout, i8* nonnull %26, i64 %call.i.i287)
          to label %call3.i.noexc unwind label %lpad4

call3.i.noexc:                                    ; preds = %if.then.i286, %if.else.i
  %call3.i256 = invoke dereferenceable(272) %"class.std::basic_ostream"* @_ZSt16__ostream_insertIcSt11char_traitsIcEERSt13basic_ostreamIT_T0_ES6_PKS3_l(%"class.std::basic_ostream"* nonnull dereferenceable(272) @_ZSt4cout, i8* nonnull getelementptr inbounds ([2 x i8], [2 x i8]* @.str.21, i64 0, i64 0), i64 1)
          to label %call5.i.noexc unwind label %lpad4

call5.i.noexc:                                    ; preds = %call3.i.noexc
  %_M_p.i.i.i = getelementptr inbounds %"class.std::__cxx11::basic_string", %"class.std::__cxx11::basic_string"* %comLine.i, i64 0, i32 0, i32 0
  %31 = load i8*, i8** %_M_p.i.i.i, align 8, !tbaa !32
  %32 = load i64, i64* %_M_string_length.i.i.i.i.i.i.i, align 8, !tbaa !29
  %call2.i247 = invoke dereferenceable(272) %"class.std::basic_ostream"* @_ZSt16__ostream_insertIcSt11char_traitsIcEERSt13basic_ostreamIT_T0_ES6_PKS3_l(%"class.std::basic_ostream"* nonnull dereferenceable(272) @_ZSt4cout, i8* %31, i64 %32)
          to label %call7.i.noexc unwind label %lpad4

call7.i.noexc:                                    ; preds = %call5.i.noexc
  %call.i.i107112 = invoke dereferenceable(272) %"class.std::basic_ostream"* @_ZSt4endlIcSt11char_traitsIcEERSt13basic_ostreamIT_T0_ES6_(%"class.std::basic_ostream"* nonnull dereferenceable(272) %call2.i247)
          to label %call.i.i107.noexc unwind label %lpad4

call.i.i107.noexc:                                ; preds = %call7.i.noexc
  call void @abort() #22
  unreachable

invoke.cont5:                                     ; preds = %_ZNSt7__cxx1112basic_stringIcSt11char_traitsIcESaIcEED2Ev.exit
  %33 = load i8**, i8*** %argv.i, align 8, !tbaa !62
  %sub3.i = add i32 %24, -1
  %idxprom.i = sext i32 %sub3.i to i64
  %arrayidx.i = getelementptr inbounds i8*, i8** %33, i64 %idxprom.i
  %34 = load i8*, i8** %arrayidx.i, align 8, !tbaa !33
  %35 = getelementptr inbounds %"class.std::__cxx11::basic_string", %"class.std::__cxx11::basic_string"* %agg.tmp6, i64 0, i32 2
  %36 = bitcast %"class.std::__cxx11::basic_string"* %agg.tmp6 to %union.anon.1**
  store %union.anon.1* %35, %union.anon.1** %36, align 8, !tbaa !27
  %37 = bitcast %union.anon.1* %35 to i8*
  %_M_p.i.phi.trans.insert.i.i.i.i116 = getelementptr inbounds %"class.std::__cxx11::basic_string", %"class.std::__cxx11::basic_string"* %agg.tmp6, i64 0, i32 0, i32 0
  %38 = bitcast %union.anon.1* %35 to i16*
  store i16 28461, i16* %38, align 8
  %_M_string_length.i.i.i.i.i.i128 = getelementptr inbounds %"class.std::__cxx11::basic_string", %"class.std::__cxx11::basic_string"* %agg.tmp6, i64 0, i32 1
  store i64 2, i64* %_M_string_length.i.i.i.i.i.i128, align 8, !tbaa !29
  %arrayidx.i.i.i.i.i129 = getelementptr inbounds i8, i8* %37, i64 2
  store i8 0, i8* %arrayidx.i.i.i.i.i129, align 2, !tbaa !2
  %cmp20.i = icmp eq i32 %24, 2
  br i1 %cmp20.i, label %invoke.cont11, label %for.body.lr.ph.i

for.body.lr.ph.i:                                 ; preds = %invoke.cont5
  %39 = bitcast %"class.std::__cxx11::basic_string"* %ref.tmp.i to i8*
  %40 = getelementptr inbounds %"class.std::allocator", %"class.std::allocator"* %ref.tmp2.i, i64 0, i32 0
  %_M_string_length.i.i.i134 = getelementptr inbounds %"class.std::__cxx11::basic_string", %"class.std::__cxx11::basic_string"* %ref.tmp.i, i64 0, i32 1
  %_M_p.i.i.i.i.i135 = getelementptr inbounds %"class.std::__cxx11::basic_string", %"class.std::__cxx11::basic_string"* %ref.tmp.i, i64 0, i32 0, i32 0
  %41 = getelementptr inbounds %"class.std::__cxx11::basic_string", %"class.std::__cxx11::basic_string"* %ref.tmp.i, i64 0, i32 2
  %arraydecay.i.i.i.i.i136 = bitcast %union.anon.1* %41 to i8*
  br label %for.body.i

for.body.i:                                       ; preds = %for.inc.i.for.body.i_crit_edge, %for.body.lr.ph.i
  %42 = phi i8** [ %33, %for.body.lr.ph.i ], [ %.pre, %for.inc.i.for.body.i_crit_edge ]
  %indvars.iv.i = phi i64 [ 1, %for.body.lr.ph.i ], [ %indvars.iv.next.i, %for.inc.i.for.body.i_crit_edge ]
  call void @llvm.lifetime.start.p0i8(i64 32, i8* nonnull %39) #2
  %arrayidx.i138 = getelementptr inbounds i8*, i8** %42, i64 %indvars.iv.i
  %43 = load i8*, i8** %arrayidx.i138, align 8, !tbaa !33
  call void @llvm.lifetime.start.p0i8(i64 1, i8* nonnull %40) #2
  invoke void @_ZNSt7__cxx1112basic_stringIcSt11char_traitsIcESaIcEEC2EPKcRKS3_(%"class.std::__cxx11::basic_string"* nonnull %ref.tmp.i, i8* %43, %"class.std::allocator"* nonnull dereferenceable(1) %ref.tmp2.i)
          to label %invoke.cont.i unwind label %lpad10.body

invoke.cont.i:                                    ; preds = %for.body.i
  %44 = load i64, i64* %_M_string_length.i.i.i134, align 8, !tbaa !29
  %45 = load i64, i64* %_M_string_length.i.i.i.i.i.i128, align 8, !tbaa !29
  %cmp.i.i = icmp eq i64 %44, %45
  br i1 %cmp.i.i, label %land.rhs.i.i, label %_ZSteqIcEN9__gnu_cxx11__enable_ifIXsr9__is_charIT_EE7__valueEbE6__typeERKNSt7__cxx1112basic_stringIS2_St11char_traitsIS2_ESaIS2_EEESC_.exit.i

land.rhs.i.i:                                     ; preds = %invoke.cont.i
  %cmp.i.i.i139 = icmp eq i64 %44, 0
  br i1 %cmp.i.i.i139, label %_ZSteqIcEN9__gnu_cxx11__enable_ifIXsr9__is_charIT_EE7__valueEbE6__typeERKNSt7__cxx1112basic_stringIS2_St11char_traitsIS2_ESaIS2_EEESC_.exit.i, label %if.end.i.i.i

if.end.i.i.i:                                     ; preds = %land.rhs.i.i
  %46 = load i8*, i8** %_M_p.i.phi.trans.insert.i.i.i.i116, align 8, !tbaa !32
  %47 = load i8*, i8** %_M_p.i.i.i.i.i135, align 8, !tbaa !32
  %call.i.i.i = call i32 @memcmp(i8* %47, i8* %46, i64 %44) #2
  %phitmp.i.i = icmp eq i32 %call.i.i.i, 0
  br label %_ZSteqIcEN9__gnu_cxx11__enable_ifIXsr9__is_charIT_EE7__valueEbE6__typeERKNSt7__cxx1112basic_stringIS2_St11char_traitsIS2_ESaIS2_EEESC_.exit.i

_ZSteqIcEN9__gnu_cxx11__enable_ifIXsr9__is_charIT_EE7__valueEbE6__typeERKNSt7__cxx1112basic_stringIS2_St11char_traitsIS2_ESaIS2_EEESC_.exit.i: ; preds = %if.end.i.i.i, %land.rhs.i.i, %invoke.cont.i
  %48 = phi i1 [ false, %invoke.cont.i ], [ %phitmp.i.i, %if.end.i.i.i ], [ true, %land.rhs.i.i ]
  %49 = load i8*, i8** %_M_p.i.i.i.i.i135, align 8, !tbaa !32
  %cmp.i.i.i.i140 = icmp eq i8* %49, %arraydecay.i.i.i.i.i136
  br i1 %cmp.i.i.i.i140, label %_ZNSt7__cxx1112basic_stringIcSt11char_traitsIcESaIcEED2Ev.exit.i, label %if.then.i.i.i141

if.then.i.i.i141:                                 ; preds = %_ZSteqIcEN9__gnu_cxx11__enable_ifIXsr9__is_charIT_EE7__valueEbE6__typeERKNSt7__cxx1112basic_stringIS2_St11char_traitsIS2_ESaIS2_EEESC_.exit.i
  call void @_ZdlPv(i8* %49) #2
  br label %_ZNSt7__cxx1112basic_stringIcSt11char_traitsIcESaIcEED2Ev.exit.i

_ZNSt7__cxx1112basic_stringIcSt11char_traitsIcESaIcEED2Ev.exit.i: ; preds = %if.then.i.i.i141, %_ZSteqIcEN9__gnu_cxx11__enable_ifIXsr9__is_charIT_EE7__valueEbE6__typeERKNSt7__cxx1112basic_stringIS2_St11char_traitsIS2_ESaIS2_EEESC_.exit.i
  call void @llvm.lifetime.end.p0i8(i64 1, i8* nonnull %40) #2
  call void @llvm.lifetime.end.p0i8(i64 32, i8* nonnull %39) #2
  br i1 %48, label %cleanup.i, label %for.inc.i

for.inc.i:                                        ; preds = %_ZNSt7__cxx1112basic_stringIcSt11char_traitsIcESaIcEED2Ev.exit.i
  %indvars.iv.next.i = add nuw nsw i64 %indvars.iv.i, 1
  %50 = load i32, i32* %argc.i, align 8, !tbaa !60
  %sub.i = add nsw i32 %50, -1
  %51 = sext i32 %sub.i to i64
  %cmp.i142 = icmp slt i64 %indvars.iv.next.i, %51
  br i1 %cmp.i142, label %for.inc.i.for.body.i_crit_edge, label %invoke.cont11

for.inc.i.for.body.i_crit_edge:                   ; preds = %for.inc.i
  %.pre = load i8**, i8*** %argv.i, align 8, !tbaa !62
  br label %for.body.i

cleanup.i:                                        ; preds = %_ZNSt7__cxx1112basic_stringIcSt11char_traitsIcESaIcEED2Ev.exit.i
  %52 = load i8**, i8*** %argv.i, align 8, !tbaa !62
  %add.i = add nuw i64 %indvars.iv.i, 1
  %53 = and i64 %add.i, 4294967295
  %arrayidx5.i = getelementptr inbounds i8*, i8** %52, i64 %53
  %54 = load i8*, i8** %arrayidx5.i, align 8, !tbaa !33
  br label %invoke.cont11

invoke.cont11:                                    ; preds = %for.inc.i, %invoke.cont5, %cleanup.i
  %55 = phi i8* [ %54, %cleanup.i ], [ null, %invoke.cont5 ], [ null, %for.inc.i ]
  %56 = load i8*, i8** %_M_p.i.phi.trans.insert.i.i.i.i116, align 8, !tbaa !32
  %cmp.i.i.i146 = icmp eq i8* %56, %37
  br i1 %cmp.i.i.i146, label %_ZNSt7__cxx1112basic_stringIcSt11char_traitsIcESaIcEED2Ev.exit149, label %if.then.i.i147

if.then.i.i147:                                   ; preds = %invoke.cont11
  call void @_ZdlPv(i8* %56) #2
  br label %_ZNSt7__cxx1112basic_stringIcSt11char_traitsIcESaIcEED2Ev.exit149

_ZNSt7__cxx1112basic_stringIcSt11char_traitsIcESaIcEED2Ev.exit149: ; preds = %invoke.cont11, %if.then.i.i147
  %57 = getelementptr inbounds %"class.std::__cxx11::basic_string", %"class.std::__cxx11::basic_string"* %agg.tmp16, i64 0, i32 2
  %58 = bitcast %"class.std::__cxx11::basic_string"* %agg.tmp16 to %union.anon.1**
  store %union.anon.1* %57, %union.anon.1** %58, align 8, !tbaa !27
  %59 = bitcast %union.anon.1* %57 to i8*
  %_M_p.i.phi.trans.insert.i.i.i.i153 = getelementptr inbounds %"class.std::__cxx11::basic_string", %"class.std::__cxx11::basic_string"* %agg.tmp16, i64 0, i32 0, i32 0
  %60 = bitcast %union.anon.1* %57 to i16*
  store i16 29229, i16* %60, align 8
  %_M_string_length.i.i.i.i.i.i165 = getelementptr inbounds %"class.std::__cxx11::basic_string", %"class.std::__cxx11::basic_string"* %agg.tmp16, i64 0, i32 1
  store i64 2, i64* %_M_string_length.i.i.i.i.i.i165, align 8, !tbaa !29
  %arrayidx.i.i.i.i.i166 = getelementptr inbounds i8, i8* %59, i64 2
  store i8 0, i8* %arrayidx.i.i.i.i.i166, align 2, !tbaa !2
  %call22 = invoke i32 @_ZN11commandLine17getOptionIntValueENSt7__cxx1112basic_stringIcSt11char_traitsIcESaIcEEEi(%struct.commandLine* nonnull %P, %"class.std::__cxx11::basic_string"* nonnull %agg.tmp16, i32 1)
          to label %invoke.cont21 unwind label %lpad20

invoke.cont21:                                    ; preds = %_ZNSt7__cxx1112basic_stringIcSt11char_traitsIcESaIcEED2Ev.exit149
  %61 = load i8*, i8** %_M_p.i.phi.trans.insert.i.i.i.i153, align 8, !tbaa !32
  %cmp.i.i.i171 = icmp eq i8* %61, %59
  br i1 %cmp.i.i.i171, label %_ZNSt7__cxx1112basic_stringIcSt11char_traitsIcESaIcEED2Ev.exit174, label %if.then.i.i172

if.then.i.i172:                                   ; preds = %invoke.cont21
  call void @_ZdlPv(i8* %61) #2
  br label %_ZNSt7__cxx1112basic_stringIcSt11char_traitsIcESaIcEED2Ev.exit174

_ZNSt7__cxx1112basic_stringIcSt11char_traitsIcESaIcEED2Ev.exit174: ; preds = %invoke.cont21, %if.then.i.i172
  %62 = getelementptr inbounds %"class.std::__cxx11::basic_string", %"class.std::__cxx11::basic_string"* %agg.tmp26, i64 0, i32 2
  %63 = bitcast %"class.std::__cxx11::basic_string"* %agg.tmp26 to %union.anon.1**
  store %union.anon.1* %62, %union.anon.1** %63, align 8, !tbaa !27
  %64 = bitcast %union.anon.1* %62 to i8*
  %_M_p.i.phi.trans.insert.i.i.i.i178 = getelementptr inbounds %"class.std::__cxx11::basic_string", %"class.std::__cxx11::basic_string"* %agg.tmp26, i64 0, i32 0, i32 0
  %65 = bitcast %union.anon.1* %62 to i16*
  store i16 28717, i16* %65, align 8
  %_M_string_length.i.i.i.i.i.i190 = getelementptr inbounds %"class.std::__cxx11::basic_string", %"class.std::__cxx11::basic_string"* %agg.tmp26, i64 0, i32 1
  store i64 2, i64* %_M_string_length.i.i.i.i.i.i190, align 8, !tbaa !29
  %arrayidx.i.i.i.i.i191 = getelementptr inbounds i8, i8* %64, i64 2
  store i8 0, i8* %arrayidx.i.i.i.i.i191, align 2, !tbaa !2
  %66 = load i32, i32* %argc.i, align 8, !tbaa !60
  %cmp10.i = icmp sgt i32 %66, 1
  br i1 %cmp10.i, label %for.body.lr.ph.i203, label %_ZNSt7__cxx1112basic_stringIcSt11char_traitsIcESaIcEED2Ev.exit228

for.body.lr.ph.i203:                              ; preds = %_ZNSt7__cxx1112basic_stringIcSt11char_traitsIcESaIcEED2Ev.exit174
  %67 = bitcast %"class.std::__cxx11::basic_string"* %ref.tmp.i194 to i8*
  %68 = getelementptr inbounds %"class.std::allocator", %"class.std::allocator"* %ref.tmp2.i195, i64 0, i32 0
  %_M_string_length.i.i.i198 = getelementptr inbounds %"class.std::__cxx11::basic_string", %"class.std::__cxx11::basic_string"* %ref.tmp.i194, i64 0, i32 1
  %_M_p.i.i.i.i.i200 = getelementptr inbounds %"class.std::__cxx11::basic_string", %"class.std::__cxx11::basic_string"* %ref.tmp.i194, i64 0, i32 0, i32 0
  %69 = getelementptr inbounds %"class.std::__cxx11::basic_string", %"class.std::__cxx11::basic_string"* %ref.tmp.i194, i64 0, i32 2
  %arraydecay.i.i.i.i.i201 = bitcast %union.anon.1* %69 to i8*
  br label %for.body.i207

for.cond.i:                                       ; preds = %_ZNSt7__cxx1112basic_stringIcSt11char_traitsIcESaIcEED2Ev.exit.i219
  %70 = load i32, i32* %argc.i, align 8, !tbaa !60
  %71 = sext i32 %70 to i64
  %cmp.i204 = icmp slt i64 %indvars.iv.next.i218, %71
  br i1 %cmp.i204, label %for.body.i207, label %invoke.cont31

for.body.i207:                                    ; preds = %for.cond.i, %for.body.lr.ph.i203
  %indvars.iv.i205 = phi i64 [ 1, %for.body.lr.ph.i203 ], [ %indvars.iv.next.i218, %for.cond.i ]
  call void @llvm.lifetime.start.p0i8(i64 32, i8* nonnull %67) #2
  %72 = load i8**, i8*** %argv.i, align 8, !tbaa !62
  %arrayidx.i206 = getelementptr inbounds i8*, i8** %72, i64 %indvars.iv.i205
  %73 = load i8*, i8** %arrayidx.i206, align 8, !tbaa !33
  call void @llvm.lifetime.start.p0i8(i64 1, i8* nonnull %68) #2
  invoke void @_ZNSt7__cxx1112basic_stringIcSt11char_traitsIcESaIcEEC2EPKcRKS3_(%"class.std::__cxx11::basic_string"* nonnull %ref.tmp.i194, i8* %73, %"class.std::allocator"* nonnull dereferenceable(1) %ref.tmp2.i195)
          to label %invoke.cont.i209 unwind label %lpad30.body

invoke.cont.i209:                                 ; preds = %for.body.i207
  %74 = load i64, i64* %_M_string_length.i.i.i198, align 8, !tbaa !29
  %75 = load i64, i64* %_M_string_length.i.i.i.i.i.i190, align 8, !tbaa !29
  %cmp.i.i208 = icmp eq i64 %74, %75
  br i1 %cmp.i.i208, label %land.rhs.i.i211, label %_ZSteqIcEN9__gnu_cxx11__enable_ifIXsr9__is_charIT_EE7__valueEbE6__typeERKNSt7__cxx1112basic_stringIS2_St11char_traitsIS2_ESaIS2_EEESC_.exit.i216

land.rhs.i.i211:                                  ; preds = %invoke.cont.i209
  %cmp.i.i.i210 = icmp eq i64 %74, 0
  br i1 %cmp.i.i.i210, label %_ZSteqIcEN9__gnu_cxx11__enable_ifIXsr9__is_charIT_EE7__valueEbE6__typeERKNSt7__cxx1112basic_stringIS2_St11char_traitsIS2_ESaIS2_EEESC_.exit.i216, label %if.end.i.i.i214

if.end.i.i.i214:                                  ; preds = %land.rhs.i.i211
  %76 = load i8*, i8** %_M_p.i.phi.trans.insert.i.i.i.i178, align 8, !tbaa !32
  %77 = load i8*, i8** %_M_p.i.i.i.i.i200, align 8, !tbaa !32
  %call.i.i.i212 = call i32 @memcmp(i8* %77, i8* %76, i64 %74) #2
  %phitmp.i.i213 = icmp eq i32 %call.i.i.i212, 0
  br label %_ZSteqIcEN9__gnu_cxx11__enable_ifIXsr9__is_charIT_EE7__valueEbE6__typeERKNSt7__cxx1112basic_stringIS2_St11char_traitsIS2_ESaIS2_EEESC_.exit.i216

_ZSteqIcEN9__gnu_cxx11__enable_ifIXsr9__is_charIT_EE7__valueEbE6__typeERKNSt7__cxx1112basic_stringIS2_St11char_traitsIS2_ESaIS2_EEESC_.exit.i216: ; preds = %if.end.i.i.i214, %land.rhs.i.i211, %invoke.cont.i209
  %78 = phi i1 [ false, %invoke.cont.i209 ], [ %phitmp.i.i213, %if.end.i.i.i214 ], [ true, %land.rhs.i.i211 ]
  %79 = load i8*, i8** %_M_p.i.i.i.i.i200, align 8, !tbaa !32
  %cmp.i.i.i.i215 = icmp eq i8* %79, %arraydecay.i.i.i.i.i201
  br i1 %cmp.i.i.i.i215, label %_ZNSt7__cxx1112basic_stringIcSt11char_traitsIcESaIcEED2Ev.exit.i219, label %if.then.i.i.i217

if.then.i.i.i217:                                 ; preds = %_ZSteqIcEN9__gnu_cxx11__enable_ifIXsr9__is_charIT_EE7__valueEbE6__typeERKNSt7__cxx1112basic_stringIS2_St11char_traitsIS2_ESaIS2_EEESC_.exit.i216
  call void @_ZdlPv(i8* %79) #2
  br label %_ZNSt7__cxx1112basic_stringIcSt11char_traitsIcESaIcEED2Ev.exit.i219

_ZNSt7__cxx1112basic_stringIcSt11char_traitsIcESaIcEED2Ev.exit.i219: ; preds = %if.then.i.i.i217, %_ZSteqIcEN9__gnu_cxx11__enable_ifIXsr9__is_charIT_EE7__valueEbE6__typeERKNSt7__cxx1112basic_stringIS2_St11char_traitsIS2_ESaIS2_EEESC_.exit.i216
  call void @llvm.lifetime.end.p0i8(i64 1, i8* nonnull %68) #2
  call void @llvm.lifetime.end.p0i8(i64 32, i8* nonnull %67) #2
  %indvars.iv.next.i218 = add nuw nsw i64 %indvars.iv.i205, 1
  br i1 %78, label %invoke.cont31, label %for.cond.i

invoke.cont31:                                    ; preds = %_ZNSt7__cxx1112basic_stringIcSt11char_traitsIcESaIcEED2Ev.exit.i219, %for.cond.i
  %.ph = phi i1 [ false, %for.cond.i ], [ true, %_ZNSt7__cxx1112basic_stringIcSt11char_traitsIcESaIcEED2Ev.exit.i219 ]
  %.pre296 = load i8*, i8** %_M_p.i.phi.trans.insert.i.i.i.i178, align 8, !tbaa !32
  %cmp.i.i.i225 = icmp eq i8* %.pre296, %64
  br i1 %cmp.i.i.i225, label %_ZNSt7__cxx1112basic_stringIcSt11char_traitsIcESaIcEED2Ev.exit228, label %if.then.i.i226

if.then.i.i226:                                   ; preds = %invoke.cont31
  call void @_ZdlPv(i8* %.pre296) #2
  br label %_ZNSt7__cxx1112basic_stringIcSt11char_traitsIcESaIcEED2Ev.exit228

_ZNSt7__cxx1112basic_stringIcSt11char_traitsIcESaIcEED2Ev.exit228: ; preds = %_ZNSt7__cxx1112basic_stringIcSt11char_traitsIcESaIcEED2Ev.exit174, %invoke.cont31, %if.then.i.i226
  %80 = phi i1 [ %.ph, %invoke.cont31 ], [ %.ph, %if.then.i.i226 ], [ false, %_ZNSt7__cxx1112basic_stringIcSt11char_traitsIcESaIcEED2Ev.exit174 ]
  %81 = bitcast %"struct.benchIO::seqData"* %D to i8*
  call void @llvm.lifetime.start.p0i8(i64 32, i8* nonnull %81) #2
  invoke void @_ZN7benchIO20readSequenceFromFileEPc(%"struct.benchIO::seqData"* nonnull sret %D, i8* %34)
          to label %invoke.cont37 unwind label %lpad36

invoke.cont37:                                    ; preds = %_ZNSt7__cxx1112basic_stringIcSt11char_traitsIcESaIcEED2Ev.exit228
  %dt38 = getelementptr inbounds %"struct.benchIO::seqData", %"struct.benchIO::seqData"* %D, i64 0, i32 2
  %82 = load i32, i32* %dt38, align 8, !tbaa !41
  switch i32 %82, label %sw.default [
    i32 1, label %sw.bb
    i32 2, label %sw.bb42
    i32 4, label %sw.bb49
    i32 5, label %sw.bb56
  ]

lpad.body:                                        ; preds = %entry
  %83 = landingpad { i8*, i32 }
          cleanup
  call void @llvm.lifetime.end.p0i8(i64 8, i8* nonnull %4) #2
  %84 = extractvalue { i8*, i32 } %83, 0
  %85 = extractvalue { i8*, i32 } %83, 1
  br label %ehcleanup81

lpad1.body:                                       ; preds = %lpad.i.i.i.i.i, %lpad3.i.i.i.i.i
  %exn.slot.0.i.i.i.i.i = phi i8* [ %12, %lpad.i.i.i.i.i ], [ %17, %lpad3.i.i.i.i.i ]
  %ehselector.slot.0.i.i.i.i.i = phi i32 [ %13, %lpad.i.i.i.i.i ], [ %18, %lpad3.i.i.i.i.i ]
  %86 = load i8*, i8** %_M_p.i28.i.i.i.i, align 8, !tbaa !32
  %cmp.i.i.i231 = icmp eq i8* %86, %3
  br i1 %cmp.i.i.i231, label %ehcleanup81, label %if.then.i.i232

if.then.i.i232:                                   ; preds = %lpad1.body
  call void @_ZdlPv(i8* %86) #2
  br label %ehcleanup81

lpad4:                                            ; preds = %if.else.i, %if.then.i286, %if.then.i, %call3.i.noexc, %call5.i.noexc, %call7.i.noexc
  %87 = landingpad { i8*, i32 }
          cleanup
  %88 = extractvalue { i8*, i32 } %87, 0
  %89 = extractvalue { i8*, i32 } %87, 1
  br label %ehcleanup77

lpad10.body:                                      ; preds = %for.body.i
  %90 = landingpad { i8*, i32 }
          cleanup
  call void @llvm.lifetime.end.p0i8(i64 1, i8* nonnull %40) #2
  call void @llvm.lifetime.end.p0i8(i64 32, i8* nonnull %39) #2
  %91 = extractvalue { i8*, i32 } %90, 0
  %92 = extractvalue { i8*, i32 } %90, 1
  %93 = load i8*, i8** %_M_p.i.phi.trans.insert.i.i.i.i116, align 8, !tbaa !32
  %cmp.i.i.i237 = icmp eq i8* %93, %37
  br i1 %cmp.i.i.i237, label %ehcleanup77, label %if.then.i.i238

if.then.i.i238:                                   ; preds = %lpad10.body
  call void @_ZdlPv(i8* %93) #2
  br label %ehcleanup77

lpad20:                                           ; preds = %_ZNSt7__cxx1112basic_stringIcSt11char_traitsIcESaIcEED2Ev.exit149
  %94 = landingpad { i8*, i32 }
          cleanup
  %95 = extractvalue { i8*, i32 } %94, 0
  %96 = extractvalue { i8*, i32 } %94, 1
  %97 = load i8*, i8** %_M_p.i.phi.trans.insert.i.i.i.i153, align 8, !tbaa !32
  %cmp.i.i.i243 = icmp eq i8* %97, %59
  br i1 %cmp.i.i.i243, label %ehcleanup77, label %if.then.i.i244

if.then.i.i244:                                   ; preds = %lpad20
  call void @_ZdlPv(i8* %97) #2
  br label %ehcleanup77

lpad30.body:                                      ; preds = %for.body.i207
  %98 = landingpad { i8*, i32 }
          cleanup
  call void @llvm.lifetime.end.p0i8(i64 1, i8* nonnull %68) #2
  call void @llvm.lifetime.end.p0i8(i64 32, i8* nonnull %67) #2
  %99 = extractvalue { i8*, i32 } %98, 0
  %100 = extractvalue { i8*, i32 } %98, 1
  %101 = load i8*, i8** %_M_p.i.phi.trans.insert.i.i.i.i178, align 8, !tbaa !32
  %cmp.i.i.i250 = icmp eq i8* %101, %64
  br i1 %cmp.i.i.i250, label %ehcleanup77, label %if.then.i.i251

if.then.i.i251:                                   ; preds = %lpad30.body
  call void @_ZdlPv(i8* %101) #2
  br label %ehcleanup77

lpad36:                                           ; preds = %_ZNSt7__cxx1112basic_stringIcSt11char_traitsIcESaIcEED2Ev.exit228
  %102 = landingpad { i8*, i32 }
          cleanup
  br label %ehcleanup69

sw.bb:                                            ; preds = %invoke.cont37
  %103 = bitcast %"struct.benchIO::seqData"* %D to i32**
  %104 = load i32*, i32** %103, align 8, !tbaa !37
  %n = getelementptr inbounds %"struct.benchIO::seqData", %"struct.benchIO::seqData"* %D, i64 0, i32 1
  %105 = load i64, i64* %n, align 8, !tbaa !40
  %conv = trunc i64 %105 to i32
  invoke void @_Z8timeSortIiSt4lessIiEEvPT_iT0_ibPc(i32* %104, i32 %conv, i32 %call22, i1 zeroext %80, i8* %55)
          to label %cleanup unwind label %lpad40

lpad40:                                           ; preds = %call2.i.noexc, %_ZNKSt9basic_iosIcSt11char_traitsIcEE5widenEc.exit.i, %.noexc268, %if.end.i.i.i265, %if.then.i.i.i263, %sw.default, %sw.bb56, %sw.bb49, %sw.bb42, %sw.bb
  %106 = landingpad { i8*, i32 }
          cleanup
  br label %ehcleanup69

sw.bb42:                                          ; preds = %invoke.cont37
  %107 = bitcast %"struct.benchIO::seqData"* %D to %"struct.std::pair"**
  %108 = load %"struct.std::pair"*, %"struct.std::pair"** %107, align 8, !tbaa !37
  %n44 = getelementptr inbounds %"struct.benchIO::seqData", %"struct.benchIO::seqData"* %D, i64 0, i32 1
  %109 = load i64, i64* %n44, align 8, !tbaa !40
  %conv45 = trunc i64 %109 to i32
  invoke void @_Z8timeSortISt4pairIiiE8pairLessEvPT_iT0_ibPc(%"struct.std::pair"* %108, i32 %conv45, i32 %call22, i1 zeroext %80, i8* %55)
          to label %cleanup unwind label %lpad40

sw.bb49:                                          ; preds = %invoke.cont37
  %110 = bitcast %"struct.benchIO::seqData"* %D to double**
  %111 = load double*, double** %110, align 8, !tbaa !37
  %n51 = getelementptr inbounds %"struct.benchIO::seqData", %"struct.benchIO::seqData"* %D, i64 0, i32 1
  %112 = load i64, i64* %n51, align 8, !tbaa !40
  %conv52 = trunc i64 %112 to i32
  invoke void @_Z8timeSortIdSt4lessIdEEvPT_iT0_ibPc(double* %111, i32 %conv52, i32 %call22, i1 zeroext %80, i8* %55)
          to label %cleanup unwind label %lpad40

sw.bb56:                                          ; preds = %invoke.cont37
  %113 = bitcast %"struct.benchIO::seqData"* %D to i8***
  %114 = load i8**, i8*** %113, align 8, !tbaa !37
  %n58 = getelementptr inbounds %"struct.benchIO::seqData", %"struct.benchIO::seqData"* %D, i64 0, i32 1
  %115 = load i64, i64* %n58, align 8, !tbaa !40
  %conv59 = trunc i64 %115 to i32
  invoke void @_Z8timeSortIPc6strCmpEvPT_iT0_ibS0_(i8** %114, i32 %conv59, i32 %call22, i1 zeroext %80, i8* %55)
          to label %cleanup unwind label %lpad40

sw.default:                                       ; preds = %invoke.cont37
  %call3.i259 = invoke dereferenceable(272) %"class.std::basic_ostream"* @_ZSt16__ostream_insertIcSt11char_traitsIcEERSt13basic_ostreamIT_T0_ES6_PKS3_l(%"class.std::basic_ostream"* nonnull dereferenceable(272) @_ZSt4cout, i8* nonnull getelementptr inbounds ([45 x i8], [45 x i8]* @.str.18, i64 0, i64 0), i64 44)
          to label %invoke.cont63 unwind label %lpad40

invoke.cont63:                                    ; preds = %sw.default
  %vtable.i = load i8*, i8** bitcast (%"class.std::basic_ostream"* @_ZSt4cout to i8**), align 8, !tbaa !14
  %vbase.offset.ptr.i = getelementptr i8, i8* %vtable.i, i64 -24
  %116 = bitcast i8* %vbase.offset.ptr.i to i64*
  %vbase.offset.i = load i64, i64* %116, align 8
  %add.ptr.i = getelementptr inbounds i8, i8* bitcast (%"class.std::basic_ostream"* @_ZSt4cout to i8*), i64 %vbase.offset.i
  %_M_ctype.i.i = getelementptr inbounds i8, i8* %add.ptr.i, i64 240
  %117 = bitcast i8* %_M_ctype.i.i to %"class.std::ctype"**
  %118 = load %"class.std::ctype"*, %"class.std::ctype"** %117, align 8, !tbaa !23
  %tobool.i.i.i = icmp eq %"class.std::ctype"* %118, null
  br i1 %tobool.i.i.i, label %if.then.i.i.i263, label %_ZSt13__check_facetISt5ctypeIcEERKT_PS3_.exit.i.i

if.then.i.i.i263:                                 ; preds = %invoke.cont63
  invoke void @_ZSt16__throw_bad_castv() #21
          to label %.noexc267 unwind label %lpad40

.noexc267:                                        ; preds = %if.then.i.i.i263
  unreachable

_ZSt13__check_facetISt5ctypeIcEERKT_PS3_.exit.i.i: ; preds = %invoke.cont63
  %_M_widen_ok.i.i.i = getelementptr inbounds %"class.std::ctype", %"class.std::ctype"* %118, i64 0, i32 8
  %119 = load i8, i8* %_M_widen_ok.i.i.i, align 8, !tbaa !25
  %tobool.i5.i.i = icmp eq i8 %119, 0
  br i1 %tobool.i5.i.i, label %if.end.i.i.i265, label %if.then.i6.i.i

if.then.i6.i.i:                                   ; preds = %_ZSt13__check_facetISt5ctypeIcEERKT_PS3_.exit.i.i
  %arrayidx.i.i.i = getelementptr inbounds %"class.std::ctype", %"class.std::ctype"* %118, i64 0, i32 9, i64 10
  %120 = load i8, i8* %arrayidx.i.i.i, align 1, !tbaa !2
  br label %_ZNKSt9basic_iosIcSt11char_traitsIcEE5widenEc.exit.i

if.end.i.i.i265:                                  ; preds = %_ZSt13__check_facetISt5ctypeIcEERKT_PS3_.exit.i.i
  invoke void @_ZNKSt5ctypeIcE13_M_widen_initEv(%"class.std::ctype"* nonnull %118)
          to label %.noexc268 unwind label %lpad40

.noexc268:                                        ; preds = %if.end.i.i.i265
  %121 = bitcast %"class.std::ctype"* %118 to i8 (%"class.std::ctype"*, i8)***
  %vtable.i.i.i = load i8 (%"class.std::ctype"*, i8)**, i8 (%"class.std::ctype"*, i8)*** %121, align 8, !tbaa !14
  %vfn.i.i.i = getelementptr inbounds i8 (%"class.std::ctype"*, i8)*, i8 (%"class.std::ctype"*, i8)** %vtable.i.i.i, i64 6
  %122 = load i8 (%"class.std::ctype"*, i8)*, i8 (%"class.std::ctype"*, i8)** %vfn.i.i.i, align 8
  %call.i.i.i264269 = invoke signext i8 %122(%"class.std::ctype"* nonnull %118, i8 signext 10)
          to label %_ZNKSt9basic_iosIcSt11char_traitsIcEE5widenEc.exit.i unwind label %lpad40

_ZNKSt9basic_iosIcSt11char_traitsIcEE5widenEc.exit.i: ; preds = %.noexc268, %if.then.i6.i.i
  %retval.0.i.i.i = phi i8 [ %120, %if.then.i6.i.i ], [ %call.i.i.i264269, %.noexc268 ]
  %call2.i270 = invoke dereferenceable(272) %"class.std::basic_ostream"* @_ZNSo3putEc(%"class.std::basic_ostream"* nonnull @_ZSt4cout, i8 signext %retval.0.i.i.i)
          to label %call2.i.noexc unwind label %lpad40

call2.i.noexc:                                    ; preds = %_ZNKSt9basic_iosIcSt11char_traitsIcEE5widenEc.exit.i
  %call.i.i266271 = invoke dereferenceable(272) %"class.std::basic_ostream"* @_ZNSo5flushEv(%"class.std::basic_ostream"* nonnull %call2.i270)
          to label %cleanup unwind label %lpad40

cleanup:                                          ; preds = %call2.i.noexc, %sw.bb, %sw.bb42, %sw.bb49, %sw.bb56
  %retval.0 = phi i32 [ 0, %sw.bb56 ], [ 0, %sw.bb49 ], [ 0, %sw.bb42 ], [ 0, %sw.bb ], [ 1, %call2.i.noexc ]
  call void @llvm.lifetime.end.p0i8(i64 32, i8* nonnull %81) #2
  %_M_p.i.i.i.i.i272 = getelementptr inbounds %struct.commandLine, %struct.commandLine* %P, i64 0, i32 2, i32 0, i32 0
  %123 = load i8*, i8** %_M_p.i.i.i.i.i272, align 8, !tbaa !32
  %cmp.i.i.i.i274 = icmp eq i8* %123, %10
  br i1 %cmp.i.i.i.i274, label %_ZN11commandLineD2Ev.exit277, label %if.then.i.i.i275

if.then.i.i.i275:                                 ; preds = %cleanup
  call void @_ZdlPv(i8* %123) #2
  br label %_ZN11commandLineD2Ev.exit277

_ZN11commandLineD2Ev.exit277:                     ; preds = %cleanup, %if.then.i.i.i275
  call void @llvm.lifetime.end.p0i8(i64 48, i8* nonnull %0) #2
  ret i32 %retval.0

ehcleanup69:                                      ; preds = %lpad40, %lpad36
  %.sink302 = phi { i8*, i32 } [ %106, %lpad40 ], [ %102, %lpad36 ]
  %124 = extractvalue { i8*, i32 } %.sink302, 0
  %125 = extractvalue { i8*, i32 } %.sink302, 1
  call void @llvm.lifetime.end.p0i8(i64 32, i8* nonnull %81) #2
  br label %ehcleanup77

ehcleanup77:                                      ; preds = %lpad30.body, %if.then.i.i251, %lpad20, %if.then.i.i244, %lpad10.body, %if.then.i.i238, %ehcleanup69, %lpad4
  %ehselector.slot.8 = phi i32 [ %89, %lpad4 ], [ %125, %ehcleanup69 ], [ %92, %lpad10.body ], [ %92, %if.then.i.i238 ], [ %96, %lpad20 ], [ %96, %if.then.i.i244 ], [ %100, %lpad30.body ], [ %100, %if.then.i.i251 ]
  %exn.slot.8 = phi i8* [ %88, %lpad4 ], [ %124, %ehcleanup69 ], [ %91, %lpad10.body ], [ %91, %if.then.i.i238 ], [ %95, %lpad20 ], [ %95, %if.then.i.i244 ], [ %99, %lpad30.body ], [ %99, %if.then.i.i251 ]
  %_M_p.i.i.i.i.i = getelementptr inbounds %struct.commandLine, %struct.commandLine* %P, i64 0, i32 2, i32 0, i32 0
  %126 = load i8*, i8** %_M_p.i.i.i.i.i, align 8, !tbaa !32
  %cmp.i.i.i.i = icmp eq i8* %126, %10
  br i1 %cmp.i.i.i.i, label %ehcleanup81, label %if.then.i.i.i

if.then.i.i.i:                                    ; preds = %ehcleanup77
  call void @_ZdlPv(i8* %126) #2
  br label %ehcleanup81

ehcleanup81:                                      ; preds = %if.then.i.i.i, %ehcleanup77, %lpad.body, %lpad1.body, %if.then.i.i232
  %ehselector.slot.9 = phi i32 [ %85, %lpad.body ], [ %ehselector.slot.0.i.i.i.i.i, %lpad1.body ], [ %ehselector.slot.0.i.i.i.i.i, %if.then.i.i232 ], [ %ehselector.slot.8, %ehcleanup77 ], [ %ehselector.slot.8, %if.then.i.i.i ]
  %exn.slot.9 = phi i8* [ %84, %lpad.body ], [ %exn.slot.0.i.i.i.i.i, %lpad1.body ], [ %exn.slot.0.i.i.i.i.i, %if.then.i.i232 ], [ %exn.slot.8, %ehcleanup77 ], [ %exn.slot.8, %if.then.i.i.i ]
  call void @llvm.lifetime.end.p0i8(i64 48, i8* nonnull %0) #2
  %lpad.val = insertvalue { i8*, i32 } undef, i8* %exn.slot.9, 0
  %lpad.val84 = insertvalue { i8*, i32 } %lpad.val, i32 %ehselector.slot.9, 1
  resume { i8*, i32 } %lpad.val84
}

; Function Attrs: uwtable
define linkonce_odr i32 @_ZN11commandLine17getOptionIntValueENSt7__cxx1112basic_stringIcSt11char_traitsIcESaIcEEEi(%struct.commandLine* %this, %"class.std::__cxx11::basic_string"* %option, i32 %defaultValue) local_unnamed_addr #4 comdat align 2 personality i8* bitcast (i32 (...)* @__gxx_personality_v0 to i8*) {
entry:
  %ref.tmp = alloca %"class.std::__cxx11::basic_string", align 8
  %ref.tmp2 = alloca %"class.std::allocator", align 1
  %argc = getelementptr inbounds %struct.commandLine, %struct.commandLine* %this, i64 0, i32 0
  %0 = load i32, i32* %argc, align 8, !tbaa !60
  %cmp50 = icmp sgt i32 %0, 2
  br i1 %cmp50, label %for.body.lr.ph, label %cleanup

for.body.lr.ph:                                   ; preds = %entry
  %1 = bitcast %"class.std::__cxx11::basic_string"* %ref.tmp to i8*
  %argv = getelementptr inbounds %struct.commandLine, %struct.commandLine* %this, i64 0, i32 1
  %2 = getelementptr inbounds %"class.std::allocator", %"class.std::allocator"* %ref.tmp2, i64 0, i32 0
  %_M_string_length.i.i = getelementptr inbounds %"class.std::__cxx11::basic_string", %"class.std::__cxx11::basic_string"* %ref.tmp, i64 0, i32 1
  %_M_string_length.i9.i = getelementptr inbounds %"class.std::__cxx11::basic_string", %"class.std::__cxx11::basic_string"* %option, i64 0, i32 1
  %_M_p.i.i.i.i = getelementptr inbounds %"class.std::__cxx11::basic_string", %"class.std::__cxx11::basic_string"* %ref.tmp, i64 0, i32 0, i32 0
  %3 = getelementptr inbounds %"class.std::__cxx11::basic_string", %"class.std::__cxx11::basic_string"* %ref.tmp, i64 0, i32 2
  %arraydecay.i.i.i.i = bitcast %union.anon.1* %3 to i8*
  %_M_p.i.i.i = getelementptr inbounds %"class.std::__cxx11::basic_string", %"class.std::__cxx11::basic_string"* %option, i64 0, i32 0, i32 0
  br label %for.body

for.body:                                         ; preds = %for.body.lr.ph, %for.inc
  %indvars.iv = phi i64 [ 1, %for.body.lr.ph ], [ %indvars.iv.next, %for.inc ]
  call void @llvm.lifetime.start.p0i8(i64 32, i8* nonnull %1) #2
  %4 = load i8**, i8*** %argv, align 8, !tbaa !62
  %arrayidx = getelementptr inbounds i8*, i8** %4, i64 %indvars.iv
  %5 = load i8*, i8** %arrayidx, align 8, !tbaa !33
  call void @llvm.lifetime.start.p0i8(i64 1, i8* nonnull %2) #2
  invoke void @_ZNSt7__cxx1112basic_stringIcSt11char_traitsIcESaIcEEC2EPKcRKS3_(%"class.std::__cxx11::basic_string"* nonnull %ref.tmp, i8* %5, %"class.std::allocator"* nonnull dereferenceable(1) %ref.tmp2)
          to label %invoke.cont unwind label %lpad

invoke.cont:                                      ; preds = %for.body
  %6 = load i64, i64* %_M_string_length.i.i, align 8, !tbaa !29
  %7 = load i64, i64* %_M_string_length.i9.i, align 8, !tbaa !29
  %cmp.i = icmp eq i64 %6, %7
  br i1 %cmp.i, label %land.rhs.i, label %_ZSteqIcEN9__gnu_cxx11__enable_ifIXsr9__is_charIT_EE7__valueEbE6__typeERKNSt7__cxx1112basic_stringIS2_St11char_traitsIS2_ESaIS2_EEESC_.exit

land.rhs.i:                                       ; preds = %invoke.cont
  %cmp.i.i = icmp eq i64 %6, 0
  br i1 %cmp.i.i, label %_ZSteqIcEN9__gnu_cxx11__enable_ifIXsr9__is_charIT_EE7__valueEbE6__typeERKNSt7__cxx1112basic_stringIS2_St11char_traitsIS2_ESaIS2_EEESC_.exit, label %if.end.i.i

if.end.i.i:                                       ; preds = %land.rhs.i
  %8 = load i8*, i8** %_M_p.i.i.i, align 8, !tbaa !32
  %9 = load i8*, i8** %_M_p.i.i.i.i, align 8, !tbaa !32
  %call.i.i = call i32 @memcmp(i8* %9, i8* %8, i64 %6) #2
  %phitmp.i = icmp eq i32 %call.i.i, 0
  br label %_ZSteqIcEN9__gnu_cxx11__enable_ifIXsr9__is_charIT_EE7__valueEbE6__typeERKNSt7__cxx1112basic_stringIS2_St11char_traitsIS2_ESaIS2_EEESC_.exit

_ZSteqIcEN9__gnu_cxx11__enable_ifIXsr9__is_charIT_EE7__valueEbE6__typeERKNSt7__cxx1112basic_stringIS2_St11char_traitsIS2_ESaIS2_EEESC_.exit: ; preds = %invoke.cont, %land.rhs.i, %if.end.i.i
  %10 = phi i1 [ false, %invoke.cont ], [ %phitmp.i, %if.end.i.i ], [ true, %land.rhs.i ]
  %11 = load i8*, i8** %_M_p.i.i.i.i, align 8, !tbaa !32
  %cmp.i.i.i = icmp eq i8* %11, %arraydecay.i.i.i.i
  br i1 %cmp.i.i.i, label %_ZNSt7__cxx1112basic_stringIcSt11char_traitsIcESaIcEED2Ev.exit, label %if.then.i.i

if.then.i.i:                                      ; preds = %_ZSteqIcEN9__gnu_cxx11__enable_ifIXsr9__is_charIT_EE7__valueEbE6__typeERKNSt7__cxx1112basic_stringIS2_St11char_traitsIS2_ESaIS2_EEESC_.exit
  call void @_ZdlPv(i8* %11) #2
  br label %_ZNSt7__cxx1112basic_stringIcSt11char_traitsIcESaIcEED2Ev.exit

_ZNSt7__cxx1112basic_stringIcSt11char_traitsIcESaIcEED2Ev.exit: ; preds = %_ZSteqIcEN9__gnu_cxx11__enable_ifIXsr9__is_charIT_EE7__valueEbE6__typeERKNSt7__cxx1112basic_stringIS2_St11char_traitsIS2_ESaIS2_EEESC_.exit, %if.then.i.i
  call void @llvm.lifetime.end.p0i8(i64 1, i8* nonnull %2) #2
  call void @llvm.lifetime.end.p0i8(i64 32, i8* nonnull %1) #2
  br i1 %10, label %if.then, label %for.inc

if.then:                                          ; preds = %_ZNSt7__cxx1112basic_stringIcSt11char_traitsIcESaIcEED2Ev.exit
  %12 = load i8**, i8*** %argv, align 8, !tbaa !62
  %add = add nuw i64 %indvars.iv, 1
  %13 = and i64 %add, 4294967295
  %arrayidx5 = getelementptr inbounds i8*, i8** %12, i64 %13
  %14 = load i8*, i8** %arrayidx5, align 8, !tbaa !33
  %call.i = call i64 @strtol(i8* nocapture nonnull %14, i8** null, i32 10) #2
  %conv.i = trunc i64 %call.i to i32
  %cmp7 = icmp slt i32 %conv.i, 1
  br i1 %cmp7, label %if.then8, label %cleanup

if.then8:                                         ; preds = %if.then
  %call3.i30 = invoke dereferenceable(272) %"class.std::basic_ostream"* @_ZSt16__ostream_insertIcSt11char_traitsIcEERSt13basic_ostreamIT_T0_ES6_PKS3_l(%"class.std::basic_ostream"* nonnull dereferenceable(272) @_ZSt4cout, i8* nonnull getelementptr inbounds ([8 x i8], [8 x i8]* @.str.20, i64 0, i64 0), i64 7)
          to label %call.i.noexc unwind label %lpad9

call.i.noexc:                                     ; preds = %if.then8
  %15 = load i8**, i8*** %argv, align 8, !tbaa !62
  %16 = load i8*, i8** %15, align 8, !tbaa !33
  %tobool.i = icmp eq i8* %16, null
  br i1 %tobool.i, label %if.then.i, label %if.else.i

if.then.i:                                        ; preds = %call.i.noexc
  %vtable.i = load i8*, i8** bitcast (%"class.std::basic_ostream"* @_ZSt4cout to i8**), align 8, !tbaa !14
  %vbase.offset.ptr.i = getelementptr i8, i8* %vtable.i, i64 -24
  %17 = bitcast i8* %vbase.offset.ptr.i to i64*
  %vbase.offset.i = load i64, i64* %17, align 8
  %add.ptr.i = getelementptr inbounds i8, i8* bitcast (%"class.std::basic_ostream"* @_ZSt4cout to i8*), i64 %vbase.offset.i
  %18 = bitcast i8* %add.ptr.i to %"class.std::basic_ios"*
  %_M_streambuf_state.i.i.i = getelementptr inbounds i8, i8* %add.ptr.i, i64 32
  %19 = bitcast i8* %_M_streambuf_state.i.i.i to i32*
  %20 = load i32, i32* %19, align 8, !tbaa !16
  %or.i.i.i = or i32 %20, 1
  invoke void @_ZNSt9basic_iosIcSt11char_traitsIcEE5clearESt12_Ios_Iostate(%"class.std::basic_ios"* %18, i32 %or.i.i.i)
          to label %call3.i.noexc unwind label %lpad9

if.else.i:                                        ; preds = %call.i.noexc
  %call.i.i31 = call i64 @strlen(i8* nonnull %16) #2
  %call3.i33 = invoke dereferenceable(272) %"class.std::basic_ostream"* @_ZSt16__ostream_insertIcSt11char_traitsIcEERSt13basic_ostreamIT_T0_ES6_PKS3_l(%"class.std::basic_ostream"* nonnull dereferenceable(272) @_ZSt4cout, i8* nonnull %16, i64 %call.i.i31)
          to label %call3.i.noexc unwind label %lpad9

call3.i.noexc:                                    ; preds = %if.then.i, %if.else.i
  %call3.i38 = invoke dereferenceable(272) %"class.std::basic_ostream"* @_ZSt16__ostream_insertIcSt11char_traitsIcEERSt13basic_ostreamIT_T0_ES6_PKS3_l(%"class.std::basic_ostream"* nonnull dereferenceable(272) @_ZSt4cout, i8* nonnull getelementptr inbounds ([2 x i8], [2 x i8]* @.str.21, i64 0, i64 0), i64 1)
          to label %call5.i.noexc unwind label %lpad9

call5.i.noexc:                                    ; preds = %call3.i.noexc
  %_M_p.i.i.i40 = getelementptr inbounds %struct.commandLine, %struct.commandLine* %this, i64 0, i32 2, i32 0, i32 0
  %21 = load i8*, i8** %_M_p.i.i.i40, align 8, !tbaa !32
  %_M_string_length.i.i41 = getelementptr inbounds %struct.commandLine, %struct.commandLine* %this, i64 0, i32 2, i32 1
  %22 = load i64, i64* %_M_string_length.i.i41, align 8, !tbaa !29
  %call2.i42 = invoke dereferenceable(272) %"class.std::basic_ostream"* @_ZSt16__ostream_insertIcSt11char_traitsIcEERSt13basic_ostreamIT_T0_ES6_PKS3_l(%"class.std::basic_ostream"* nonnull dereferenceable(272) @_ZSt4cout, i8* %21, i64 %22)
          to label %call7.i.noexc unwind label %lpad9

call7.i.noexc:                                    ; preds = %call5.i.noexc
  %call.i.i27 = invoke dereferenceable(272) %"class.std::basic_ostream"* @_ZSt4endlIcSt11char_traitsIcEERSt13basic_ostreamIT_T0_ES6_(%"class.std::basic_ostream"* nonnull dereferenceable(272) %call2.i42)
          to label %call.i.i.noexc unwind label %lpad9

call.i.i.noexc:                                   ; preds = %call7.i.noexc
  call void @abort() #22
  unreachable

lpad:                                             ; preds = %for.body
  %23 = landingpad { i8*, i32 }
          cleanup
  %24 = extractvalue { i8*, i32 } %23, 0
  %25 = extractvalue { i8*, i32 } %23, 1
  call void @llvm.lifetime.end.p0i8(i64 1, i8* nonnull %2) #2
  call void @llvm.lifetime.end.p0i8(i64 32, i8* nonnull %1) #2
  br label %ehcleanup

lpad9:                                            ; preds = %call5.i.noexc, %call3.i.noexc, %if.else.i, %if.then.i, %if.then8, %call7.i.noexc
  %26 = landingpad { i8*, i32 }
          cleanup
  %27 = extractvalue { i8*, i32 } %26, 0
  %28 = extractvalue { i8*, i32 } %26, 1
  br label %ehcleanup

for.inc:                                          ; preds = %_ZNSt7__cxx1112basic_stringIcSt11char_traitsIcESaIcEED2Ev.exit
  %indvars.iv.next = add nuw nsw i64 %indvars.iv, 1
  %29 = load i32, i32* %argc, align 8, !tbaa !60
  %sub = add nsw i32 %29, -1
  %30 = sext i32 %sub to i64
  %cmp = icmp slt i64 %indvars.iv.next, %30
  br i1 %cmp, label %for.body, label %cleanup

cleanup:                                          ; preds = %for.inc, %entry, %if.then
  %31 = phi i32 [ %conv.i, %if.then ], [ %defaultValue, %entry ], [ %defaultValue, %for.inc ]
  ret i32 %31

ehcleanup:                                        ; preds = %lpad9, %lpad
  %exn.slot.0 = phi i8* [ %27, %lpad9 ], [ %24, %lpad ]
  %ehselector.slot.0 = phi i32 [ %28, %lpad9 ], [ %25, %lpad ]
  %lpad.val = insertvalue { i8*, i32 } undef, i8* %exn.slot.0, 0
  %lpad.val14 = insertvalue { i8*, i32 } %lpad.val, i32 %ehselector.slot.0, 1
  resume { i8*, i32 } %lpad.val14
}

; Function Attrs: uwtable
define linkonce_odr void @_Z8timeSortIiSt4lessIiEEvPT_iT0_ibPc(i32* %A, i32 %n, i32 %rounds, i1 zeroext %permute, i8* %outFile) local_unnamed_addr #4 comdat personality i8* bitcast (i32 (...)* @__gxx_personality_v0 to i8*) {
entry:
  %0 = tail call i32 @__cilkrts_get_nworkers()
  %__cilkrts_wc8112 = shl i32 %0, 3
  %agg.tmp.i = alloca %"class.std::__cxx11::basic_string", align 8
  %now.i.i91 = alloca %struct.timeval, align 8
  %now.i.i = alloca %struct.timeval, align 8
  br i1 %permute, label %if.then, label %if.end

if.then:                                          ; preds = %entry
  tail call void @_Z8randPermIiEvPT_i(i32* %A, i32 %n)
  br label %if.end

if.end:                                           ; preds = %if.then, %entry
  %conv = sext i32 %n to i64
  %1 = tail call { i64, i1 } @llvm.umul.with.overflow.i64(i64 %conv, i64 4)
  %2 = extractvalue { i64, i1 } %1, 1
  %3 = extractvalue { i64, i1 } %1, 0
  %4 = select i1 %2, i64 -1, i64 %3
  %call = tail call i8* @_Znam(i64 %4) #23
  %5 = bitcast i8* %call to i32*
  %cmp104 = icmp sgt i32 %n, 0
  br i1 %cmp104, label %pfor.detach.lr.ph, label %sync.continue

pfor.detach.lr.ph:                                ; preds = %if.end
  %wide.trip.count108 = zext i32 %n to i64
  %6 = add nsw i64 %wide.trip.count108, -1
  %7 = zext i32 %__cilkrts_wc8112 to i64
  %8 = add nsw i64 %wide.trip.count108, -2
  %9 = add nsw i64 %8, %7
  %10 = udiv i64 %9, %7
  %11 = icmp ult i64 %10, 2048
  %12 = select i1 %11, i64 %10, i64 2048
  tail call fastcc void @_Z8timeSortIiSt4lessIiEEvPT_iT0_ibPc_pfor.detach.ls(i64 0, i64 %6, i64 %12, i32* %A, i32* nonnull %5)
  br label %sync.continue

sync.continue:                                    ; preds = %if.end, %pfor.detach.lr.ph
  tail call void @_Z10sampleSortIiSt4lessIiEiEvPT_T1_T0_(i32* nonnull %5, i32 %n)
  %cmp9102 = icmp sgt i32 %rounds, 0
  br i1 %cmp9102, label %for.body.lr.ph, label %for.cond.cleanup

for.body.lr.ph:                                   ; preds = %sync.continue
  %13 = bitcast %struct.timeval* %now.i.i to i8*
  %tv_sec.i.i = getelementptr inbounds %struct.timeval, %struct.timeval* %now.i.i, i64 0, i32 0
  %tv_usec.i.i = getelementptr inbounds %struct.timeval, %struct.timeval* %now.i.i, i64 0, i32 1
  %14 = bitcast %struct.timeval* %now.i.i91 to i8*
  %tv_sec.i.i93 = getelementptr inbounds %struct.timeval, %struct.timeval* %now.i.i91, i64 0, i32 0
  %tv_usec.i.i95 = getelementptr inbounds %struct.timeval, %struct.timeval* %now.i.i91, i64 0, i32 1
  %wide.trip.count = zext i32 %n to i64
  %15 = add nsw i64 %wide.trip.count, -1
  %16 = zext i32 %__cilkrts_wc8112 to i64
  %17 = add nsw i64 %wide.trip.count, -2
  %18 = add nsw i64 %17, %16
  br label %for.body

for.cond.cleanup:                                 ; preds = %invoke.cont39, %sync.continue
  %vtable.i = load i8*, i8** bitcast (%"class.std::basic_ostream"* @_ZSt4cout to i8**), align 8, !tbaa !14
  %vbase.offset.ptr.i = getelementptr i8, i8* %vtable.i, i64 -24
  %19 = bitcast i8* %vbase.offset.ptr.i to i64*
  %vbase.offset.i = load i64, i64* %19, align 8
  %add.ptr.i = getelementptr inbounds i8, i8* bitcast (%"class.std::basic_ostream"* @_ZSt4cout to i8*), i64 %vbase.offset.i
  %_M_ctype.i.i = getelementptr inbounds i8, i8* %add.ptr.i, i64 240
  %20 = bitcast i8* %_M_ctype.i.i to %"class.std::ctype"**
  %21 = load %"class.std::ctype"*, %"class.std::ctype"** %20, align 8, !tbaa !23
  %tobool.i.i.i = icmp eq %"class.std::ctype"* %21, null
  br i1 %tobool.i.i.i, label %if.then.i.i.i, label %_ZSt13__check_facetISt5ctypeIcEERKT_PS3_.exit.i.i

if.then.i.i.i:                                    ; preds = %for.cond.cleanup
  tail call void @_ZSt16__throw_bad_castv() #21
  unreachable

_ZSt13__check_facetISt5ctypeIcEERKT_PS3_.exit.i.i: ; preds = %for.cond.cleanup
  %_M_widen_ok.i.i.i = getelementptr inbounds %"class.std::ctype", %"class.std::ctype"* %21, i64 0, i32 8
  %22 = load i8, i8* %_M_widen_ok.i.i.i, align 8, !tbaa !25
  %tobool.i5.i.i = icmp eq i8 %22, 0
  br i1 %tobool.i5.i.i, label %if.end.i.i.i, label %if.then.i6.i.i

if.then.i6.i.i:                                   ; preds = %_ZSt13__check_facetISt5ctypeIcEERKT_PS3_.exit.i.i
  %arrayidx.i.i.i = getelementptr inbounds %"class.std::ctype", %"class.std::ctype"* %21, i64 0, i32 9, i64 10
  %23 = load i8, i8* %arrayidx.i.i.i, align 1, !tbaa !2
  br label %_ZNKSt9basic_iosIcSt11char_traitsIcEE5widenEc.exit.i

if.end.i.i.i:                                     ; preds = %_ZSt13__check_facetISt5ctypeIcEERKT_PS3_.exit.i.i
  tail call void @_ZNKSt5ctypeIcE13_M_widen_initEv(%"class.std::ctype"* nonnull %21)
  %24 = bitcast %"class.std::ctype"* %21 to i8 (%"class.std::ctype"*, i8)***
  %vtable.i.i.i = load i8 (%"class.std::ctype"*, i8)**, i8 (%"class.std::ctype"*, i8)*** %24, align 8, !tbaa !14
  %vfn.i.i.i = getelementptr inbounds i8 (%"class.std::ctype"*, i8)*, i8 (%"class.std::ctype"*, i8)** %vtable.i.i.i, i64 6
  %25 = load i8 (%"class.std::ctype"*, i8)*, i8 (%"class.std::ctype"*, i8)** %vfn.i.i.i, align 8
  %call.i.i.i88 = tail call signext i8 %25(%"class.std::ctype"* nonnull %21, i8 signext 10)
  br label %_ZNKSt9basic_iosIcSt11char_traitsIcEE5widenEc.exit.i

_ZNKSt9basic_iosIcSt11char_traitsIcEE5widenEc.exit.i: ; preds = %if.end.i.i.i, %if.then.i6.i.i
  %retval.0.i.i.i = phi i8 [ %23, %if.then.i6.i.i ], [ %call.i.i.i88, %if.end.i.i.i ]
  %call2.i89 = tail call dereferenceable(272) %"class.std::basic_ostream"* @_ZNSo3putEc(%"class.std::basic_ostream"* nonnull @_ZSt4cout, i8 signext %retval.0.i.i.i)
  %call.i.i90 = tail call dereferenceable(272) %"class.std::basic_ostream"* @_ZNSo5flushEv(%"class.std::basic_ostream"* nonnull %call2.i89)
  %cmp45 = icmp eq i8* %outFile, null
  br i1 %cmp45, label %delete.notnull, label %if.then46

for.body:                                         ; preds = %invoke.cont39, %for.body.lr.ph
  %i8.0103 = phi i32 [ 0, %for.body.lr.ph ], [ %inc42, %invoke.cont39 ]
  br i1 %cmp104, label %pfor.detach21.preheader, label %invoke.cont36

pfor.detach21.preheader:                          ; preds = %for.body
  %26 = udiv i64 %18, %16
  %27 = icmp ult i64 %26, 2048
  %28 = select i1 %27, i64 %26, i64 2048
  tail call fastcc void @_Z8timeSortIiSt4lessIiEEvPT_iT0_ibPc_pfor.detach21.ls(i64 0, i64 %15, i64 %28, i32* %A, i32* nonnull %5)
  br label %invoke.cont36

invoke.cont36:                                    ; preds = %for.body, %pfor.detach21.preheader
  store i8 1, i8* getelementptr inbounds (%struct.timer, %struct.timer* @_ZL3_tm, i64 0, i32 3), align 8, !tbaa !63
  call void @llvm.lifetime.start.p0i8(i64 16, i8* nonnull %13) #2
  %call.i.i = call i32 @gettimeofday(%struct.timeval* nonnull %now.i.i, %struct.timezone* nonnull getelementptr inbounds (%struct.timer, %struct.timer* @_ZL3_tm, i64 0, i32 5)) #2
  %29 = load i64, i64* %tv_sec.i.i, align 8, !tbaa !67
  %conv.i.i = sitofp i64 %29 to double
  %30 = load i64, i64* %tv_usec.i.i, align 8, !tbaa !69
  %conv2.i.i = sitofp i64 %30 to double
  %div.i.i = fdiv double %conv2.i.i, 1.000000e+06
  %add.i.i = fadd double %div.i.i, %conv.i.i
  call void @llvm.lifetime.end.p0i8(i64 16, i8* nonnull %13) #2
  store double %add.i.i, double* getelementptr inbounds (%struct.timer, %struct.timer* @_ZL3_tm, i64 0, i32 1), align 8, !tbaa !70
  tail call void @_Z10sampleSortIiSt4lessIiEiEvPT_T1_T0_(i32* nonnull %5, i32 %n)
  %31 = load i8, i8* getelementptr inbounds (%struct.timer, %struct.timer* @_ZL3_tm, i64 0, i32 3), align 8, !tbaa !63, !range !71
  %tobool.i = icmp eq i8 %31, 0
  br i1 %tobool.i, label %invoke.cont39, label %if.end.i

if.end.i:                                         ; preds = %invoke.cont36
  call void @llvm.lifetime.start.p0i8(i64 16, i8* nonnull %14) #2
  %call.i.i92 = call i32 @gettimeofday(%struct.timeval* nonnull %now.i.i91, %struct.timezone* nonnull getelementptr inbounds (%struct.timer, %struct.timer* @_ZL3_tm, i64 0, i32 5)) #2
  %32 = load i64, i64* %tv_sec.i.i93, align 8, !tbaa !67
  %conv.i.i94 = sitofp i64 %32 to double
  %33 = load i64, i64* %tv_usec.i.i95, align 8, !tbaa !69
  %conv2.i.i96 = sitofp i64 %33 to double
  %div.i.i97 = fdiv double %conv2.i.i96, 1.000000e+06
  %add.i.i98 = fadd double %div.i.i97, %conv.i.i94
  call void @llvm.lifetime.end.p0i8(i64 16, i8* nonnull %14) #2
  %34 = load double, double* getelementptr inbounds (%struct.timer, %struct.timer* @_ZL3_tm, i64 0, i32 1), align 8, !tbaa !70
  %sub.i = fsub double %add.i.i98, %34
  %35 = load double, double* getelementptr inbounds (%struct.timer, %struct.timer* @_ZL3_tm, i64 0, i32 0), align 8, !tbaa !72
  %add.i = fadd double %35, %sub.i
  store double %add.i, double* getelementptr inbounds (%struct.timer, %struct.timer* @_ZL3_tm, i64 0, i32 0), align 8, !tbaa !72
  store double %add.i.i98, double* getelementptr inbounds (%struct.timer, %struct.timer* @_ZL3_tm, i64 0, i32 1), align 8, !tbaa !70
  br label %invoke.cont39

invoke.cont39:                                    ; preds = %if.end.i, %invoke.cont36
  %retval.0.i = phi double [ %sub.i, %if.end.i ], [ 0.000000e+00, %invoke.cont36 ]
  tail call void @_ZN5timer7reportTEd(%struct.timer* nonnull @_ZL3_tm, double %retval.0.i)
  %inc42 = add nuw nsw i32 %i8.0103, 1
  %exitcond111 = icmp eq i32 %inc42, %rounds
  br i1 %exitcond111, label %for.cond.cleanup, label %for.body

if.then46:                                        ; preds = %_ZNKSt9basic_iosIcSt11char_traitsIcEE5widenEc.exit.i
  %36 = bitcast %"class.std::__cxx11::basic_string"* %agg.tmp.i to i8*
  call void @llvm.lifetime.start.p0i8(i64 32, i8* nonnull %36)
  %37 = getelementptr inbounds %"class.std::__cxx11::basic_string", %"class.std::__cxx11::basic_string"* %agg.tmp.i, i64 0, i32 2
  %38 = bitcast %"class.std::__cxx11::basic_string"* %agg.tmp.i to %union.anon.1**
  store %union.anon.1* %37, %union.anon.1** %38, align 8, !tbaa !27, !alias.scope !73
  %39 = bitcast %union.anon.1* %37 to i8*
  call void @llvm.memcpy.p0i8.p0i8.i64(i8* nonnull %39, i8* nonnull getelementptr inbounds ([12 x i8], [12 x i8]* @.str.5, i64 0, i64 0), i64 11, i32 1, i1 false) #2
  %_M_string_length.i.i.i.i.i.i.i.i = getelementptr inbounds %"class.std::__cxx11::basic_string", %"class.std::__cxx11::basic_string"* %agg.tmp.i, i64 0, i32 1
  store i64 11, i64* %_M_string_length.i.i.i.i.i.i.i.i, align 8, !tbaa !29, !alias.scope !73
  %40 = getelementptr inbounds %"class.std::__cxx11::basic_string", %"class.std::__cxx11::basic_string"* %agg.tmp.i, i64 0, i32 2, i32 1, i64 3
  store i8 0, i8* %40, align 1, !tbaa !2, !alias.scope !73
  %call4.i = invoke i32 @_ZN7benchIO16writeArrayToFileIiEEiNSt7__cxx1112basic_stringIcSt11char_traitsIcESaIcEEEPT_lPc(%"class.std::__cxx11::basic_string"* nonnull %agg.tmp.i, i32* nonnull %5, i64 %conv, i8* nonnull %outFile)
          to label %invoke.cont3.i unwind label %lpad2.i

invoke.cont3.i:                                   ; preds = %if.then46
  %_M_p.i.i.i.i10.i = getelementptr inbounds %"class.std::__cxx11::basic_string", %"class.std::__cxx11::basic_string"* %agg.tmp.i, i64 0, i32 0, i32 0
  %41 = load i8*, i8** %_M_p.i.i.i.i10.i, align 8, !tbaa !32
  %cmp.i.i.i12.i = icmp eq i8* %41, %39
  br i1 %cmp.i.i.i12.i, label %_ZN7benchIO19writeSequenceToFileIiEEiPT_lPc.exit, label %if.then.i.i13.i

if.then.i.i13.i:                                  ; preds = %invoke.cont3.i
  call void @_ZdlPv(i8* %41) #2
  br label %_ZN7benchIO19writeSequenceToFileIiEEiPT_lPc.exit

lpad2.i:                                          ; preds = %if.then46
  %42 = landingpad { i8*, i32 }
          cleanup
  %_M_p.i.i.i.i.i = getelementptr inbounds %"class.std::__cxx11::basic_string", %"class.std::__cxx11::basic_string"* %agg.tmp.i, i64 0, i32 0, i32 0
  %43 = load i8*, i8** %_M_p.i.i.i.i.i, align 8, !tbaa !32
  %cmp.i.i.i.i = icmp eq i8* %43, %39
  br i1 %cmp.i.i.i.i, label %eh.resume, label %if.then.i.i.i99

if.then.i.i.i99:                                  ; preds = %lpad2.i
  call void @_ZdlPv(i8* %43) #2
  br label %eh.resume

_ZN7benchIO19writeSequenceToFileIiEEiPT_lPc.exit: ; preds = %invoke.cont3.i, %if.then.i.i13.i
  call void @llvm.lifetime.end.p0i8(i64 32, i8* nonnull %36)
  br label %delete.notnull

delete.notnull:                                   ; preds = %_ZN7benchIO19writeSequenceToFileIiEEiPT_lPc.exit, %_ZNKSt9basic_iosIcSt11char_traitsIcEE5widenEc.exit.i
  call void @_ZdaPv(i8* nonnull %call) #24
  ret void

eh.resume:                                        ; preds = %if.then.i.i.i99, %lpad2.i
  resume { i8*, i32 } %42
}

; Function Attrs: uwtable
define linkonce_odr void @_Z8timeSortISt4pairIiiE8pairLessEvPT_iT0_ibPc(%"struct.std::pair"* %A, i32 %n, i32 %rounds, i1 zeroext %permute, i8* %outFile) local_unnamed_addr #4 comdat personality i8* bitcast (i32 (...)* @__gxx_personality_v0 to i8*) {
entry:
  %0 = tail call i32 @__cilkrts_get_nworkers()
  %__cilkrts_wc8149 = shl i32 %0, 3
  %now.i.i131 = alloca %struct.timeval, align 8
  %now.i.i = alloca %struct.timeval, align 8
  %agg.tmp1.i = alloca %"class.std::__cxx11::basic_string", align 8
  br i1 %permute, label %if.then, label %if.end

if.then:                                          ; preds = %entry
  call void @_Z8randPermISt4pairIiiEEvPT_i(%"struct.std::pair"* %A, i32 %n)
  br label %if.end

if.end:                                           ; preds = %if.then, %entry
  %conv = sext i32 %n to i64
  %1 = tail call { i64, i1 } @llvm.umul.with.overflow.i64(i64 %conv, i64 8)
  %2 = extractvalue { i64, i1 } %1, 1
  %3 = extractvalue { i64, i1 } %1, 0
  %4 = select i1 %2, i64 -1, i64 %3
  %call = call i8* @_Znam(i64 %4) #23
  %5 = bitcast i8* %call to %"struct.std::pair"*
  %isempty = icmp eq i32 %n, 0
  br i1 %isempty, label %sync.continue, label %arrayctor.cont

arrayctor.cont:                                   ; preds = %if.end
  %6 = shl nsw i64 %conv, 3
  tail call void @llvm.memset.p0i8.i64(i8* nonnull %call, i8 0, i64 %6, i32 4, i1 false)
  %cmp143 = icmp sgt i32 %n, 0
  br i1 %cmp143, label %pfor.detach.preheader, label %sync.continue

pfor.detach.preheader:                            ; preds = %arrayctor.cont
  %7 = add nsw i64 %conv, -1
  %8 = zext i32 %__cilkrts_wc8149 to i64
  %9 = add nsw i64 %conv, -2
  %10 = add nsw i64 %9, %8
  %11 = udiv i64 %10, %8
  %12 = icmp ult i64 %11, 2048
  %13 = select i1 %12, i64 %11, i64 2048
  call fastcc void @_Z8timeSortISt4pairIiiE8pairLessEvPT_iT0_ibPc_pfor.detach.ls(i64 0, i64 %7, i64 %13, %"struct.std::pair"* %A, %"struct.std::pair"* nonnull %5)
  br label %sync.continue

sync.continue:                                    ; preds = %pfor.detach.preheader, %arrayctor.cont, %if.end
  %cmp143148 = phi i1 [ false, %arrayctor.cont ], [ false, %if.end ], [ true, %pfor.detach.preheader ]
  call void @_Z10sampleSortISt4pairIiiE8pairLessiEvPT_T1_T0_(%"struct.std::pair"* nonnull %5, i32 %n)
  %cmp19141 = icmp sgt i32 %rounds, 0
  br i1 %cmp19141, label %for.body.lr.ph, label %for.cond.cleanup

for.body.lr.ph:                                   ; preds = %sync.continue
  %14 = bitcast %struct.timeval* %now.i.i to i8*
  %tv_sec.i.i = getelementptr inbounds %struct.timeval, %struct.timeval* %now.i.i, i64 0, i32 0
  %tv_usec.i.i = getelementptr inbounds %struct.timeval, %struct.timeval* %now.i.i, i64 0, i32 1
  %15 = bitcast %struct.timeval* %now.i.i131 to i8*
  %tv_sec.i.i133 = getelementptr inbounds %struct.timeval, %struct.timeval* %now.i.i131, i64 0, i32 0
  %tv_usec.i.i135 = getelementptr inbounds %struct.timeval, %struct.timeval* %now.i.i131, i64 0, i32 1
  %16 = icmp sgt i64 %conv, 1
  %smax = select i1 %16, i64 %conv, i64 1
  %17 = add nsw i64 %smax, -1
  %18 = zext i32 %__cilkrts_wc8149 to i64
  %19 = add nsw i64 %smax, -2
  %20 = add nsw i64 %19, %18
  br label %for.body

for.cond.cleanup:                                 ; preds = %invoke.cont62, %sync.continue
  %vtable.i = load i8*, i8** bitcast (%"class.std::basic_ostream"* @_ZSt4cout to i8**), align 8, !tbaa !14
  %vbase.offset.ptr.i = getelementptr i8, i8* %vtable.i, i64 -24
  %21 = bitcast i8* %vbase.offset.ptr.i to i64*
  %vbase.offset.i = load i64, i64* %21, align 8
  %add.ptr.i = getelementptr inbounds i8, i8* bitcast (%"class.std::basic_ostream"* @_ZSt4cout to i8*), i64 %vbase.offset.i
  %_M_ctype.i.i = getelementptr inbounds i8, i8* %add.ptr.i, i64 240
  %22 = bitcast i8* %_M_ctype.i.i to %"class.std::ctype"**
  %23 = load %"class.std::ctype"*, %"class.std::ctype"** %22, align 8, !tbaa !23
  %tobool.i.i.i = icmp eq %"class.std::ctype"* %23, null
  br i1 %tobool.i.i.i, label %if.then.i.i.i122, label %_ZSt13__check_facetISt5ctypeIcEERKT_PS3_.exit.i.i

if.then.i.i.i122:                                 ; preds = %for.cond.cleanup
  call void @_ZSt16__throw_bad_castv() #21
  unreachable

_ZSt13__check_facetISt5ctypeIcEERKT_PS3_.exit.i.i: ; preds = %for.cond.cleanup
  %_M_widen_ok.i.i.i = getelementptr inbounds %"class.std::ctype", %"class.std::ctype"* %23, i64 0, i32 8
  %24 = load i8, i8* %_M_widen_ok.i.i.i, align 8, !tbaa !25
  %tobool.i5.i.i = icmp eq i8 %24, 0
  br i1 %tobool.i5.i.i, label %if.end.i.i.i, label %if.then.i6.i.i

if.then.i6.i.i:                                   ; preds = %_ZSt13__check_facetISt5ctypeIcEERKT_PS3_.exit.i.i
  %arrayidx.i.i.i = getelementptr inbounds %"class.std::ctype", %"class.std::ctype"* %23, i64 0, i32 9, i64 10
  %25 = load i8, i8* %arrayidx.i.i.i, align 1, !tbaa !2
  br label %_ZNKSt9basic_iosIcSt11char_traitsIcEE5widenEc.exit.i

if.end.i.i.i:                                     ; preds = %_ZSt13__check_facetISt5ctypeIcEERKT_PS3_.exit.i.i
  call void @_ZNKSt5ctypeIcE13_M_widen_initEv(%"class.std::ctype"* nonnull %23)
  %26 = bitcast %"class.std::ctype"* %23 to i8 (%"class.std::ctype"*, i8)***
  %vtable.i.i.i = load i8 (%"class.std::ctype"*, i8)**, i8 (%"class.std::ctype"*, i8)*** %26, align 8, !tbaa !14
  %vfn.i.i.i = getelementptr inbounds i8 (%"class.std::ctype"*, i8)*, i8 (%"class.std::ctype"*, i8)** %vtable.i.i.i, i64 6
  %27 = load i8 (%"class.std::ctype"*, i8)*, i8 (%"class.std::ctype"*, i8)** %vfn.i.i.i, align 8
  %call.i.i.i124 = call signext i8 %27(%"class.std::ctype"* nonnull %23, i8 signext 10)
  br label %_ZNKSt9basic_iosIcSt11char_traitsIcEE5widenEc.exit.i

_ZNKSt9basic_iosIcSt11char_traitsIcEE5widenEc.exit.i: ; preds = %if.end.i.i.i, %if.then.i6.i.i
  %retval.0.i.i.i = phi i8 [ %25, %if.then.i6.i.i ], [ %call.i.i.i124, %if.end.i.i.i ]
  %call2.i125 = call dereferenceable(272) %"class.std::basic_ostream"* @_ZNSo3putEc(%"class.std::basic_ostream"* nonnull @_ZSt4cout, i8 signext %retval.0.i.i.i)
  %call.i.i126 = call dereferenceable(272) %"class.std::basic_ostream"* @_ZNSo5flushEv(%"class.std::basic_ostream"* nonnull %call2.i125)
  %cmp68 = icmp eq i8* %outFile, null
  br i1 %cmp68, label %delete.notnull, label %if.then69

for.body:                                         ; preds = %for.body.lr.ph, %invoke.cont62
  %i18.0142 = phi i32 [ 0, %for.body.lr.ph ], [ %inc65, %invoke.cont62 ]
  br i1 %cmp143148, label %pfor.detach31.preheader, label %invoke.cont59

pfor.detach31.preheader:                          ; preds = %for.body
  %28 = udiv i64 %20, %18
  %29 = icmp ult i64 %28, 2048
  %30 = select i1 %29, i64 %28, i64 2048
  call fastcc void @_Z8timeSortISt4pairIiiE8pairLessEvPT_iT0_ibPc_pfor.detach31.ls(i64 0, i64 %17, i64 %30, %"struct.std::pair"* %A, %"struct.std::pair"* nonnull %5)
  br label %invoke.cont59

invoke.cont59:                                    ; preds = %pfor.detach31.preheader, %for.body
  store i8 1, i8* getelementptr inbounds (%struct.timer, %struct.timer* @_ZL3_tm, i64 0, i32 3), align 8, !tbaa !63
  call void @llvm.lifetime.start.p0i8(i64 16, i8* nonnull %14) #2
  %call.i.i = call i32 @gettimeofday(%struct.timeval* nonnull %now.i.i, %struct.timezone* nonnull getelementptr inbounds (%struct.timer, %struct.timer* @_ZL3_tm, i64 0, i32 5)) #2
  %31 = load i64, i64* %tv_sec.i.i, align 8, !tbaa !67
  %conv.i.i = sitofp i64 %31 to double
  %32 = load i64, i64* %tv_usec.i.i, align 8, !tbaa !69
  %conv2.i.i = sitofp i64 %32 to double
  %div.i.i = fdiv double %conv2.i.i, 1.000000e+06
  %add.i.i = fadd double %div.i.i, %conv.i.i
  call void @llvm.lifetime.end.p0i8(i64 16, i8* nonnull %14) #2
  store double %add.i.i, double* getelementptr inbounds (%struct.timer, %struct.timer* @_ZL3_tm, i64 0, i32 1), align 8, !tbaa !70
  call void @_Z10sampleSortISt4pairIiiE8pairLessiEvPT_T1_T0_(%"struct.std::pair"* nonnull %5, i32 %n)
  %33 = load i8, i8* getelementptr inbounds (%struct.timer, %struct.timer* @_ZL3_tm, i64 0, i32 3), align 8, !tbaa !63, !range !71
  %tobool.i = icmp eq i8 %33, 0
  br i1 %tobool.i, label %invoke.cont62, label %if.end.i

if.end.i:                                         ; preds = %invoke.cont59
  call void @llvm.lifetime.start.p0i8(i64 16, i8* nonnull %15) #2
  %call.i.i132 = call i32 @gettimeofday(%struct.timeval* nonnull %now.i.i131, %struct.timezone* nonnull getelementptr inbounds (%struct.timer, %struct.timer* @_ZL3_tm, i64 0, i32 5)) #2
  %34 = load i64, i64* %tv_sec.i.i133, align 8, !tbaa !67
  %conv.i.i134 = sitofp i64 %34 to double
  %35 = load i64, i64* %tv_usec.i.i135, align 8, !tbaa !69
  %conv2.i.i136 = sitofp i64 %35 to double
  %div.i.i137 = fdiv double %conv2.i.i136, 1.000000e+06
  %add.i.i138 = fadd double %div.i.i137, %conv.i.i134
  call void @llvm.lifetime.end.p0i8(i64 16, i8* nonnull %15) #2
  %36 = load double, double* getelementptr inbounds (%struct.timer, %struct.timer* @_ZL3_tm, i64 0, i32 1), align 8, !tbaa !70
  %sub.i = fsub double %add.i.i138, %36
  %37 = load double, double* getelementptr inbounds (%struct.timer, %struct.timer* @_ZL3_tm, i64 0, i32 0), align 8, !tbaa !72
  %add.i = fadd double %37, %sub.i
  store double %add.i, double* getelementptr inbounds (%struct.timer, %struct.timer* @_ZL3_tm, i64 0, i32 0), align 8, !tbaa !72
  store double %add.i.i138, double* getelementptr inbounds (%struct.timer, %struct.timer* @_ZL3_tm, i64 0, i32 1), align 8, !tbaa !70
  br label %invoke.cont62

invoke.cont62:                                    ; preds = %if.end.i, %invoke.cont59
  %retval.0.i = phi double [ %sub.i, %if.end.i ], [ 0.000000e+00, %invoke.cont59 ]
  call void @_ZN5timer7reportTEd(%struct.timer* nonnull @_ZL3_tm, double %retval.0.i)
  %inc65 = add nuw nsw i32 %i18.0142, 1
  %cmp19 = icmp slt i32 %inc65, %rounds
  br i1 %cmp19, label %for.body, label %for.cond.cleanup

if.then69:                                        ; preds = %_ZNKSt9basic_iosIcSt11char_traitsIcEE5widenEc.exit.i
  %38 = bitcast %"class.std::__cxx11::basic_string"* %agg.tmp1.i to i8*
  call void @llvm.lifetime.start.p0i8(i64 32, i8* nonnull %38)
  %39 = getelementptr inbounds %"class.std::__cxx11::basic_string", %"class.std::__cxx11::basic_string"* %agg.tmp1.i, i64 0, i32 2
  %40 = bitcast %"class.std::__cxx11::basic_string"* %agg.tmp1.i to %union.anon.1**
  store %union.anon.1* %39, %union.anon.1** %40, align 8, !tbaa !27, !alias.scope !76
  %41 = bitcast %union.anon.1* %39 to i8*
  call void @llvm.memcpy.p0i8.p0i8.i64(i8* nonnull %41, i8* nonnull getelementptr inbounds ([16 x i8], [16 x i8]* @.str.8, i64 0, i64 0), i64 15, i32 1, i1 false) #2
  %_M_string_length.i.i.i.i.i.i82.i.i = getelementptr inbounds %"class.std::__cxx11::basic_string", %"class.std::__cxx11::basic_string"* %agg.tmp1.i, i64 0, i32 1
  store i64 15, i64* %_M_string_length.i.i.i.i.i.i82.i.i, align 8, !tbaa !29, !alias.scope !76
  %42 = getelementptr inbounds %"class.std::__cxx11::basic_string", %"class.std::__cxx11::basic_string"* %agg.tmp1.i, i64 0, i32 2, i32 1, i64 7
  store i8 0, i8* %42, align 1, !tbaa !2, !alias.scope !76
  %call5.i = invoke i32 @_ZN7benchIO16writeArrayToFileISt4pairIiiEEEiNSt7__cxx1112basic_stringIcSt11char_traitsIcESaIcEEEPT_lPc(%"class.std::__cxx11::basic_string"* nonnull %agg.tmp1.i, %"struct.std::pair"* nonnull %5, i64 %conv, i8* nonnull %outFile)
          to label %invoke.cont4.i unwind label %lpad3.i

invoke.cont4.i:                                   ; preds = %if.then69
  %_M_p.i.i.i.i11.i = getelementptr inbounds %"class.std::__cxx11::basic_string", %"class.std::__cxx11::basic_string"* %agg.tmp1.i, i64 0, i32 0, i32 0
  %43 = load i8*, i8** %_M_p.i.i.i.i11.i, align 8, !tbaa !32
  %cmp.i.i.i13.i = icmp eq i8* %43, %41
  br i1 %cmp.i.i.i13.i, label %_ZN7benchIO19writeSequenceToFileISt4pairIiiEEEiPT_lPc.exit, label %if.then.i.i14.i

if.then.i.i14.i:                                  ; preds = %invoke.cont4.i
  call void @_ZdlPv(i8* %43) #2
  br label %_ZN7benchIO19writeSequenceToFileISt4pairIiiEEEiPT_lPc.exit

lpad3.i:                                          ; preds = %if.then69
  %44 = landingpad { i8*, i32 }
          cleanup
  %_M_p.i.i.i.i.i = getelementptr inbounds %"class.std::__cxx11::basic_string", %"class.std::__cxx11::basic_string"* %agg.tmp1.i, i64 0, i32 0, i32 0
  %45 = load i8*, i8** %_M_p.i.i.i.i.i, align 8, !tbaa !32
  %cmp.i.i.i.i = icmp eq i8* %45, %41
  br i1 %cmp.i.i.i.i, label %eh.resume, label %if.then.i.i.i

if.then.i.i.i:                                    ; preds = %lpad3.i
  call void @_ZdlPv(i8* %45) #2
  br label %eh.resume

_ZN7benchIO19writeSequenceToFileISt4pairIiiEEEiPT_lPc.exit: ; preds = %invoke.cont4.i, %if.then.i.i14.i
  call void @llvm.lifetime.end.p0i8(i64 32, i8* nonnull %38)
  br label %delete.notnull

delete.notnull:                                   ; preds = %_ZN7benchIO19writeSequenceToFileISt4pairIiiEEEiPT_lPc.exit, %_ZNKSt9basic_iosIcSt11char_traitsIcEE5widenEc.exit.i
  call void @_ZdaPv(i8* nonnull %call) #24
  ret void

eh.resume:                                        ; preds = %if.then.i.i.i, %lpad3.i
  resume { i8*, i32 } %44
}

; Function Attrs: uwtable
define linkonce_odr void @_Z8timeSortIdSt4lessIdEEvPT_iT0_ibPc(double* %A, i32 %n, i32 %rounds, i1 zeroext %permute, i8* %outFile) local_unnamed_addr #4 comdat personality i8* bitcast (i32 (...)* @__gxx_personality_v0 to i8*) {
entry:
  %0 = tail call i32 @__cilkrts_get_nworkers()
  %__cilkrts_wc8112 = shl i32 %0, 3
  %agg.tmp.i = alloca %"class.std::__cxx11::basic_string", align 8
  %now.i.i91 = alloca %struct.timeval, align 8
  %now.i.i = alloca %struct.timeval, align 8
  br i1 %permute, label %if.then, label %if.end

if.then:                                          ; preds = %entry
  tail call void @_Z8randPermIdEvPT_i(double* %A, i32 %n)
  br label %if.end

if.end:                                           ; preds = %if.then, %entry
  %conv = sext i32 %n to i64
  %1 = tail call { i64, i1 } @llvm.umul.with.overflow.i64(i64 %conv, i64 8)
  %2 = extractvalue { i64, i1 } %1, 1
  %3 = extractvalue { i64, i1 } %1, 0
  %4 = select i1 %2, i64 -1, i64 %3
  %call = tail call i8* @_Znam(i64 %4) #23
  %5 = bitcast i8* %call to double*
  %cmp104 = icmp sgt i32 %n, 0
  br i1 %cmp104, label %pfor.detach.lr.ph, label %sync.continue

pfor.detach.lr.ph:                                ; preds = %if.end
  %wide.trip.count108 = zext i32 %n to i64
  %6 = add nsw i64 %wide.trip.count108, -1
  %7 = zext i32 %__cilkrts_wc8112 to i64
  %8 = add nsw i64 %wide.trip.count108, -2
  %9 = add nsw i64 %8, %7
  %10 = udiv i64 %9, %7
  %11 = icmp ult i64 %10, 2048
  %12 = select i1 %11, i64 %10, i64 2048
  tail call fastcc void @_Z8timeSortIdSt4lessIdEEvPT_iT0_ibPc_pfor.detach.ls(i64 0, i64 %6, i64 %12, double* %A, double* nonnull %5)
  br label %sync.continue

sync.continue:                                    ; preds = %if.end, %pfor.detach.lr.ph
  tail call void @_Z10sampleSortIdSt4lessIdEiEvPT_T1_T0_(double* nonnull %5, i32 %n)
  %cmp9102 = icmp sgt i32 %rounds, 0
  br i1 %cmp9102, label %for.body.lr.ph, label %for.cond.cleanup

for.body.lr.ph:                                   ; preds = %sync.continue
  %13 = bitcast %struct.timeval* %now.i.i to i8*
  %tv_sec.i.i = getelementptr inbounds %struct.timeval, %struct.timeval* %now.i.i, i64 0, i32 0
  %tv_usec.i.i = getelementptr inbounds %struct.timeval, %struct.timeval* %now.i.i, i64 0, i32 1
  %14 = bitcast %struct.timeval* %now.i.i91 to i8*
  %tv_sec.i.i93 = getelementptr inbounds %struct.timeval, %struct.timeval* %now.i.i91, i64 0, i32 0
  %tv_usec.i.i95 = getelementptr inbounds %struct.timeval, %struct.timeval* %now.i.i91, i64 0, i32 1
  %wide.trip.count = zext i32 %n to i64
  %15 = add nsw i64 %wide.trip.count, -1
  %16 = zext i32 %__cilkrts_wc8112 to i64
  %17 = add nsw i64 %wide.trip.count, -2
  %18 = add nsw i64 %17, %16
  br label %for.body

for.cond.cleanup:                                 ; preds = %invoke.cont39, %sync.continue
  %vtable.i = load i8*, i8** bitcast (%"class.std::basic_ostream"* @_ZSt4cout to i8**), align 8, !tbaa !14
  %vbase.offset.ptr.i = getelementptr i8, i8* %vtable.i, i64 -24
  %19 = bitcast i8* %vbase.offset.ptr.i to i64*
  %vbase.offset.i = load i64, i64* %19, align 8
  %add.ptr.i = getelementptr inbounds i8, i8* bitcast (%"class.std::basic_ostream"* @_ZSt4cout to i8*), i64 %vbase.offset.i
  %_M_ctype.i.i = getelementptr inbounds i8, i8* %add.ptr.i, i64 240
  %20 = bitcast i8* %_M_ctype.i.i to %"class.std::ctype"**
  %21 = load %"class.std::ctype"*, %"class.std::ctype"** %20, align 8, !tbaa !23
  %tobool.i.i.i = icmp eq %"class.std::ctype"* %21, null
  br i1 %tobool.i.i.i, label %if.then.i.i.i, label %_ZSt13__check_facetISt5ctypeIcEERKT_PS3_.exit.i.i

if.then.i.i.i:                                    ; preds = %for.cond.cleanup
  tail call void @_ZSt16__throw_bad_castv() #21
  unreachable

_ZSt13__check_facetISt5ctypeIcEERKT_PS3_.exit.i.i: ; preds = %for.cond.cleanup
  %_M_widen_ok.i.i.i = getelementptr inbounds %"class.std::ctype", %"class.std::ctype"* %21, i64 0, i32 8
  %22 = load i8, i8* %_M_widen_ok.i.i.i, align 8, !tbaa !25
  %tobool.i5.i.i = icmp eq i8 %22, 0
  br i1 %tobool.i5.i.i, label %if.end.i.i.i, label %if.then.i6.i.i

if.then.i6.i.i:                                   ; preds = %_ZSt13__check_facetISt5ctypeIcEERKT_PS3_.exit.i.i
  %arrayidx.i.i.i = getelementptr inbounds %"class.std::ctype", %"class.std::ctype"* %21, i64 0, i32 9, i64 10
  %23 = load i8, i8* %arrayidx.i.i.i, align 1, !tbaa !2
  br label %_ZNKSt9basic_iosIcSt11char_traitsIcEE5widenEc.exit.i

if.end.i.i.i:                                     ; preds = %_ZSt13__check_facetISt5ctypeIcEERKT_PS3_.exit.i.i
  tail call void @_ZNKSt5ctypeIcE13_M_widen_initEv(%"class.std::ctype"* nonnull %21)
  %24 = bitcast %"class.std::ctype"* %21 to i8 (%"class.std::ctype"*, i8)***
  %vtable.i.i.i = load i8 (%"class.std::ctype"*, i8)**, i8 (%"class.std::ctype"*, i8)*** %24, align 8, !tbaa !14
  %vfn.i.i.i = getelementptr inbounds i8 (%"class.std::ctype"*, i8)*, i8 (%"class.std::ctype"*, i8)** %vtable.i.i.i, i64 6
  %25 = load i8 (%"class.std::ctype"*, i8)*, i8 (%"class.std::ctype"*, i8)** %vfn.i.i.i, align 8
  %call.i.i.i88 = tail call signext i8 %25(%"class.std::ctype"* nonnull %21, i8 signext 10)
  br label %_ZNKSt9basic_iosIcSt11char_traitsIcEE5widenEc.exit.i

_ZNKSt9basic_iosIcSt11char_traitsIcEE5widenEc.exit.i: ; preds = %if.end.i.i.i, %if.then.i6.i.i
  %retval.0.i.i.i = phi i8 [ %23, %if.then.i6.i.i ], [ %call.i.i.i88, %if.end.i.i.i ]
  %call2.i89 = tail call dereferenceable(272) %"class.std::basic_ostream"* @_ZNSo3putEc(%"class.std::basic_ostream"* nonnull @_ZSt4cout, i8 signext %retval.0.i.i.i)
  %call.i.i90 = tail call dereferenceable(272) %"class.std::basic_ostream"* @_ZNSo5flushEv(%"class.std::basic_ostream"* nonnull %call2.i89)
  %cmp45 = icmp eq i8* %outFile, null
  br i1 %cmp45, label %delete.notnull, label %if.then46

for.body:                                         ; preds = %invoke.cont39, %for.body.lr.ph
  %i8.0103 = phi i32 [ 0, %for.body.lr.ph ], [ %inc42, %invoke.cont39 ]
  br i1 %cmp104, label %pfor.detach21.preheader, label %invoke.cont36

pfor.detach21.preheader:                          ; preds = %for.body
  %26 = udiv i64 %18, %16
  %27 = icmp ult i64 %26, 2048
  %28 = select i1 %27, i64 %26, i64 2048
  tail call fastcc void @_Z8timeSortIdSt4lessIdEEvPT_iT0_ibPc_pfor.detach21.ls(i64 0, i64 %15, i64 %28, double* %A, double* nonnull %5)
  br label %invoke.cont36

invoke.cont36:                                    ; preds = %for.body, %pfor.detach21.preheader
  store i8 1, i8* getelementptr inbounds (%struct.timer, %struct.timer* @_ZL3_tm, i64 0, i32 3), align 8, !tbaa !63
  call void @llvm.lifetime.start.p0i8(i64 16, i8* nonnull %13) #2
  %call.i.i = call i32 @gettimeofday(%struct.timeval* nonnull %now.i.i, %struct.timezone* nonnull getelementptr inbounds (%struct.timer, %struct.timer* @_ZL3_tm, i64 0, i32 5)) #2
  %29 = load i64, i64* %tv_sec.i.i, align 8, !tbaa !67
  %conv.i.i = sitofp i64 %29 to double
  %30 = load i64, i64* %tv_usec.i.i, align 8, !tbaa !69
  %conv2.i.i = sitofp i64 %30 to double
  %div.i.i = fdiv double %conv2.i.i, 1.000000e+06
  %add.i.i = fadd double %div.i.i, %conv.i.i
  call void @llvm.lifetime.end.p0i8(i64 16, i8* nonnull %13) #2
  store double %add.i.i, double* getelementptr inbounds (%struct.timer, %struct.timer* @_ZL3_tm, i64 0, i32 1), align 8, !tbaa !70
  tail call void @_Z10sampleSortIdSt4lessIdEiEvPT_T1_T0_(double* nonnull %5, i32 %n)
  %31 = load i8, i8* getelementptr inbounds (%struct.timer, %struct.timer* @_ZL3_tm, i64 0, i32 3), align 8, !tbaa !63, !range !71
  %tobool.i = icmp eq i8 %31, 0
  br i1 %tobool.i, label %invoke.cont39, label %if.end.i

if.end.i:                                         ; preds = %invoke.cont36
  call void @llvm.lifetime.start.p0i8(i64 16, i8* nonnull %14) #2
  %call.i.i92 = call i32 @gettimeofday(%struct.timeval* nonnull %now.i.i91, %struct.timezone* nonnull getelementptr inbounds (%struct.timer, %struct.timer* @_ZL3_tm, i64 0, i32 5)) #2
  %32 = load i64, i64* %tv_sec.i.i93, align 8, !tbaa !67
  %conv.i.i94 = sitofp i64 %32 to double
  %33 = load i64, i64* %tv_usec.i.i95, align 8, !tbaa !69
  %conv2.i.i96 = sitofp i64 %33 to double
  %div.i.i97 = fdiv double %conv2.i.i96, 1.000000e+06
  %add.i.i98 = fadd double %div.i.i97, %conv.i.i94
  call void @llvm.lifetime.end.p0i8(i64 16, i8* nonnull %14) #2
  %34 = load double, double* getelementptr inbounds (%struct.timer, %struct.timer* @_ZL3_tm, i64 0, i32 1), align 8, !tbaa !70
  %sub.i = fsub double %add.i.i98, %34
  %35 = load double, double* getelementptr inbounds (%struct.timer, %struct.timer* @_ZL3_tm, i64 0, i32 0), align 8, !tbaa !72
  %add.i = fadd double %35, %sub.i
  store double %add.i, double* getelementptr inbounds (%struct.timer, %struct.timer* @_ZL3_tm, i64 0, i32 0), align 8, !tbaa !72
  store double %add.i.i98, double* getelementptr inbounds (%struct.timer, %struct.timer* @_ZL3_tm, i64 0, i32 1), align 8, !tbaa !70
  br label %invoke.cont39

invoke.cont39:                                    ; preds = %if.end.i, %invoke.cont36
  %retval.0.i = phi double [ %sub.i, %if.end.i ], [ 0.000000e+00, %invoke.cont36 ]
  tail call void @_ZN5timer7reportTEd(%struct.timer* nonnull @_ZL3_tm, double %retval.0.i)
  %inc42 = add nuw nsw i32 %i8.0103, 1
  %exitcond111 = icmp eq i32 %inc42, %rounds
  br i1 %exitcond111, label %for.cond.cleanup, label %for.body

if.then46:                                        ; preds = %_ZNKSt9basic_iosIcSt11char_traitsIcEE5widenEc.exit.i
  %36 = bitcast %"class.std::__cxx11::basic_string"* %agg.tmp.i to i8*
  call void @llvm.lifetime.start.p0i8(i64 32, i8* nonnull %36)
  %37 = getelementptr inbounds %"class.std::__cxx11::basic_string", %"class.std::__cxx11::basic_string"* %agg.tmp.i, i64 0, i32 2
  %38 = bitcast %"class.std::__cxx11::basic_string"* %agg.tmp.i to %union.anon.1**
  store %union.anon.1* %37, %union.anon.1** %38, align 8, !tbaa !27, !alias.scope !79
  %39 = bitcast %union.anon.1* %37 to i8*
  call void @llvm.memcpy.p0i8.p0i8.i64(i8* nonnull %39, i8* nonnull getelementptr inbounds ([15 x i8], [15 x i8]* @.str.6, i64 0, i64 0), i64 14, i32 1, i1 false) #2
  %_M_string_length.i.i.i.i.i.i42.i.i = getelementptr inbounds %"class.std::__cxx11::basic_string", %"class.std::__cxx11::basic_string"* %agg.tmp.i, i64 0, i32 1
  store i64 14, i64* %_M_string_length.i.i.i.i.i.i42.i.i, align 8, !tbaa !29, !alias.scope !79
  %40 = getelementptr inbounds %"class.std::__cxx11::basic_string", %"class.std::__cxx11::basic_string"* %agg.tmp.i, i64 0, i32 2, i32 1, i64 6
  store i8 0, i8* %40, align 2, !tbaa !2, !alias.scope !79
  %call4.i = invoke i32 @_ZN7benchIO16writeArrayToFileIdEEiNSt7__cxx1112basic_stringIcSt11char_traitsIcESaIcEEEPT_lPc(%"class.std::__cxx11::basic_string"* nonnull %agg.tmp.i, double* nonnull %5, i64 %conv, i8* nonnull %outFile)
          to label %invoke.cont3.i unwind label %lpad2.i

invoke.cont3.i:                                   ; preds = %if.then46
  %_M_p.i.i.i.i10.i = getelementptr inbounds %"class.std::__cxx11::basic_string", %"class.std::__cxx11::basic_string"* %agg.tmp.i, i64 0, i32 0, i32 0
  %41 = load i8*, i8** %_M_p.i.i.i.i10.i, align 8, !tbaa !32
  %cmp.i.i.i12.i = icmp eq i8* %41, %39
  br i1 %cmp.i.i.i12.i, label %_ZN7benchIO19writeSequenceToFileIdEEiPT_lPc.exit, label %if.then.i.i13.i

if.then.i.i13.i:                                  ; preds = %invoke.cont3.i
  call void @_ZdlPv(i8* %41) #2
  br label %_ZN7benchIO19writeSequenceToFileIdEEiPT_lPc.exit

lpad2.i:                                          ; preds = %if.then46
  %42 = landingpad { i8*, i32 }
          cleanup
  %_M_p.i.i.i.i.i = getelementptr inbounds %"class.std::__cxx11::basic_string", %"class.std::__cxx11::basic_string"* %agg.tmp.i, i64 0, i32 0, i32 0
  %43 = load i8*, i8** %_M_p.i.i.i.i.i, align 8, !tbaa !32
  %cmp.i.i.i.i = icmp eq i8* %43, %39
  br i1 %cmp.i.i.i.i, label %eh.resume, label %if.then.i.i.i99

if.then.i.i.i99:                                  ; preds = %lpad2.i
  call void @_ZdlPv(i8* %43) #2
  br label %eh.resume

_ZN7benchIO19writeSequenceToFileIdEEiPT_lPc.exit: ; preds = %invoke.cont3.i, %if.then.i.i13.i
  call void @llvm.lifetime.end.p0i8(i64 32, i8* nonnull %36)
  br label %delete.notnull

delete.notnull:                                   ; preds = %_ZN7benchIO19writeSequenceToFileIdEEiPT_lPc.exit, %_ZNKSt9basic_iosIcSt11char_traitsIcEE5widenEc.exit.i
  call void @_ZdaPv(i8* nonnull %call) #24
  ret void

eh.resume:                                        ; preds = %if.then.i.i.i99, %lpad2.i
  resume { i8*, i32 } %42
}

; Function Attrs: uwtable
define linkonce_odr void @_Z8timeSortIPc6strCmpEvPT_iT0_ibS0_(i8** %A, i32 %n, i32 %rounds, i1 zeroext %permute, i8* %outFile) local_unnamed_addr #4 comdat personality i8* bitcast (i32 (...)* @__gxx_personality_v0 to i8*) {
entry:
  %0 = tail call i32 @__cilkrts_get_nworkers()
  %__cilkrts_wc8112 = shl i32 %0, 3
  %agg.tmp.i = alloca %"class.std::__cxx11::basic_string", align 8
  %now.i.i91 = alloca %struct.timeval, align 8
  %now.i.i = alloca %struct.timeval, align 8
  br i1 %permute, label %if.then, label %if.end

if.then:                                          ; preds = %entry
  tail call void @_Z8randPermIPcEvPT_i(i8** %A, i32 %n)
  br label %if.end

if.end:                                           ; preds = %if.then, %entry
  %conv = sext i32 %n to i64
  %1 = tail call { i64, i1 } @llvm.umul.with.overflow.i64(i64 %conv, i64 8)
  %2 = extractvalue { i64, i1 } %1, 1
  %3 = extractvalue { i64, i1 } %1, 0
  %4 = select i1 %2, i64 -1, i64 %3
  %call = tail call i8* @_Znam(i64 %4) #23
  %5 = bitcast i8* %call to i8**
  %cmp104 = icmp sgt i32 %n, 0
  br i1 %cmp104, label %pfor.detach.lr.ph, label %sync.continue

pfor.detach.lr.ph:                                ; preds = %if.end
  %wide.trip.count108 = zext i32 %n to i64
  %6 = add nsw i64 %wide.trip.count108, -1
  %7 = zext i32 %__cilkrts_wc8112 to i64
  %8 = add nsw i64 %wide.trip.count108, -2
  %9 = add nsw i64 %8, %7
  %10 = udiv i64 %9, %7
  %11 = icmp ult i64 %10, 2048
  %12 = select i1 %11, i64 %10, i64 2048
  tail call fastcc void @_Z8timeSortIPc6strCmpEvPT_iT0_ibS0__pfor.detach.ls(i64 0, i64 %6, i64 %12, i8** %A, i8** nonnull %5)
  br label %sync.continue

sync.continue:                                    ; preds = %if.end, %pfor.detach.lr.ph
  tail call void @_Z10sampleSortIPc6strCmpiEvPT_T1_T0_(i8** nonnull %5, i32 %n)
  %cmp9102 = icmp sgt i32 %rounds, 0
  br i1 %cmp9102, label %for.body.lr.ph, label %for.cond.cleanup

for.body.lr.ph:                                   ; preds = %sync.continue
  %13 = bitcast %struct.timeval* %now.i.i to i8*
  %tv_sec.i.i = getelementptr inbounds %struct.timeval, %struct.timeval* %now.i.i, i64 0, i32 0
  %tv_usec.i.i = getelementptr inbounds %struct.timeval, %struct.timeval* %now.i.i, i64 0, i32 1
  %14 = bitcast %struct.timeval* %now.i.i91 to i8*
  %tv_sec.i.i93 = getelementptr inbounds %struct.timeval, %struct.timeval* %now.i.i91, i64 0, i32 0
  %tv_usec.i.i95 = getelementptr inbounds %struct.timeval, %struct.timeval* %now.i.i91, i64 0, i32 1
  %wide.trip.count = zext i32 %n to i64
  %15 = add nsw i64 %wide.trip.count, -1
  %16 = zext i32 %__cilkrts_wc8112 to i64
  %17 = add nsw i64 %wide.trip.count, -2
  %18 = add nsw i64 %17, %16
  br label %for.body

for.cond.cleanup:                                 ; preds = %invoke.cont39, %sync.continue
  %vtable.i = load i8*, i8** bitcast (%"class.std::basic_ostream"* @_ZSt4cout to i8**), align 8, !tbaa !14
  %vbase.offset.ptr.i = getelementptr i8, i8* %vtable.i, i64 -24
  %19 = bitcast i8* %vbase.offset.ptr.i to i64*
  %vbase.offset.i = load i64, i64* %19, align 8
  %add.ptr.i = getelementptr inbounds i8, i8* bitcast (%"class.std::basic_ostream"* @_ZSt4cout to i8*), i64 %vbase.offset.i
  %_M_ctype.i.i = getelementptr inbounds i8, i8* %add.ptr.i, i64 240
  %20 = bitcast i8* %_M_ctype.i.i to %"class.std::ctype"**
  %21 = load %"class.std::ctype"*, %"class.std::ctype"** %20, align 8, !tbaa !23
  %tobool.i.i.i = icmp eq %"class.std::ctype"* %21, null
  br i1 %tobool.i.i.i, label %if.then.i.i.i, label %_ZSt13__check_facetISt5ctypeIcEERKT_PS3_.exit.i.i

if.then.i.i.i:                                    ; preds = %for.cond.cleanup
  tail call void @_ZSt16__throw_bad_castv() #21
  unreachable

_ZSt13__check_facetISt5ctypeIcEERKT_PS3_.exit.i.i: ; preds = %for.cond.cleanup
  %_M_widen_ok.i.i.i = getelementptr inbounds %"class.std::ctype", %"class.std::ctype"* %21, i64 0, i32 8
  %22 = load i8, i8* %_M_widen_ok.i.i.i, align 8, !tbaa !25
  %tobool.i5.i.i = icmp eq i8 %22, 0
  br i1 %tobool.i5.i.i, label %if.end.i.i.i, label %if.then.i6.i.i

if.then.i6.i.i:                                   ; preds = %_ZSt13__check_facetISt5ctypeIcEERKT_PS3_.exit.i.i
  %arrayidx.i.i.i = getelementptr inbounds %"class.std::ctype", %"class.std::ctype"* %21, i64 0, i32 9, i64 10
  %23 = load i8, i8* %arrayidx.i.i.i, align 1, !tbaa !2
  br label %_ZNKSt9basic_iosIcSt11char_traitsIcEE5widenEc.exit.i

if.end.i.i.i:                                     ; preds = %_ZSt13__check_facetISt5ctypeIcEERKT_PS3_.exit.i.i
  tail call void @_ZNKSt5ctypeIcE13_M_widen_initEv(%"class.std::ctype"* nonnull %21)
  %24 = bitcast %"class.std::ctype"* %21 to i8 (%"class.std::ctype"*, i8)***
  %vtable.i.i.i = load i8 (%"class.std::ctype"*, i8)**, i8 (%"class.std::ctype"*, i8)*** %24, align 8, !tbaa !14
  %vfn.i.i.i = getelementptr inbounds i8 (%"class.std::ctype"*, i8)*, i8 (%"class.std::ctype"*, i8)** %vtable.i.i.i, i64 6
  %25 = load i8 (%"class.std::ctype"*, i8)*, i8 (%"class.std::ctype"*, i8)** %vfn.i.i.i, align 8
  %call.i.i.i88 = tail call signext i8 %25(%"class.std::ctype"* nonnull %21, i8 signext 10)
  br label %_ZNKSt9basic_iosIcSt11char_traitsIcEE5widenEc.exit.i

_ZNKSt9basic_iosIcSt11char_traitsIcEE5widenEc.exit.i: ; preds = %if.end.i.i.i, %if.then.i6.i.i
  %retval.0.i.i.i = phi i8 [ %23, %if.then.i6.i.i ], [ %call.i.i.i88, %if.end.i.i.i ]
  %call2.i89 = tail call dereferenceable(272) %"class.std::basic_ostream"* @_ZNSo3putEc(%"class.std::basic_ostream"* nonnull @_ZSt4cout, i8 signext %retval.0.i.i.i)
  %call.i.i90 = tail call dereferenceable(272) %"class.std::basic_ostream"* @_ZNSo5flushEv(%"class.std::basic_ostream"* nonnull %call2.i89)
  %cmp45 = icmp eq i8* %outFile, null
  br i1 %cmp45, label %delete.notnull, label %if.then46

for.body:                                         ; preds = %invoke.cont39, %for.body.lr.ph
  %i8.0103 = phi i32 [ 0, %for.body.lr.ph ], [ %inc42, %invoke.cont39 ]
  br i1 %cmp104, label %pfor.detach21.preheader, label %invoke.cont36

pfor.detach21.preheader:                          ; preds = %for.body
  %26 = udiv i64 %18, %16
  %27 = icmp ult i64 %26, 2048
  %28 = select i1 %27, i64 %26, i64 2048
  tail call fastcc void @_Z8timeSortIPc6strCmpEvPT_iT0_ibS0__pfor.detach21.ls(i64 0, i64 %15, i64 %28, i8** %A, i8** nonnull %5)
  br label %invoke.cont36

invoke.cont36:                                    ; preds = %for.body, %pfor.detach21.preheader
  store i8 1, i8* getelementptr inbounds (%struct.timer, %struct.timer* @_ZL3_tm, i64 0, i32 3), align 8, !tbaa !63
  call void @llvm.lifetime.start.p0i8(i64 16, i8* nonnull %13) #2
  %call.i.i = call i32 @gettimeofday(%struct.timeval* nonnull %now.i.i, %struct.timezone* nonnull getelementptr inbounds (%struct.timer, %struct.timer* @_ZL3_tm, i64 0, i32 5)) #2
  %29 = load i64, i64* %tv_sec.i.i, align 8, !tbaa !67
  %conv.i.i = sitofp i64 %29 to double
  %30 = load i64, i64* %tv_usec.i.i, align 8, !tbaa !69
  %conv2.i.i = sitofp i64 %30 to double
  %div.i.i = fdiv double %conv2.i.i, 1.000000e+06
  %add.i.i = fadd double %div.i.i, %conv.i.i
  call void @llvm.lifetime.end.p0i8(i64 16, i8* nonnull %13) #2
  store double %add.i.i, double* getelementptr inbounds (%struct.timer, %struct.timer* @_ZL3_tm, i64 0, i32 1), align 8, !tbaa !70
  tail call void @_Z10sampleSortIPc6strCmpiEvPT_T1_T0_(i8** nonnull %5, i32 %n)
  %31 = load i8, i8* getelementptr inbounds (%struct.timer, %struct.timer* @_ZL3_tm, i64 0, i32 3), align 8, !tbaa !63, !range !71
  %tobool.i = icmp eq i8 %31, 0
  br i1 %tobool.i, label %invoke.cont39, label %if.end.i

if.end.i:                                         ; preds = %invoke.cont36
  call void @llvm.lifetime.start.p0i8(i64 16, i8* nonnull %14) #2
  %call.i.i92 = call i32 @gettimeofday(%struct.timeval* nonnull %now.i.i91, %struct.timezone* nonnull getelementptr inbounds (%struct.timer, %struct.timer* @_ZL3_tm, i64 0, i32 5)) #2
  %32 = load i64, i64* %tv_sec.i.i93, align 8, !tbaa !67
  %conv.i.i94 = sitofp i64 %32 to double
  %33 = load i64, i64* %tv_usec.i.i95, align 8, !tbaa !69
  %conv2.i.i96 = sitofp i64 %33 to double
  %div.i.i97 = fdiv double %conv2.i.i96, 1.000000e+06
  %add.i.i98 = fadd double %div.i.i97, %conv.i.i94
  call void @llvm.lifetime.end.p0i8(i64 16, i8* nonnull %14) #2
  %34 = load double, double* getelementptr inbounds (%struct.timer, %struct.timer* @_ZL3_tm, i64 0, i32 1), align 8, !tbaa !70
  %sub.i = fsub double %add.i.i98, %34
  %35 = load double, double* getelementptr inbounds (%struct.timer, %struct.timer* @_ZL3_tm, i64 0, i32 0), align 8, !tbaa !72
  %add.i = fadd double %35, %sub.i
  store double %add.i, double* getelementptr inbounds (%struct.timer, %struct.timer* @_ZL3_tm, i64 0, i32 0), align 8, !tbaa !72
  store double %add.i.i98, double* getelementptr inbounds (%struct.timer, %struct.timer* @_ZL3_tm, i64 0, i32 1), align 8, !tbaa !70
  br label %invoke.cont39

invoke.cont39:                                    ; preds = %if.end.i, %invoke.cont36
  %retval.0.i = phi double [ %sub.i, %if.end.i ], [ 0.000000e+00, %invoke.cont36 ]
  tail call void @_ZN5timer7reportTEd(%struct.timer* nonnull @_ZL3_tm, double %retval.0.i)
  %inc42 = add nuw nsw i32 %i8.0103, 1
  %exitcond111 = icmp eq i32 %inc42, %rounds
  br i1 %exitcond111, label %for.cond.cleanup, label %for.body

if.then46:                                        ; preds = %_ZNKSt9basic_iosIcSt11char_traitsIcEE5widenEc.exit.i
  %36 = bitcast %"class.std::__cxx11::basic_string"* %agg.tmp.i to i8*
  call void @llvm.lifetime.start.p0i8(i64 32, i8* nonnull %36)
  %37 = getelementptr inbounds %"class.std::__cxx11::basic_string", %"class.std::__cxx11::basic_string"* %agg.tmp.i, i64 0, i32 2
  %38 = bitcast %"class.std::__cxx11::basic_string"* %agg.tmp.i to %union.anon.1**
  store %union.anon.1* %37, %union.anon.1** %38, align 8, !tbaa !27, !alias.scope !82
  %39 = bitcast %union.anon.1* %37 to i8*
  call void @llvm.memcpy.p0i8.p0i8.i64(i8* nonnull %39, i8* nonnull getelementptr inbounds ([13 x i8], [13 x i8]* @.str.7, i64 0, i64 0), i64 12, i32 1, i1 false) #2
  %_M_string_length.i.i.i.i.i.i61.i.i = getelementptr inbounds %"class.std::__cxx11::basic_string", %"class.std::__cxx11::basic_string"* %agg.tmp.i, i64 0, i32 1
  store i64 12, i64* %_M_string_length.i.i.i.i.i.i61.i.i, align 8, !tbaa !29, !alias.scope !82
  %40 = getelementptr inbounds %"class.std::__cxx11::basic_string", %"class.std::__cxx11::basic_string"* %agg.tmp.i, i64 0, i32 2, i32 1, i64 4
  store i8 0, i8* %40, align 4, !tbaa !2, !alias.scope !82
  %call4.i = invoke i32 @_ZN7benchIO16writeArrayToFileIPcEEiNSt7__cxx1112basic_stringIcSt11char_traitsIcESaIcEEEPT_lS1_(%"class.std::__cxx11::basic_string"* nonnull %agg.tmp.i, i8** nonnull %5, i64 %conv, i8* nonnull %outFile)
          to label %invoke.cont3.i unwind label %lpad2.i

invoke.cont3.i:                                   ; preds = %if.then46
  %_M_p.i.i.i.i10.i = getelementptr inbounds %"class.std::__cxx11::basic_string", %"class.std::__cxx11::basic_string"* %agg.tmp.i, i64 0, i32 0, i32 0
  %41 = load i8*, i8** %_M_p.i.i.i.i10.i, align 8, !tbaa !32
  %cmp.i.i.i12.i = icmp eq i8* %41, %39
  br i1 %cmp.i.i.i12.i, label %_ZN7benchIO19writeSequenceToFileIPcEEiPT_lS1_.exit, label %if.then.i.i13.i

if.then.i.i13.i:                                  ; preds = %invoke.cont3.i
  call void @_ZdlPv(i8* %41) #2
  br label %_ZN7benchIO19writeSequenceToFileIPcEEiPT_lS1_.exit

lpad2.i:                                          ; preds = %if.then46
  %42 = landingpad { i8*, i32 }
          cleanup
  %_M_p.i.i.i.i.i = getelementptr inbounds %"class.std::__cxx11::basic_string", %"class.std::__cxx11::basic_string"* %agg.tmp.i, i64 0, i32 0, i32 0
  %43 = load i8*, i8** %_M_p.i.i.i.i.i, align 8, !tbaa !32
  %cmp.i.i.i.i = icmp eq i8* %43, %39
  br i1 %cmp.i.i.i.i, label %eh.resume, label %if.then.i.i.i99

if.then.i.i.i99:                                  ; preds = %lpad2.i
  call void @_ZdlPv(i8* %43) #2
  br label %eh.resume

_ZN7benchIO19writeSequenceToFileIPcEEiPT_lS1_.exit: ; preds = %invoke.cont3.i, %if.then.i.i13.i
  call void @llvm.lifetime.end.p0i8(i64 32, i8* nonnull %36)
  br label %delete.notnull

delete.notnull:                                   ; preds = %_ZN7benchIO19writeSequenceToFileIPcEEiPT_lS1_.exit, %_ZNKSt9basic_iosIcSt11char_traitsIcEE5widenEc.exit.i
  call void @_ZdaPv(i8* nonnull %call) #24
  ret void

eh.resume:                                        ; preds = %if.then.i.i.i99, %lpad2.i
  resume { i8*, i32 } %42
}

; Function Attrs: argmemonly nounwind
declare void @llvm.memset.p0i8.i64(i8* nocapture writeonly, i8, i64, i32, i1) #5

; Function Attrs: argmemonly nounwind
declare void @llvm.memcpy.p0i8.p0i8.i64(i8* nocapture writeonly, i8* nocapture readonly, i64, i32, i1) #5

; Function Attrs: nounwind
declare i64 @strtol(i8* readonly, i8** nocapture, i32) local_unnamed_addr #1

; Function Attrs: nounwind
declare double @strtod(i8* readonly, i8** nocapture) local_unnamed_addr #1

; Function Attrs: noreturn
declare void @_ZSt19__throw_logic_errorPKc(i8*) local_unnamed_addr #13

declare i8* @_ZNSt7__cxx1112basic_stringIcSt11char_traitsIcESaIcEE9_M_createERmm(%"class.std::__cxx11::basic_string"*, i64* dereferenceable(8), i64) local_unnamed_addr #0

; Function Attrs: nobuiltin nounwind
declare void @_ZdlPv(i8*) local_unnamed_addr #11

declare dereferenceable(272) %"class.std::basic_ostream"* @_ZSt16__ostream_insertIcSt11char_traitsIcEERSt13basic_ostreamIT_T0_ES6_PKS3_l(%"class.std::basic_ostream"* dereferenceable(272), i8*, i64) local_unnamed_addr #0

; Function Attrs: nounwind readonly
declare i32 @memcmp(i8* nocapture, i8* nocapture, i64) local_unnamed_addr #14

declare void @_ZNSt9basic_iosIcSt11char_traitsIcEE5clearESt12_Ios_Iostate(%"class.std::basic_ios"*, i32) local_unnamed_addr #0

; Function Attrs: argmemonly nounwind readonly
declare i64 @strlen(i8* nocapture) local_unnamed_addr #15

declare dereferenceable(272) %"class.std::basic_ostream"* @_ZNSo3putEc(%"class.std::basic_ostream"*, i8 signext) local_unnamed_addr #0

declare dereferenceable(272) %"class.std::basic_ostream"* @_ZNSo5flushEv(%"class.std::basic_ostream"*) local_unnamed_addr #0

; Function Attrs: noreturn
declare void @_ZSt16__throw_bad_castv() local_unnamed_addr #13

declare void @_ZNKSt5ctypeIcE13_M_widen_initEv(%"class.std::ctype"*) local_unnamed_addr #0

; Function Attrs: uwtable
define linkonce_odr { i64*, i64 } @_ZN8sequence4packIllN5utils9identityFIlEEEE4_seqIT_EPS5_PbT0_S9_T1_(i64* %Out, i8* %Fl, i64 %s, i64 %e) local_unnamed_addr #4 comdat personality i8* bitcast (i32 (...)* @__gxx_personality_v0 to i8*) {
entry:
  %sub = sub nsw i64 %e, %s
  %sub1 = add nsw i64 %sub, -1
  %div = sdiv i64 %sub1, 2048
  %add = add nsw i64 %div, 1
  %cmp = icmp slt i64 %sub, 2049
  br i1 %cmp, label %if.then, label %pfor.detach.lr.ph

if.then:                                          ; preds = %entry
  %call = call { i64*, i64 } @_ZN8sequence10packSerialIllN5utils9identityFIlEEEE4_seqIT_EPS5_PbT0_S9_T1_(i64* %Out, i8* %Fl, i64 %s, i64 %e)
  %0 = extractvalue { i64*, i64 } %call, 0
  %1 = extractvalue { i64*, i64 } %call, 1
  br label %cleanup

pfor.detach.lr.ph:                                ; preds = %entry
  %2 = tail call i32 @__cilkrts_get_nworkers()
  %__cilkrts_wc8259 = shl i32 %2, 3
  %mul = shl nsw i64 %add, 3
  %call2 = tail call noalias i8* @malloc(i64 %mul) #2
  %3 = bitcast i8* %call2 to i64*
  %4 = xor i64 %s, -1
  %5 = sub i64 -2049, %s
  %6 = xor i64 %e, -1
  %7 = icmp sgt i64 %div, 0
  %smax257 = select i1 %7, i64 %div, i64 0
  %8 = zext i32 %__cilkrts_wc8259 to i64
  %9 = add nsw i64 %smax257, -1
  %10 = add nsw i64 %9, %8
  %11 = udiv i64 %10, %8
  %12 = icmp ult i64 %11, 2048
  %13 = select i1 %12, i64 %11, i64 2048
  call fastcc void @_ZN8sequence4packIllN5utils9identityFIlEEEE4_seqIT_EPS5_PbT0_S9_T1__pfor.detach.ls(i64 0, i64 %smax257, i64 %13, i64 %4, i64 %5, i64 %6, i64 %s, i64 %e, i8* %Fl, i64* %3)
  %call.i197 = call i64 @_ZN8sequence4scanIllN5utils4addFIlEENS_4getAIllEEEET_PS6_T0_S8_T1_T2_S6_bb(i64* %3, i64 0, i64 %add, i64* %3, i64 0, i1 zeroext false, i1 zeroext false)
  %cmp44 = icmp eq i64* %Out, null
  br i1 %cmp44, label %if.then45, label %pfor.detach68.preheader

if.then45:                                        ; preds = %pfor.detach.lr.ph
  %mul46 = shl i64 %call.i197, 3
  %call47 = tail call noalias i8* @malloc(i64 %mul46) #2
  %14 = bitcast i8* %call47 to i64*
  br label %pfor.detach68.preheader

pfor.detach68.preheader:                          ; preds = %pfor.detach.lr.ph, %if.then45
  %Out.addr.0 = phi i64* [ %14, %if.then45 ], [ %Out, %pfor.detach.lr.ph ]
  call fastcc void @_ZN8sequence4packIllN5utils9identityFIlEEEE4_seqIT_EPS5_PbT0_S9_T1__pfor.detach68.ls(i64 0, i64 %smax257, i64 %13, i64 %s, i64 %e, i64* %3, i64* %Out.addr.0, i8* %Fl)
  tail call void @free(i8* %call2) #2
  br label %cleanup

cleanup:                                          ; preds = %pfor.detach68.preheader, %if.then
  %retval.sroa.0.0 = phi i64* [ %0, %if.then ], [ %Out.addr.0, %pfor.detach68.preheader ]
  %retval.sroa.3.0 = phi i64 [ %1, %if.then ], [ %call.i197, %pfor.detach68.preheader ]
  %.fca.0.insert = insertvalue { i64*, i64 } undef, i64* %retval.sroa.0.0, 0
  %.fca.1.insert = insertvalue { i64*, i64 } %.fca.0.insert, i64 %retval.sroa.3.0, 1
  ret { i64*, i64 } %.fca.1.insert
}

; Function Attrs: uwtable
define linkonce_odr { i64*, i64 } @_ZN8sequence10packSerialIllN5utils9identityFIlEEEE4_seqIT_EPS5_PbT0_S9_T1_(i64* %Out, i8* %Fl, i64 %s, i64 %e) local_unnamed_addr #4 comdat personality i8* bitcast (i32 (...)* @__gxx_personality_v0 to i8*) {
entry:
  %cmp = icmp eq i64* %Out, null
  br i1 %cmp, label %if.then, label %if.end

if.then:                                          ; preds = %entry
  %add.ptr = getelementptr inbounds i8, i8* %Fl, i64 %s
  %sub = sub nsw i64 %e, %s
  %cmp.i = icmp sgt i64 %sub, 127
  %and.i = and i64 %sub, 511
  %cmp1.i = icmp eq i64 %and.i, 0
  %or.cond.i = and i1 %cmp.i, %cmp1.i
  br i1 %or.cond.i, label %land.lhs.true2.i, label %if.else.i

land.lhs.true2.i:                                 ; preds = %if.then
  %0 = ptrtoint i8* %add.ptr to i64
  %and3.i = and i64 %0, 3
  %cmp4.i = icmp eq i64 %and3.i, 0
  br i1 %cmp4.i, label %if.then.i, label %vector.ph

if.then.i:                                        ; preds = %land.lhs.true2.i
  %shr75.i = lshr i64 %sub, 9
  %cmp562.i = icmp sgt i64 %sub, 511
  br i1 %cmp562.i, label %for.body.lr.ph.i, label %_ZN8sequence14sumFlagsSerialIlEET_PbS1_.exit

for.body.lr.ph.i:                                 ; preds = %if.then.i
  %1 = bitcast i8* %add.ptr to i32*
  br label %vector.ph39

vector.ph39:                                      ; preds = %for.body.lr.ph.i, %vector.ph39
  %indvars.iv71.i = phi i64 [ 0, %for.body.lr.ph.i ], [ %indvars.iv.next72.i, %vector.ph39 ]
  %IFl.064.i = phi i32* [ %1, %for.body.lr.ph.i ], [ %add.ptr.i, %vector.ph39 ]
  %r.063.i = phi i64 [ 0, %for.body.lr.ph.i ], [ %add21.i, %vector.ph39 ]
  %2 = bitcast i32* %IFl.064.i to <4 x i32>*
  %wide.load50 = load <4 x i32>, <4 x i32>* %2, align 4, !tbaa !85
  %3 = getelementptr i32, i32* %IFl.064.i, i64 4
  %4 = bitcast i32* %3 to <4 x i32>*
  %wide.load51 = load <4 x i32>, <4 x i32>* %4, align 4, !tbaa !85
  %5 = getelementptr inbounds i32, i32* %IFl.064.i, i64 8
  %6 = bitcast i32* %5 to <4 x i32>*
  %wide.load50.1 = load <4 x i32>, <4 x i32>* %6, align 4, !tbaa !85
  %7 = getelementptr i32, i32* %IFl.064.i, i64 12
  %8 = bitcast i32* %7 to <4 x i32>*
  %wide.load51.1 = load <4 x i32>, <4 x i32>* %8, align 4, !tbaa !85
  %9 = getelementptr inbounds i32, i32* %IFl.064.i, i64 16
  %10 = bitcast i32* %9 to <4 x i32>*
  %wide.load50.2 = load <4 x i32>, <4 x i32>* %10, align 4, !tbaa !85
  %11 = getelementptr i32, i32* %IFl.064.i, i64 20
  %12 = bitcast i32* %11 to <4 x i32>*
  %wide.load51.2 = load <4 x i32>, <4 x i32>* %12, align 4, !tbaa !85
  %13 = getelementptr inbounds i32, i32* %IFl.064.i, i64 24
  %14 = bitcast i32* %13 to <4 x i32>*
  %wide.load50.3 = load <4 x i32>, <4 x i32>* %14, align 4, !tbaa !85
  %15 = getelementptr i32, i32* %IFl.064.i, i64 28
  %16 = bitcast i32* %15 to <4 x i32>*
  %wide.load51.3 = load <4 x i32>, <4 x i32>* %16, align 4, !tbaa !85
  %17 = getelementptr inbounds i32, i32* %IFl.064.i, i64 32
  %18 = bitcast i32* %17 to <4 x i32>*
  %wide.load50.4 = load <4 x i32>, <4 x i32>* %18, align 4, !tbaa !85
  %19 = getelementptr i32, i32* %IFl.064.i, i64 36
  %20 = bitcast i32* %19 to <4 x i32>*
  %wide.load51.4 = load <4 x i32>, <4 x i32>* %20, align 4, !tbaa !85
  %21 = getelementptr inbounds i32, i32* %IFl.064.i, i64 40
  %22 = bitcast i32* %21 to <4 x i32>*
  %wide.load50.5 = load <4 x i32>, <4 x i32>* %22, align 4, !tbaa !85
  %23 = getelementptr i32, i32* %IFl.064.i, i64 44
  %24 = bitcast i32* %23 to <4 x i32>*
  %wide.load51.5 = load <4 x i32>, <4 x i32>* %24, align 4, !tbaa !85
  %25 = getelementptr inbounds i32, i32* %IFl.064.i, i64 48
  %26 = bitcast i32* %25 to <4 x i32>*
  %wide.load50.6 = load <4 x i32>, <4 x i32>* %26, align 4, !tbaa !85
  %27 = getelementptr i32, i32* %IFl.064.i, i64 52
  %28 = bitcast i32* %27 to <4 x i32>*
  %wide.load51.6 = load <4 x i32>, <4 x i32>* %28, align 4, !tbaa !85
  %29 = getelementptr inbounds i32, i32* %IFl.064.i, i64 56
  %30 = bitcast i32* %29 to <4 x i32>*
  %wide.load50.7 = load <4 x i32>, <4 x i32>* %30, align 4, !tbaa !85
  %31 = getelementptr i32, i32* %IFl.064.i, i64 60
  %32 = bitcast i32* %31 to <4 x i32>*
  %wide.load51.7 = load <4 x i32>, <4 x i32>* %32, align 4, !tbaa !85
  %33 = getelementptr inbounds i32, i32* %IFl.064.i, i64 64
  %34 = bitcast i32* %33 to <4 x i32>*
  %wide.load50.8 = load <4 x i32>, <4 x i32>* %34, align 4, !tbaa !85
  %35 = getelementptr i32, i32* %IFl.064.i, i64 68
  %36 = bitcast i32* %35 to <4 x i32>*
  %wide.load51.8 = load <4 x i32>, <4 x i32>* %36, align 4, !tbaa !85
  %37 = getelementptr inbounds i32, i32* %IFl.064.i, i64 72
  %38 = bitcast i32* %37 to <4 x i32>*
  %wide.load50.9 = load <4 x i32>, <4 x i32>* %38, align 4, !tbaa !85
  %39 = getelementptr i32, i32* %IFl.064.i, i64 76
  %40 = bitcast i32* %39 to <4 x i32>*
  %wide.load51.9 = load <4 x i32>, <4 x i32>* %40, align 4, !tbaa !85
  %41 = getelementptr inbounds i32, i32* %IFl.064.i, i64 80
  %42 = bitcast i32* %41 to <4 x i32>*
  %wide.load50.10 = load <4 x i32>, <4 x i32>* %42, align 4, !tbaa !85
  %43 = getelementptr i32, i32* %IFl.064.i, i64 84
  %44 = bitcast i32* %43 to <4 x i32>*
  %wide.load51.10 = load <4 x i32>, <4 x i32>* %44, align 4, !tbaa !85
  %45 = getelementptr inbounds i32, i32* %IFl.064.i, i64 88
  %46 = bitcast i32* %45 to <4 x i32>*
  %wide.load50.11 = load <4 x i32>, <4 x i32>* %46, align 4, !tbaa !85
  %47 = getelementptr i32, i32* %IFl.064.i, i64 92
  %48 = bitcast i32* %47 to <4 x i32>*
  %wide.load51.11 = load <4 x i32>, <4 x i32>* %48, align 4, !tbaa !85
  %49 = getelementptr inbounds i32, i32* %IFl.064.i, i64 96
  %50 = bitcast i32* %49 to <4 x i32>*
  %wide.load50.12 = load <4 x i32>, <4 x i32>* %50, align 4, !tbaa !85
  %51 = getelementptr i32, i32* %IFl.064.i, i64 100
  %52 = bitcast i32* %51 to <4 x i32>*
  %wide.load51.12 = load <4 x i32>, <4 x i32>* %52, align 4, !tbaa !85
  %53 = getelementptr inbounds i32, i32* %IFl.064.i, i64 104
  %54 = bitcast i32* %53 to <4 x i32>*
  %wide.load50.13 = load <4 x i32>, <4 x i32>* %54, align 4, !tbaa !85
  %55 = getelementptr i32, i32* %IFl.064.i, i64 108
  %56 = bitcast i32* %55 to <4 x i32>*
  %wide.load51.13 = load <4 x i32>, <4 x i32>* %56, align 4, !tbaa !85
  %57 = getelementptr inbounds i32, i32* %IFl.064.i, i64 112
  %58 = bitcast i32* %57 to <4 x i32>*
  %wide.load50.14 = load <4 x i32>, <4 x i32>* %58, align 4, !tbaa !85
  %59 = getelementptr i32, i32* %IFl.064.i, i64 116
  %60 = bitcast i32* %59 to <4 x i32>*
  %wide.load51.14 = load <4 x i32>, <4 x i32>* %60, align 4, !tbaa !85
  %61 = getelementptr inbounds i32, i32* %IFl.064.i, i64 120
  %62 = bitcast i32* %61 to <4 x i32>*
  %wide.load50.15 = load <4 x i32>, <4 x i32>* %62, align 4, !tbaa !85
  %63 = getelementptr i32, i32* %IFl.064.i, i64 124
  %64 = bitcast i32* %63 to <4 x i32>*
  %wide.load51.15 = load <4 x i32>, <4 x i32>* %64, align 4, !tbaa !85
  %65 = add <4 x i32> %wide.load51, %wide.load50
  %66 = add <4 x i32> %65, %wide.load50.1
  %67 = add <4 x i32> %66, %wide.load51.1
  %68 = add <4 x i32> %67, %wide.load50.2
  %69 = add <4 x i32> %68, %wide.load51.2
  %70 = add <4 x i32> %69, %wide.load50.3
  %71 = add <4 x i32> %70, %wide.load51.3
  %72 = add <4 x i32> %71, %wide.load50.4
  %73 = add <4 x i32> %72, %wide.load51.4
  %74 = add <4 x i32> %73, %wide.load50.5
  %75 = add <4 x i32> %74, %wide.load51.5
  %76 = add <4 x i32> %75, %wide.load50.6
  %77 = add <4 x i32> %76, %wide.load51.6
  %78 = add <4 x i32> %77, %wide.load50.7
  %79 = add <4 x i32> %78, %wide.load51.7
  %80 = add <4 x i32> %79, %wide.load50.8
  %81 = add <4 x i32> %80, %wide.load51.8
  %82 = add <4 x i32> %81, %wide.load50.9
  %83 = add <4 x i32> %82, %wide.load51.9
  %84 = add <4 x i32> %83, %wide.load50.10
  %85 = add <4 x i32> %84, %wide.load51.10
  %86 = add <4 x i32> %85, %wide.load50.11
  %87 = add <4 x i32> %86, %wide.load51.11
  %88 = add <4 x i32> %87, %wide.load50.12
  %89 = add <4 x i32> %88, %wide.load51.12
  %90 = add <4 x i32> %89, %wide.load50.13
  %91 = add <4 x i32> %90, %wide.load51.13
  %92 = add <4 x i32> %91, %wide.load50.14
  %93 = add <4 x i32> %92, %wide.load51.14
  %94 = add <4 x i32> %93, %wide.load50.15
  %bin.rdx52 = add <4 x i32> %94, %wide.load51.15
  %rdx.shuf53 = shufflevector <4 x i32> %bin.rdx52, <4 x i32> undef, <4 x i32> <i32 2, i32 3, i32 undef, i32 undef>
  %bin.rdx54 = add <4 x i32> %rdx.shuf53, %bin.rdx52
  %rdx.shuf55 = shufflevector <4 x i32> %bin.rdx54, <4 x i32> undef, <4 x i32> <i32 1, i32 undef, i32 undef, i32 undef>
  %bin.rdx56 = add <4 x i32> %rdx.shuf55, %bin.rdx54
  %95 = extractelement <4 x i32> %bin.rdx56, i32 0
  %and10.i = and i32 %95, 255
  %96 = lshr i32 %95, 8
  %and12.i = and i32 %96, 255
  %97 = lshr i32 %95, 16
  %and15.i = and i32 %97, 255
  %98 = lshr i32 %95, 24
  %add13.i = add nuw nsw i32 %98, %and10.i
  %add16.i = add nuw nsw i32 %add13.i, %and12.i
  %add19.i = add nuw nsw i32 %add16.i, %and15.i
  %99 = zext i32 %add19.i to i64
  %add21.i = add nuw nsw i64 %r.063.i, %99
  %add.ptr.i = getelementptr inbounds i32, i32* %IFl.064.i, i64 128
  %indvars.iv.next72.i = add nuw nsw i64 %indvars.iv71.i, 1
  %cmp5.i = icmp ugt i64 %shr75.i, %indvars.iv.next72.i
  br i1 %cmp5.i, label %vector.ph39, label %_ZN8sequence14sumFlagsSerialIlEET_PbS1_.exit

if.else.i:                                        ; preds = %if.then
  %cmp2766.i = icmp sgt i64 %sub, 0
  br i1 %cmp2766.i, label %for.body29.lr.ph.i, label %_ZN8sequence14sumFlagsSerialIlEET_PbS1_.exit

for.body29.lr.ph.i:                               ; preds = %if.else.i
  %min.iters.check = icmp ult i64 %sub, 4
  br i1 %min.iters.check, label %for.body29.i.preheader, label %vector.ph

vector.ph:                                        ; preds = %land.lhs.true2.i, %for.body29.lr.ph.i
  %n.vec = and i64 %sub, -4
  %100 = add i64 %n.vec, -4
  %101 = lshr exact i64 %100, 2
  %102 = add nuw nsw i64 %101, 1
  %xtraiter62 = and i64 %102, 1
  %103 = icmp eq i64 %100, 0
  br i1 %103, label %middle.block.unr-lcssa, label %vector.ph.new

vector.ph.new:                                    ; preds = %vector.ph
  %unroll_iter64 = sub nsw i64 %102, %xtraiter62
  br label %vector.body

vector.body:                                      ; preds = %vector.body, %vector.ph.new
  %index = phi i64 [ 0, %vector.ph.new ], [ %index.next.1, %vector.body ]
  %vec.phi = phi <2 x i64> [ zeroinitializer, %vector.ph.new ], [ %118, %vector.body ]
  %vec.phi33 = phi <2 x i64> [ zeroinitializer, %vector.ph.new ], [ %119, %vector.body ]
  %niter65 = phi i64 [ %unroll_iter64, %vector.ph.new ], [ %niter65.nsub.1, %vector.body ]
  %104 = getelementptr inbounds i8, i8* %add.ptr, i64 %index
  %105 = bitcast i8* %104 to <2 x i8>*
  %wide.load = load <2 x i8>, <2 x i8>* %105, align 1, !tbaa !5
  %106 = getelementptr i8, i8* %104, i64 2
  %107 = bitcast i8* %106 to <2 x i8>*
  %wide.load34 = load <2 x i8>, <2 x i8>* %107, align 1, !tbaa !5
  %108 = zext <2 x i8> %wide.load to <2 x i64>
  %109 = zext <2 x i8> %wide.load34 to <2 x i64>
  %110 = add nuw nsw <2 x i64> %vec.phi, %108
  %111 = add nuw nsw <2 x i64> %vec.phi33, %109
  %index.next = or i64 %index, 4
  %112 = getelementptr inbounds i8, i8* %add.ptr, i64 %index.next
  %113 = bitcast i8* %112 to <2 x i8>*
  %wide.load.1 = load <2 x i8>, <2 x i8>* %113, align 1, !tbaa !5
  %114 = getelementptr i8, i8* %112, i64 2
  %115 = bitcast i8* %114 to <2 x i8>*
  %wide.load34.1 = load <2 x i8>, <2 x i8>* %115, align 1, !tbaa !5
  %116 = zext <2 x i8> %wide.load.1 to <2 x i64>
  %117 = zext <2 x i8> %wide.load34.1 to <2 x i64>
  %118 = add nuw nsw <2 x i64> %110, %116
  %119 = add nuw nsw <2 x i64> %111, %117
  %index.next.1 = add i64 %index, 8
  %niter65.nsub.1 = add i64 %niter65, -2
  %niter65.ncmp.1 = icmp eq i64 %niter65.nsub.1, 0
  br i1 %niter65.ncmp.1, label %middle.block.unr-lcssa, label %vector.body, !llvm.loop !86

middle.block.unr-lcssa:                           ; preds = %vector.body, %vector.ph
  %.lcssa61.ph = phi <2 x i64> [ undef, %vector.ph ], [ %118, %vector.body ]
  %.lcssa60.ph = phi <2 x i64> [ undef, %vector.ph ], [ %119, %vector.body ]
  %index.unr = phi i64 [ 0, %vector.ph ], [ %index.next.1, %vector.body ]
  %vec.phi.unr = phi <2 x i64> [ zeroinitializer, %vector.ph ], [ %118, %vector.body ]
  %vec.phi33.unr = phi <2 x i64> [ zeroinitializer, %vector.ph ], [ %119, %vector.body ]
  %lcmp.mod63 = icmp eq i64 %xtraiter62, 0
  br i1 %lcmp.mod63, label %middle.block, label %vector.body.epil

vector.body.epil:                                 ; preds = %middle.block.unr-lcssa
  %120 = getelementptr inbounds i8, i8* %add.ptr, i64 %index.unr
  %121 = getelementptr i8, i8* %120, i64 2
  %122 = bitcast i8* %121 to <2 x i8>*
  %wide.load34.epil = load <2 x i8>, <2 x i8>* %122, align 1, !tbaa !5
  %123 = zext <2 x i8> %wide.load34.epil to <2 x i64>
  %124 = add nuw nsw <2 x i64> %vec.phi33.unr, %123
  %125 = bitcast i8* %120 to <2 x i8>*
  %wide.load.epil = load <2 x i8>, <2 x i8>* %125, align 1, !tbaa !5
  %126 = zext <2 x i8> %wide.load.epil to <2 x i64>
  %127 = add nuw nsw <2 x i64> %vec.phi.unr, %126
  br label %middle.block

middle.block:                                     ; preds = %middle.block.unr-lcssa, %vector.body.epil
  %.lcssa61 = phi <2 x i64> [ %.lcssa61.ph, %middle.block.unr-lcssa ], [ %127, %vector.body.epil ]
  %.lcssa60 = phi <2 x i64> [ %.lcssa60.ph, %middle.block.unr-lcssa ], [ %124, %vector.body.epil ]
  %bin.rdx = add nuw <2 x i64> %.lcssa60, %.lcssa61
  %rdx.shuf = shufflevector <2 x i64> %bin.rdx, <2 x i64> undef, <2 x i32> <i32 1, i32 undef>
  %bin.rdx35 = add <2 x i64> %rdx.shuf, %bin.rdx
  %128 = extractelement <2 x i64> %bin.rdx35, i32 0
  %cmp.n = icmp eq i64 %sub, %n.vec
  br i1 %cmp.n, label %_ZN8sequence14sumFlagsSerialIlEET_PbS1_.exit, label %for.body29.i.preheader

for.body29.i.preheader:                           ; preds = %middle.block, %for.body29.lr.ph.i
  %j25.068.i.ph = phi i64 [ %n.vec, %middle.block ], [ 0, %for.body29.lr.ph.i ]
  %r.167.i.ph = phi i64 [ %128, %middle.block ], [ 0, %for.body29.lr.ph.i ]
  br label %for.body29.i

for.body29.i:                                     ; preds = %for.body29.i.preheader, %for.body29.i
  %j25.068.i = phi i64 [ %inc34.i, %for.body29.i ], [ %j25.068.i.ph, %for.body29.i.preheader ]
  %r.167.i = phi i64 [ %add32.i, %for.body29.i ], [ %r.167.i.ph, %for.body29.i.preheader ]
  %arrayidx30.i = getelementptr inbounds i8, i8* %add.ptr, i64 %j25.068.i
  %129 = load i8, i8* %arrayidx30.i, align 1, !tbaa !5, !range !71
  %130 = zext i8 %129 to i64
  %add32.i = add nuw nsw i64 %r.167.i, %130
  %inc34.i = add nuw nsw i64 %j25.068.i, 1
  %exitcond73.i = icmp eq i64 %inc34.i, %sub
  br i1 %exitcond73.i, label %_ZN8sequence14sumFlagsSerialIlEET_PbS1_.exit, label %for.body29.i, !llvm.loop !88

_ZN8sequence14sumFlagsSerialIlEET_PbS1_.exit:     ; preds = %for.body29.i, %vector.ph39, %middle.block, %if.then.i, %if.else.i
  %r.2.i = phi i64 [ 0, %if.then.i ], [ 0, %if.else.i ], [ %128, %middle.block ], [ %add21.i, %vector.ph39 ], [ %add32.i, %for.body29.i ]
  %mul = shl i64 %r.2.i, 3
  %call1 = tail call noalias i8* @malloc(i64 %mul) #2
  %131 = bitcast i8* %call1 to i64*
  br label %if.end

if.end:                                           ; preds = %_ZN8sequence14sumFlagsSerialIlEET_PbS1_.exit, %entry
  %Out.addr.0 = phi i64* [ %131, %_ZN8sequence14sumFlagsSerialIlEET_PbS1_.exit ], [ %Out, %entry ]
  %cmp226 = icmp sgt i64 %e, %s
  br i1 %cmp226, label %for.body.preheader, label %for.cond.cleanup

for.body.preheader:                               ; preds = %if.end
  %132 = sub i64 %e, %s
  %133 = add i64 %e, -1
  %xtraiter = and i64 %132, 1
  %134 = icmp eq i64 %133, %s
  br i1 %134, label %for.cond.cleanup.loopexit.unr-lcssa, label %for.body.preheader.new

for.body.preheader.new:                           ; preds = %for.body.preheader
  %unroll_iter = sub i64 %132, %xtraiter
  br label %for.body

for.cond.cleanup.loopexit.unr-lcssa:              ; preds = %for.inc.1, %for.body.preheader
  %k.1.lcssa.ph = phi i64 [ undef, %for.body.preheader ], [ %k.1.1, %for.inc.1 ]
  %k.028.unr = phi i64 [ 0, %for.body.preheader ], [ %k.1.1, %for.inc.1 ]
  %storemerge27.unr = phi i64 [ %s, %for.body.preheader ], [ %inc9.1, %for.inc.1 ]
  %lcmp.mod = icmp eq i64 %xtraiter, 0
  br i1 %lcmp.mod, label %for.cond.cleanup, label %for.body.epil

for.body.epil:                                    ; preds = %for.cond.cleanup.loopexit.unr-lcssa
  %arrayidx.epil = getelementptr inbounds i8, i8* %Fl, i64 %storemerge27.unr
  %135 = load i8, i8* %arrayidx.epil, align 1, !tbaa !5, !range !71
  %tobool.epil = icmp eq i8 %135, 0
  br i1 %tobool.epil, label %for.cond.cleanup, label %if.then3.epil

if.then3.epil:                                    ; preds = %for.body.epil
  %inc.epil = add nsw i64 %k.028.unr, 1
  %arrayidx7.epil = getelementptr inbounds i64, i64* %Out.addr.0, i64 %k.028.unr
  store i64 %storemerge27.unr, i64* %arrayidx7.epil, align 8, !tbaa !31
  br label %for.cond.cleanup

for.cond.cleanup:                                 ; preds = %for.cond.cleanup.loopexit.unr-lcssa, %for.body.epil, %if.then3.epil, %if.end
  %k.0.lcssa = phi i64 [ 0, %if.end ], [ %k.1.lcssa.ph, %for.cond.cleanup.loopexit.unr-lcssa ], [ %inc.epil, %if.then3.epil ], [ %k.028.unr, %for.body.epil ]
  %.fca.0.insert = insertvalue { i64*, i64 } undef, i64* %Out.addr.0, 0
  %.fca.1.insert = insertvalue { i64*, i64 } %.fca.0.insert, i64 %k.0.lcssa, 1
  ret { i64*, i64 } %.fca.1.insert

for.body:                                         ; preds = %for.inc.1, %for.body.preheader.new
  %k.028 = phi i64 [ 0, %for.body.preheader.new ], [ %k.1.1, %for.inc.1 ]
  %storemerge27 = phi i64 [ %s, %for.body.preheader.new ], [ %inc9.1, %for.inc.1 ]
  %niter = phi i64 [ %unroll_iter, %for.body.preheader.new ], [ %niter.nsub.1, %for.inc.1 ]
  %arrayidx = getelementptr inbounds i8, i8* %Fl, i64 %storemerge27
  %136 = load i8, i8* %arrayidx, align 1, !tbaa !5, !range !71
  %tobool = icmp eq i8 %136, 0
  br i1 %tobool, label %for.inc, label %if.then3

if.then3:                                         ; preds = %for.body
  %inc = add nsw i64 %k.028, 1
  %arrayidx7 = getelementptr inbounds i64, i64* %Out.addr.0, i64 %k.028
  store i64 %storemerge27, i64* %arrayidx7, align 8, !tbaa !31
  br label %for.inc

for.inc:                                          ; preds = %for.body, %if.then3
  %k.1 = phi i64 [ %inc, %if.then3 ], [ %k.028, %for.body ]
  %inc9 = add nsw i64 %storemerge27, 1
  %arrayidx.1 = getelementptr inbounds i8, i8* %Fl, i64 %inc9
  %137 = load i8, i8* %arrayidx.1, align 1, !tbaa !5, !range !71
  %tobool.1 = icmp eq i8 %137, 0
  br i1 %tobool.1, label %for.inc.1, label %if.then3.1

if.then3.1:                                       ; preds = %for.inc
  %inc.1 = add nsw i64 %k.1, 1
  %arrayidx7.1 = getelementptr inbounds i64, i64* %Out.addr.0, i64 %k.1
  store i64 %inc9, i64* %arrayidx7.1, align 8, !tbaa !31
  br label %for.inc.1

for.inc.1:                                        ; preds = %if.then3.1, %for.inc
  %k.1.1 = phi i64 [ %inc.1, %if.then3.1 ], [ %k.1, %for.inc ]
  %inc9.1 = add nsw i64 %storemerge27, 2
  %niter.nsub.1 = add i64 %niter, -2
  %niter.ncmp.1 = icmp eq i64 %niter.nsub.1, 0
  br i1 %niter.ncmp.1, label %for.cond.cleanup.loopexit.unr-lcssa, label %for.body
}

; Function Attrs: uwtable
define linkonce_odr i64 @_ZN8sequence4scanIllN5utils4addFIlEENS_4getAIllEEEET_PS6_T0_S8_T1_T2_S6_bb(i64* %Out, i64 %s, i64 %e, i64* %g.coerce, i64 %zero, i1 zeroext %inclusive, i1 zeroext %back) local_unnamed_addr #4 comdat personality i8* bitcast (i32 (...)* @__gxx_personality_v0 to i8*) {
entry:
  %sub = sub i64 %e, %s
  %sub2 = add nsw i64 %sub, -1
  %div = sdiv i64 %sub2, 1024
  %add = add nsw i64 %div, 1
  %cmp = icmp slt i64 %sub, 2049
  br i1 %cmp, label %if.then, label %pfor.detach.lr.ph

if.then:                                          ; preds = %entry
  %cmp110.i = icmp sgt i64 %e, %s
  br i1 %inclusive, label %if.then.i, label %if.else20.i

if.then.i:                                        ; preds = %if.then
  br i1 %back, label %if.then3.i, label %if.else.i

if.then3.i:                                       ; preds = %if.then.i
  br i1 %cmp110.i, label %for.body.i.preheader, label %cleanup

for.body.i.preheader:                             ; preds = %if.then3.i
  %0 = add i64 %e, -1
  %1 = sub i64 %0, %s
  %xtraiter = and i64 %sub, 3
  %lcmp.mod = icmp eq i64 %xtraiter, 0
  br i1 %lcmp.mod, label %for.body.i.prol.loopexit, label %for.body.i.prol.preheader

for.body.i.prol.preheader:                        ; preds = %for.body.i.preheader
  br label %for.body.i.prol

for.body.i.prol:                                  ; preds = %for.body.i.prol.preheader, %for.body.i.prol
  %i.0112.in.i.prol = phi i64 [ %i.0112.i.prol, %for.body.i.prol ], [ %e, %for.body.i.prol.preheader ]
  %r.0111.i.prol = phi i64 [ %add.i91.i.prol, %for.body.i.prol ], [ %zero, %for.body.i.prol.preheader ]
  %prol.iter = phi i64 [ %prol.iter.sub, %for.body.i.prol ], [ %xtraiter, %for.body.i.prol.preheader ]
  %i.0112.i.prol = add nsw i64 %i.0112.in.i.prol, -1
  %arrayidx.i.i.prol = getelementptr inbounds i64, i64* %g.coerce, i64 %i.0112.i.prol
  %2 = load i64, i64* %arrayidx.i.i.prol, align 8, !tbaa !31
  %add.i91.i.prol = add nsw i64 %2, %r.0111.i.prol
  %arrayidx.i.prol = getelementptr inbounds i64, i64* %Out, i64 %i.0112.i.prol
  store i64 %add.i91.i.prol, i64* %arrayidx.i.prol, align 8, !tbaa !31
  %prol.iter.sub = add nsw i64 %prol.iter, -1
  %prol.iter.cmp = icmp eq i64 %prol.iter.sub, 0
  br i1 %prol.iter.cmp, label %for.body.i.prol.loopexit.loopexit, label %for.body.i.prol, !llvm.loop !90

for.body.i.prol.loopexit.loopexit:                ; preds = %for.body.i.prol
  %3 = sub i64 %e, %xtraiter
  br label %for.body.i.prol.loopexit

for.body.i.prol.loopexit:                         ; preds = %for.body.i.prol.loopexit.loopexit, %for.body.i.preheader
  %i.0112.in.i.unr = phi i64 [ %e, %for.body.i.preheader ], [ %3, %for.body.i.prol.loopexit.loopexit ]
  %r.0111.i.unr = phi i64 [ %zero, %for.body.i.preheader ], [ %add.i91.i.prol, %for.body.i.prol.loopexit.loopexit ]
  %add.i91.i.lcssa.unr = phi i64 [ undef, %for.body.i.preheader ], [ %add.i91.i.prol, %for.body.i.prol.loopexit.loopexit ]
  %4 = icmp ult i64 %1, 3
  br i1 %4, label %cleanup, label %for.body.i.preheader386

for.body.i.preheader386:                          ; preds = %for.body.i.prol.loopexit
  br label %for.body.i

for.body.i:                                       ; preds = %for.body.i.preheader386, %for.body.i
  %i.0112.in.i = phi i64 [ %i.0112.i.3, %for.body.i ], [ %i.0112.in.i.unr, %for.body.i.preheader386 ]
  %r.0111.i = phi i64 [ %add.i91.i.3, %for.body.i ], [ %r.0111.i.unr, %for.body.i.preheader386 ]
  %i.0112.i = add nsw i64 %i.0112.in.i, -1
  %arrayidx.i.i = getelementptr inbounds i64, i64* %g.coerce, i64 %i.0112.i
  %5 = load i64, i64* %arrayidx.i.i, align 8, !tbaa !31
  %add.i91.i = add nsw i64 %5, %r.0111.i
  %arrayidx.i = getelementptr inbounds i64, i64* %Out, i64 %i.0112.i
  store i64 %add.i91.i, i64* %arrayidx.i, align 8, !tbaa !31
  %i.0112.i.1 = add nsw i64 %i.0112.in.i, -2
  %arrayidx.i.i.1 = getelementptr inbounds i64, i64* %g.coerce, i64 %i.0112.i.1
  %6 = load i64, i64* %arrayidx.i.i.1, align 8, !tbaa !31
  %add.i91.i.1 = add nsw i64 %6, %add.i91.i
  %arrayidx.i.1 = getelementptr inbounds i64, i64* %Out, i64 %i.0112.i.1
  store i64 %add.i91.i.1, i64* %arrayidx.i.1, align 8, !tbaa !31
  %i.0112.i.2 = add nsw i64 %i.0112.in.i, -3
  %arrayidx.i.i.2 = getelementptr inbounds i64, i64* %g.coerce, i64 %i.0112.i.2
  %7 = load i64, i64* %arrayidx.i.i.2, align 8, !tbaa !31
  %add.i91.i.2 = add nsw i64 %7, %add.i91.i.1
  %arrayidx.i.2 = getelementptr inbounds i64, i64* %Out, i64 %i.0112.i.2
  store i64 %add.i91.i.2, i64* %arrayidx.i.2, align 8, !tbaa !31
  %i.0112.i.3 = add nsw i64 %i.0112.in.i, -4
  %arrayidx.i.i.3 = getelementptr inbounds i64, i64* %g.coerce, i64 %i.0112.i.3
  %8 = load i64, i64* %arrayidx.i.i.3, align 8, !tbaa !31
  %add.i91.i.3 = add nsw i64 %8, %add.i91.i.2
  %arrayidx.i.3 = getelementptr inbounds i64, i64* %Out, i64 %i.0112.i.3
  store i64 %add.i91.i.3, i64* %arrayidx.i.3, align 8, !tbaa !31
  %cmp.i.3 = icmp sgt i64 %i.0112.i.3, %s
  br i1 %cmp.i.3, label %for.body.i, label %cleanup

if.else.i:                                        ; preds = %if.then.i
  br i1 %cmp110.i, label %for.body10.i.preheader, label %cleanup

for.body10.i.preheader:                           ; preds = %if.else.i
  %9 = add i64 %e, -1
  %10 = sub i64 %9, %s
  %xtraiter320 = and i64 %sub, 3
  %lcmp.mod321 = icmp eq i64 %xtraiter320, 0
  br i1 %lcmp.mod321, label %for.body10.i.prol.loopexit, label %for.body10.i.prol.preheader

for.body10.i.prol.preheader:                      ; preds = %for.body10.i.preheader
  br label %for.body10.i.prol

for.body10.i.prol:                                ; preds = %for.body10.i.prol.preheader, %for.body10.i.prol
  %i6.0115.i.prol = phi i64 [ %inc.i.prol, %for.body10.i.prol ], [ %s, %for.body10.i.prol.preheader ]
  %r.1114.i.prol = phi i64 [ %add.i88.i.prol, %for.body10.i.prol ], [ %zero, %for.body10.i.prol.preheader ]
  %prol.iter322 = phi i64 [ %prol.iter322.sub, %for.body10.i.prol ], [ %xtraiter320, %for.body10.i.prol.preheader ]
  %arrayidx.i90.i.prol = getelementptr inbounds i64, i64* %g.coerce, i64 %i6.0115.i.prol
  %11 = load i64, i64* %arrayidx.i90.i.prol, align 8, !tbaa !31
  %add.i88.i.prol = add nsw i64 %11, %r.1114.i.prol
  %arrayidx17.i.prol = getelementptr inbounds i64, i64* %Out, i64 %i6.0115.i.prol
  store i64 %add.i88.i.prol, i64* %arrayidx17.i.prol, align 8, !tbaa !31
  %inc.i.prol = add nsw i64 %i6.0115.i.prol, 1
  %prol.iter322.sub = add nsw i64 %prol.iter322, -1
  %prol.iter322.cmp = icmp eq i64 %prol.iter322.sub, 0
  br i1 %prol.iter322.cmp, label %for.body10.i.prol.loopexit.loopexit, label %for.body10.i.prol, !llvm.loop !91

for.body10.i.prol.loopexit.loopexit:              ; preds = %for.body10.i.prol
  %12 = add i64 %xtraiter320, %s
  br label %for.body10.i.prol.loopexit

for.body10.i.prol.loopexit:                       ; preds = %for.body10.i.prol.loopexit.loopexit, %for.body10.i.preheader
  %add.i88.i.lcssa.unr = phi i64 [ undef, %for.body10.i.preheader ], [ %add.i88.i.prol, %for.body10.i.prol.loopexit.loopexit ]
  %i6.0115.i.unr = phi i64 [ %s, %for.body10.i.preheader ], [ %12, %for.body10.i.prol.loopexit.loopexit ]
  %r.1114.i.unr = phi i64 [ %zero, %for.body10.i.preheader ], [ %add.i88.i.prol, %for.body10.i.prol.loopexit.loopexit ]
  %13 = icmp ult i64 %10, 3
  br i1 %13, label %cleanup, label %for.body10.i.preheader387

for.body10.i.preheader387:                        ; preds = %for.body10.i.prol.loopexit
  br label %for.body10.i

for.body10.i:                                     ; preds = %for.body10.i.preheader387, %for.body10.i
  %i6.0115.i = phi i64 [ %inc.i.3, %for.body10.i ], [ %i6.0115.i.unr, %for.body10.i.preheader387 ]
  %r.1114.i = phi i64 [ %add.i88.i.3, %for.body10.i ], [ %r.1114.i.unr, %for.body10.i.preheader387 ]
  %arrayidx.i90.i = getelementptr inbounds i64, i64* %g.coerce, i64 %i6.0115.i
  %14 = load i64, i64* %arrayidx.i90.i, align 8, !tbaa !31
  %add.i88.i = add nsw i64 %14, %r.1114.i
  %arrayidx17.i = getelementptr inbounds i64, i64* %Out, i64 %i6.0115.i
  store i64 %add.i88.i, i64* %arrayidx17.i, align 8, !tbaa !31
  %inc.i = add nsw i64 %i6.0115.i, 1
  %arrayidx.i90.i.1 = getelementptr inbounds i64, i64* %g.coerce, i64 %inc.i
  %15 = load i64, i64* %arrayidx.i90.i.1, align 8, !tbaa !31
  %add.i88.i.1 = add nsw i64 %15, %add.i88.i
  %arrayidx17.i.1 = getelementptr inbounds i64, i64* %Out, i64 %inc.i
  store i64 %add.i88.i.1, i64* %arrayidx17.i.1, align 8, !tbaa !31
  %inc.i.1 = add nsw i64 %i6.0115.i, 2
  %arrayidx.i90.i.2 = getelementptr inbounds i64, i64* %g.coerce, i64 %inc.i.1
  %16 = load i64, i64* %arrayidx.i90.i.2, align 8, !tbaa !31
  %add.i88.i.2 = add nsw i64 %16, %add.i88.i.1
  %arrayidx17.i.2 = getelementptr inbounds i64, i64* %Out, i64 %inc.i.1
  store i64 %add.i88.i.2, i64* %arrayidx17.i.2, align 8, !tbaa !31
  %inc.i.2 = add nsw i64 %i6.0115.i, 3
  %arrayidx.i90.i.3 = getelementptr inbounds i64, i64* %g.coerce, i64 %inc.i.2
  %17 = load i64, i64* %arrayidx.i90.i.3, align 8, !tbaa !31
  %add.i88.i.3 = add nsw i64 %17, %add.i88.i.2
  %arrayidx17.i.3 = getelementptr inbounds i64, i64* %Out, i64 %inc.i.2
  store i64 %add.i88.i.3, i64* %arrayidx17.i.3, align 8, !tbaa !31
  %inc.i.3 = add nsw i64 %i6.0115.i, 4
  %exitcond.i.3 = icmp eq i64 %inc.i.3, %e
  br i1 %exitcond.i.3, label %cleanup, label %for.body10.i

if.else20.i:                                      ; preds = %if.then
  br i1 %back, label %if.then22.i, label %if.else38.i

if.then22.i:                                      ; preds = %if.else20.i
  br i1 %cmp110.i, label %for.body28.i.preheader, label %cleanup

for.body28.i.preheader:                           ; preds = %if.then22.i
  %18 = add i64 %e, -1
  %19 = sub i64 %18, %s
  %xtraiter323 = and i64 %sub, 3
  %lcmp.mod324 = icmp eq i64 %xtraiter323, 0
  br i1 %lcmp.mod324, label %for.body28.i.prol.loopexit, label %for.body28.i.prol.preheader

for.body28.i.prol.preheader:                      ; preds = %for.body28.i.preheader
  br label %for.body28.i.prol

for.body28.i.prol:                                ; preds = %for.body28.i.prol.preheader, %for.body28.i.prol
  %i23.0120.in.i.prol = phi i64 [ %i23.0120.i.prol, %for.body28.i.prol ], [ %e, %for.body28.i.prol.preheader ]
  %r.2119.i.prol = phi i64 [ %add.i85.i.prol, %for.body28.i.prol ], [ %zero, %for.body28.i.prol.preheader ]
  %prol.iter325 = phi i64 [ %prol.iter325.sub, %for.body28.i.prol ], [ %xtraiter323, %for.body28.i.prol.preheader ]
  %i23.0120.i.prol = add nsw i64 %i23.0120.in.i.prol, -1
  %arrayidx.i87.i.prol = getelementptr inbounds i64, i64* %g.coerce, i64 %i23.0120.i.prol
  %20 = load i64, i64* %arrayidx.i87.i.prol, align 8, !tbaa !31
  %arrayidx32.i.prol = getelementptr inbounds i64, i64* %Out, i64 %i23.0120.i.prol
  store i64 %r.2119.i.prol, i64* %arrayidx32.i.prol, align 8, !tbaa !31
  %add.i85.i.prol = add nsw i64 %20, %r.2119.i.prol
  %prol.iter325.sub = add nsw i64 %prol.iter325, -1
  %prol.iter325.cmp = icmp eq i64 %prol.iter325.sub, 0
  br i1 %prol.iter325.cmp, label %for.body28.i.prol.loopexit.loopexit, label %for.body28.i.prol, !llvm.loop !92

for.body28.i.prol.loopexit.loopexit:              ; preds = %for.body28.i.prol
  %21 = sub i64 %e, %xtraiter323
  br label %for.body28.i.prol.loopexit

for.body28.i.prol.loopexit:                       ; preds = %for.body28.i.prol.loopexit.loopexit, %for.body28.i.preheader
  %i23.0120.in.i.unr = phi i64 [ %e, %for.body28.i.preheader ], [ %21, %for.body28.i.prol.loopexit.loopexit ]
  %r.2119.i.unr = phi i64 [ %zero, %for.body28.i.preheader ], [ %add.i85.i.prol, %for.body28.i.prol.loopexit.loopexit ]
  %add.i85.i.lcssa.unr = phi i64 [ undef, %for.body28.i.preheader ], [ %add.i85.i.prol, %for.body28.i.prol.loopexit.loopexit ]
  %22 = icmp ult i64 %19, 3
  br i1 %22, label %cleanup, label %for.body28.i.preheader389

for.body28.i.preheader389:                        ; preds = %for.body28.i.prol.loopexit
  br label %for.body28.i

for.body28.i:                                     ; preds = %for.body28.i.preheader389, %for.body28.i
  %i23.0120.in.i = phi i64 [ %i23.0120.i.3, %for.body28.i ], [ %i23.0120.in.i.unr, %for.body28.i.preheader389 ]
  %r.2119.i = phi i64 [ %add.i85.i.3, %for.body28.i ], [ %r.2119.i.unr, %for.body28.i.preheader389 ]
  %i23.0120.i = add nsw i64 %i23.0120.in.i, -1
  %arrayidx.i87.i = getelementptr inbounds i64, i64* %g.coerce, i64 %i23.0120.i
  %23 = load i64, i64* %arrayidx.i87.i, align 8, !tbaa !31
  %arrayidx32.i = getelementptr inbounds i64, i64* %Out, i64 %i23.0120.i
  store i64 %r.2119.i, i64* %arrayidx32.i, align 8, !tbaa !31
  %add.i85.i = add nsw i64 %23, %r.2119.i
  %i23.0120.i.1 = add nsw i64 %i23.0120.in.i, -2
  %arrayidx.i87.i.1 = getelementptr inbounds i64, i64* %g.coerce, i64 %i23.0120.i.1
  %24 = load i64, i64* %arrayidx.i87.i.1, align 8, !tbaa !31
  %arrayidx32.i.1 = getelementptr inbounds i64, i64* %Out, i64 %i23.0120.i.1
  store i64 %add.i85.i, i64* %arrayidx32.i.1, align 8, !tbaa !31
  %add.i85.i.1 = add nsw i64 %24, %add.i85.i
  %i23.0120.i.2 = add nsw i64 %i23.0120.in.i, -3
  %arrayidx.i87.i.2 = getelementptr inbounds i64, i64* %g.coerce, i64 %i23.0120.i.2
  %25 = load i64, i64* %arrayidx.i87.i.2, align 8, !tbaa !31
  %arrayidx32.i.2 = getelementptr inbounds i64, i64* %Out, i64 %i23.0120.i.2
  store i64 %add.i85.i.1, i64* %arrayidx32.i.2, align 8, !tbaa !31
  %add.i85.i.2 = add nsw i64 %25, %add.i85.i.1
  %i23.0120.i.3 = add nsw i64 %i23.0120.in.i, -4
  %arrayidx.i87.i.3 = getelementptr inbounds i64, i64* %g.coerce, i64 %i23.0120.i.3
  %26 = load i64, i64* %arrayidx.i87.i.3, align 8, !tbaa !31
  %arrayidx32.i.3 = getelementptr inbounds i64, i64* %Out, i64 %i23.0120.i.3
  store i64 %add.i85.i.2, i64* %arrayidx32.i.3, align 8, !tbaa !31
  %add.i85.i.3 = add nsw i64 %26, %add.i85.i.2
  %cmp26.i.3 = icmp sgt i64 %i23.0120.i.3, %s
  br i1 %cmp26.i.3, label %for.body28.i, label %cleanup

if.else38.i:                                      ; preds = %if.else20.i
  br i1 %cmp110.i, label %for.body43.i.preheader, label %cleanup

for.body43.i.preheader:                           ; preds = %if.else38.i
  %27 = add i64 %e, -1
  %28 = sub i64 %27, %s
  %xtraiter326 = and i64 %sub, 3
  %lcmp.mod327 = icmp eq i64 %xtraiter326, 0
  br i1 %lcmp.mod327, label %for.body43.i.prol.loopexit, label %for.body43.i.prol.preheader

for.body43.i.prol.preheader:                      ; preds = %for.body43.i.preheader
  br label %for.body43.i.prol

for.body43.i.prol:                                ; preds = %for.body43.i.prol.preheader, %for.body43.i.prol
  %i39.0124.i.prol = phi i64 [ %inc52.i.prol, %for.body43.i.prol ], [ %s, %for.body43.i.prol.preheader ]
  %r.3123.i.prol = phi i64 [ %add.i.i.prol, %for.body43.i.prol ], [ %zero, %for.body43.i.prol.preheader ]
  %prol.iter328 = phi i64 [ %prol.iter328.sub, %for.body43.i.prol ], [ %xtraiter326, %for.body43.i.prol.preheader ]
  %arrayidx.i84.i.prol = getelementptr inbounds i64, i64* %g.coerce, i64 %i39.0124.i.prol
  %29 = load i64, i64* %arrayidx.i84.i.prol, align 8, !tbaa !31
  %arrayidx48.i.prol = getelementptr inbounds i64, i64* %Out, i64 %i39.0124.i.prol
  store i64 %r.3123.i.prol, i64* %arrayidx48.i.prol, align 8, !tbaa !31
  %add.i.i.prol = add nsw i64 %29, %r.3123.i.prol
  %inc52.i.prol = add nsw i64 %i39.0124.i.prol, 1
  %prol.iter328.sub = add nsw i64 %prol.iter328, -1
  %prol.iter328.cmp = icmp eq i64 %prol.iter328.sub, 0
  br i1 %prol.iter328.cmp, label %for.body43.i.prol.loopexit.loopexit, label %for.body43.i.prol, !llvm.loop !93

for.body43.i.prol.loopexit.loopexit:              ; preds = %for.body43.i.prol
  %30 = add i64 %xtraiter326, %s
  br label %for.body43.i.prol.loopexit

for.body43.i.prol.loopexit:                       ; preds = %for.body43.i.prol.loopexit.loopexit, %for.body43.i.preheader
  %add.i.i.lcssa.unr = phi i64 [ undef, %for.body43.i.preheader ], [ %add.i.i.prol, %for.body43.i.prol.loopexit.loopexit ]
  %i39.0124.i.unr = phi i64 [ %s, %for.body43.i.preheader ], [ %30, %for.body43.i.prol.loopexit.loopexit ]
  %r.3123.i.unr = phi i64 [ %zero, %for.body43.i.preheader ], [ %add.i.i.prol, %for.body43.i.prol.loopexit.loopexit ]
  %31 = icmp ult i64 %28, 3
  br i1 %31, label %cleanup, label %for.body43.i.preheader391

for.body43.i.preheader391:                        ; preds = %for.body43.i.prol.loopexit
  br label %for.body43.i

for.body43.i:                                     ; preds = %for.body43.i.preheader391, %for.body43.i
  %i39.0124.i = phi i64 [ %inc52.i.3, %for.body43.i ], [ %i39.0124.i.unr, %for.body43.i.preheader391 ]
  %r.3123.i = phi i64 [ %add.i.i.3, %for.body43.i ], [ %r.3123.i.unr, %for.body43.i.preheader391 ]
  %arrayidx.i84.i = getelementptr inbounds i64, i64* %g.coerce, i64 %i39.0124.i
  %32 = load i64, i64* %arrayidx.i84.i, align 8, !tbaa !31
  %arrayidx48.i = getelementptr inbounds i64, i64* %Out, i64 %i39.0124.i
  store i64 %r.3123.i, i64* %arrayidx48.i, align 8, !tbaa !31
  %add.i.i = add nsw i64 %32, %r.3123.i
  %inc52.i = add nsw i64 %i39.0124.i, 1
  %arrayidx.i84.i.1 = getelementptr inbounds i64, i64* %g.coerce, i64 %inc52.i
  %33 = load i64, i64* %arrayidx.i84.i.1, align 8, !tbaa !31
  %arrayidx48.i.1 = getelementptr inbounds i64, i64* %Out, i64 %inc52.i
  store i64 %add.i.i, i64* %arrayidx48.i.1, align 8, !tbaa !31
  %add.i.i.1 = add nsw i64 %33, %add.i.i
  %inc52.i.1 = add nsw i64 %i39.0124.i, 2
  %arrayidx.i84.i.2 = getelementptr inbounds i64, i64* %g.coerce, i64 %inc52.i.1
  %34 = load i64, i64* %arrayidx.i84.i.2, align 8, !tbaa !31
  %arrayidx48.i.2 = getelementptr inbounds i64, i64* %Out, i64 %inc52.i.1
  store i64 %add.i.i.1, i64* %arrayidx48.i.2, align 8, !tbaa !31
  %add.i.i.2 = add nsw i64 %34, %add.i.i.1
  %inc52.i.2 = add nsw i64 %i39.0124.i, 3
  %arrayidx.i84.i.3 = getelementptr inbounds i64, i64* %g.coerce, i64 %inc52.i.2
  %35 = load i64, i64* %arrayidx.i84.i.3, align 8, !tbaa !31
  %arrayidx48.i.3 = getelementptr inbounds i64, i64* %Out, i64 %inc52.i.2
  store i64 %add.i.i.2, i64* %arrayidx48.i.3, align 8, !tbaa !31
  %add.i.i.3 = add nsw i64 %35, %add.i.i.2
  %inc52.i.3 = add nsw i64 %i39.0124.i, 4
  %exitcond129.i.3 = icmp eq i64 %inc52.i.3, %e
  br i1 %exitcond129.i.3, label %cleanup, label %for.body43.i

pfor.detach.lr.ph:                                ; preds = %entry
  %36 = tail call i32 @__cilkrts_get_nworkers()
  %__cilkrts_wc8372 = shl i32 %36, 3
  %mul = shl nsw i64 %add, 3
  %call9 = tail call noalias i8* @malloc(i64 %mul) #2
  %37 = bitcast i8* %call9 to i64*
  %38 = sub i64 -2, %s
  %39 = sub i64 -1025, %s
  %40 = xor i64 %e, -1
  %41 = icmp sgt i64 %div, 0
  %smax370 = select i1 %41, i64 %div, i64 0
  %42 = zext i32 %__cilkrts_wc8372 to i64
  %43 = add nsw i64 %smax370, -1
  %44 = add nsw i64 %43, %42
  %45 = udiv i64 %44, %42
  %46 = icmp ult i64 %45, 2048
  %47 = select i1 %46, i64 %45, i64 2048
  call fastcc void @_ZN8sequence4scanIllN5utils4addFIlEENS_4getAIllEEEET_PS6_T0_S8_T1_T2_S6_bb_pfor.detach.ls(i64 0, i64 %smax370, i64 %47, i64 %38, i64 %39, i64 %40, i64 %s, i64 %e, i64* %g.coerce, i64* %37)
  %call57 = call i64 @_ZN8sequence4scanIllN5utils4addFIlEENS_4getAIllEEEET_PS6_T0_S8_T1_T2_S6_bb(i64* %37, i64 0, i64 %add, i64* %37, i64 %zero, i1 zeroext false, i1 zeroext %back)
  %48 = xor i64 %s, -1
  call fastcc void @_ZN8sequence4scanIllN5utils4addFIlEENS_4getAIllEEEET_PS6_T0_S8_T1_T2_S6_bb_pfor.detach77.ls(i64 0, i64 %smax370, i64 %47, i64* %g.coerce, i64* %Out, i1 %back, i64 %39, i64 %40, i64 %48, i64 %38, i64 %s, i64 %e, i64* %37, i1 %inclusive)
  tail call void @free(i8* %call9) #2
  br label %cleanup

cleanup:                                          ; preds = %for.body43.i, %for.body28.i, %for.body10.i, %for.body.i, %for.body43.i.prol.loopexit, %for.body28.i.prol.loopexit, %for.body10.i.prol.loopexit, %for.body.i.prol.loopexit, %if.else38.i, %if.then22.i, %if.else.i, %if.then3.i, %pfor.detach.lr.ph
  %retval.0 = phi i64 [ %call57, %pfor.detach.lr.ph ], [ %zero, %if.then3.i ], [ %zero, %if.else.i ], [ %zero, %if.then22.i ], [ %zero, %if.else38.i ], [ %add.i91.i.lcssa.unr, %for.body.i.prol.loopexit ], [ %add.i88.i.lcssa.unr, %for.body10.i.prol.loopexit ], [ %add.i85.i.lcssa.unr, %for.body28.i.prol.loopexit ], [ %add.i.i.lcssa.unr, %for.body43.i.prol.loopexit ], [ %add.i91.i.3, %for.body.i ], [ %add.i88.i.3, %for.body10.i ], [ %add.i85.i.3, %for.body28.i ], [ %add.i.i.3, %for.body43.i ]
  ret i64 %retval.0
}

declare %"class.std::basic_filebuf"* @_ZNSt13basic_filebufIcSt11char_traitsIcEE5closeEv(%"class.std::basic_filebuf"*) local_unnamed_addr #0

; Function Attrs: nounwind
declare void @_ZNSt8ios_baseD2Ev(%"class.std::ios_base"*) unnamed_addr #1

; Function Attrs: nounwind readonly
declare zeroext i1 @_ZNKSt12__basic_fileIcE7is_openEv(%"class.std::__basic_file"*) local_unnamed_addr #14

; Function Attrs: nounwind uwtable
declare void @_ZNSt14basic_ifstreamIcSt11char_traitsIcEED2Ev(%"class.std::basic_ifstream"*, i8**) unnamed_addr #7 align 2

; Function Attrs: nounwind
declare i32 @_ZNKSt7__cxx1112basic_stringIcSt11char_traitsIcESaIcEE7compareEPKc(%"class.std::__cxx11::basic_string"*, i8*) local_unnamed_addr #1

; Function Attrs: uwtable
define linkonce_odr void @_Z8randPermIiEvPT_i(i32* %A, i32 %n) local_unnamed_addr #4 comdat personality i8* bitcast (i32 (...)* @__gxx_personality_v0 to i8*) {
entry:
  %conv = sext i32 %n to i64
  %mul = shl nsw i64 %conv, 2
  %call = tail call noalias i8* @malloc(i64 %mul) #2
  %0 = bitcast i8* %call to i32*
  %call3 = tail call noalias i8* @malloc(i64 %mul) #2
  %1 = bitcast i8* %call3 to i32*
  %call6 = tail call noalias i8* @malloc(i64 %mul) #2
  %2 = bitcast i8* %call6 to i32*
  %cmp = icmp slt i32 %n, 100000
  br i1 %cmp, label %if.then, label %pfor.detach.preheader

pfor.detach.preheader:                            ; preds = %entry
  %3 = tail call i32 @__cilkrts_get_nworkers()
  %__cilkrts_wc8327 = shl i32 %3, 3
  %4 = add nsw i64 %conv, -1
  %5 = zext i32 %__cilkrts_wc8327 to i64
  %6 = add nsw i64 %5, -1
  %7 = add nsw i64 %6, %4
  %8 = udiv i64 %7, %5
  %9 = icmp ult i64 %8, 2048
  %10 = select i1 %9, i64 %8, i64 2048
  call fastcc void @_Z8randPermIiEvPT_i_pfor.detach.ls(i64 0, i64 %4, i64 %10, i32* %1, i32* %0, i32* %2)
  %div34332 = udiv i32 %n, 100
  %add35 = add nuw nsw i32 %div34332, 1
  %11 = zext i32 %add35 to i64
  %12 = shl nuw nsw i32 %add35, 2
  %mul37 = zext i32 %12 to i64
  %call38 = tail call noalias i8* @malloc(i64 %mul37) #2
  %13 = bitcast i8* %call38 to i32*
  %call41 = tail call noalias i8* @malloc(i64 %11) #2
  br label %while.body

if.then:                                          ; preds = %entry
  %cmp7305 = icmp sgt i32 %n, 1
  br i1 %cmp7305, label %for.body.preheader, label %cleanup

for.body.preheader:                               ; preds = %if.then
  br label %for.body

for.body:                                         ; preds = %for.body.preheader, %for.body
  %indvars.iv = phi i64 [ %indvars.iv.next, %for.body ], [ %conv, %for.body.preheader ]
  %i.0307.in = phi i32 [ %i.0307, %for.body ], [ %n, %for.body.preheader ]
  %indvars.iv.next = add nsw i64 %indvars.iv, -1
  %i.0307 = add nsw i32 %i.0307.in, -1
  %add.i = add i32 %i.0307.in, 2127912213
  %14 = trunc i64 %indvars.iv.next to i32
  %shl.i = shl i32 %14, 12
  %add1.i = add i32 %add.i, %shl.i
  %xor.i = xor i32 %add1.i, -949894596
  %shr.i = lshr i32 %add1.i, 19
  %xor2.i = xor i32 %xor.i, %shr.i
  %add3.i = add i32 %xor2.i, 374761393
  %shl4.i = shl i32 %xor2.i, 5
  %add5.i = add i32 %add3.i, %shl4.i
  %add6.i = add i32 %add5.i, -744332180
  %shl7.i = shl i32 %add5.i, 9
  %xor8.i = xor i32 %add6.i, %shl7.i
  %add9.i = add i32 %xor8.i, -42973499
  %shl10.i = shl i32 %xor8.i, 3
  %add11.i = add i32 %add9.i, %shl10.i
  %xor12.i = xor i32 %add11.i, -1252372727
  %shr13.i = lshr i32 %add11.i, 16
  %xor14.i = xor i32 %xor12.i, %shr13.i
  %rem = urem i32 %xor14.i, %i.0307.in
  %idxprom = zext i32 %rem to i64
  %arrayidx = getelementptr inbounds i32, i32* %A, i64 %idxprom
  %arrayidx10 = getelementptr inbounds i32, i32* %A, i64 %indvars.iv.next
  %15 = load i32, i32* %arrayidx, align 4, !tbaa !85
  %16 = load i32, i32* %arrayidx10, align 4, !tbaa !85
  store i32 %16, i32* %arrayidx, align 4, !tbaa !85
  store i32 %15, i32* %arrayidx10, align 4, !tbaa !85
  %cmp7 = icmp sgt i64 %indvars.iv, 2
  br i1 %cmp7, label %for.body, label %cleanup

while.body:                                       ; preds = %pfor.detach.preheader, %while.body
  %end.0311 = phi i32 [ %add144, %while.body ], [ %n, %pfor.detach.preheader ]
  %div44303 = udiv i32 %end.0311, 100
  %add45 = add nuw nsw i32 %div44303, 1
  %sub46 = sub nsw i32 %end.0311, %add45
  %17 = zext i32 %div44303 to i64
  %18 = add nsw i64 %6, %17
  %19 = udiv i64 %18, %5
  %20 = icmp ult i64 %19, 2048
  %21 = select i1 %20, i64 %19, i64 2048
  call fastcc void @_Z8randPermIiEvPT_i_pfor.detach58.ls(i64 0, i64 %17, i64 %21, i32 %sub46, i32* %0, i32* %1, i32* %2)
  tail call fastcc void @_Z8randPermIiEvPT_i_pfor.detach100.ls(i64 0, i64 %17, i64 %21, i32 %sub46, i32* %0, i32* %1, i8* %call41, i32* %13, i32* %2, i32* %A)
  %idx.ext = sext i32 %sub46 to i64
  %add.ptr = getelementptr inbounds i32, i32* %0, i64 %idx.ext
  %call.i284 = call { i32*, i64 } @_ZN8sequence4packIiiNS_4getAIiiEEEE4_seqIT_EPS4_PbT0_S8_T1_(i32* %add.ptr, i8* %call41, i32 0, i32 %add45, i32* %13)
  %22 = extractvalue { i32*, i64 } %call.i284, 1
  %conv.i = trunc i64 %22 to i32
  %add144 = add nsw i32 %sub46, %conv.i
  %cmp42 = icmp sgt i32 %add144, 0
  br i1 %cmp42, label %while.body, label %while.end

while.end:                                        ; preds = %while.body
  tail call void @free(i8* %call3) #2
  tail call void @free(i8* %call) #2
  tail call void @free(i8* %call6) #2
  tail call void @free(i8* %call38) #2
  tail call void @free(i8* %call41) #2
  br label %cleanup

cleanup:                                          ; preds = %for.body, %if.then, %while.end
  ret void
}

; Function Attrs: uwtable
define linkonce_odr void @_Z10sampleSortIiSt4lessIiEiEvPT_T1_T0_(i32* %A, i32 %n) local_unnamed_addr #4 comdat personality i8* bitcast (i32 (...)* @__gxx_personality_v0 to i8*) {
entry:
  %0 = tail call i32 @__cilkrts_get_nworkers()
  %__cilkrts_wc8435 = shl i32 %0, 3
  %ref.tmp = alloca %struct.transpose, align 8
  %ref.tmp139 = alloca %struct.blockTrans, align 8
  %cmp = icmp slt i32 %n, 1000
  br i1 %cmp, label %if.then, label %if.else

if.then:                                          ; preds = %entry
  invoke void @_Z9quickSortIiSt4lessIiEiEvPT_T1_T0_(i32* %A, i32 %n)
          to label %if.end222 unwind label %lpad

lpad:                                             ; preds = %if.then
  %1 = landingpad { i8*, i32 }
          cleanup
  %2 = extractvalue { i8*, i32 } %1, 0
  %3 = extractvalue { i8*, i32 } %1, 1
  br label %eh.resume

if.else:                                          ; preds = %entry
  %conv.i = sitofp i32 %n to double
  %sqrt = tail call double @sqrt(double %conv.i) #1
  %4 = tail call double @llvm.fabs.f64(double %sqrt)
  %5 = tail call double @llvm.ceil.f64(double %4)
  %conv = fptosi double %5 to i64
  %div = sdiv i64 %conv, 2
  %add = add nsw i64 %div, 1
  %sub = add nsw i32 %n, -1
  %conv3 = sext i32 %sub to i64
  %div4 = sdiv i64 %conv3, %add
  %add5 = add nsw i64 %div4, 1
  %conv8 = trunc i64 %add to i32
  %sext = mul i64 %add, 42949672960
  %conv9 = ashr exact i64 %sext, 32
  %mul10 = ashr exact i64 %sext, 30
  %call11 = tail call noalias i8* @malloc(i64 %mul10) #2
  %6 = bitcast i8* %call11 to i32*
  %cmp16404 = icmp sgt i64 %sext, 0
  br i1 %cmp16404, label %pfor.detach.lr.ph, label %sync.continue

pfor.detach.lr.ph:                                ; preds = %if.else
  %conv24 = sext i32 %n to i64
  %7 = icmp sgt i64 %conv9, 1
  %smax = select i1 %7, i64 %conv9, i64 1
  %8 = add nsw i64 %smax, -1
  %9 = zext i32 %__cilkrts_wc8435 to i64
  %10 = add nsw i64 %9, -1
  %11 = add nsw i64 %10, %8
  %12 = udiv i64 %11, %9
  %13 = icmp ult i64 %12, 2048
  %14 = select i1 %13, i64 %12, i64 2048
  invoke fastcc void @_Z10sampleSortIiSt4lessIiEiEvPT_T1_T0__pfor.detach.ls(i64 0, i64 %8, i64 %14, i64 %conv24, i32* %A, i32* %6)
          to label %sync.continue unwind label %lpad26

lpad26:                                           ; preds = %pfor.detach.lr.ph
  %15 = landingpad { i8*, i32 }
          cleanup
  %16 = extractvalue { i8*, i32 } %15, 0
  %17 = extractvalue { i8*, i32 } %15, 1
  br label %eh.resume

sync.continue:                                    ; preds = %pfor.detach.lr.ph, %if.else
  invoke void @_Z9quickSortIiSt4lessIiElEvPT_T1_T0_(i32* %6, i64 %conv9)
          to label %invoke.cont31 unwind label %lpad30

invoke.cont31:                                    ; preds = %sync.continue
  %sub32 = shl i64 %add, 32
  %sext377 = add i64 %sub32, -4294967296
  %conv33 = ashr exact i64 %sext377, 32
  %mul34 = ashr exact i64 %sext377, 30
  %call35 = tail call noalias i8* @malloc(i64 %mul34) #2
  %18 = bitcast i8* %call35 to i32*
  %cmp47402 = icmp sgt i64 %sext377, 0
  br i1 %cmp47402, label %pfor.detach49.preheader, label %sync.continue60

pfor.detach49.preheader:                          ; preds = %invoke.cont31
  %19 = icmp sgt i64 %conv33, 1
  %smax431 = select i1 %19, i64 %conv33, i64 1
  %20 = add nsw i64 %smax431, -1
  %21 = zext i32 %__cilkrts_wc8435 to i64
  %22 = add nsw i64 %21, -1
  %23 = add nsw i64 %22, %20
  %24 = udiv i64 %23, %21
  %25 = icmp ult i64 %24, 2048
  %26 = select i1 %25, i64 %24, i64 2048
  tail call fastcc void @_Z10sampleSortIiSt4lessIiEiEvPT_T1_T0__pfor.detach49.ls(i64 0, i64 %20, i64 %26, i32* %6, i32* %18)
  br label %sync.continue60

lpad30:                                           ; preds = %sync.continue
  %27 = landingpad { i8*, i32 }
          cleanup
  %28 = extractvalue { i8*, i32 } %27, 0
  %29 = extractvalue { i8*, i32 } %27, 1
  br label %eh.resume

sync.continue60:                                  ; preds = %invoke.cont31, %pfor.detach49.preheader
  tail call void @free(i8* %call11) #2
  %conv62 = ashr exact i64 %sub32, 32
  %mul63 = mul nsw i64 %conv62, %add
  %mul64 = shl i64 %mul63, 2
  %call65 = tail call noalias i8* @malloc(i64 %mul64) #2
  %30 = bitcast i8* %call65 to i32*
  %cmp75400 = icmp slt i64 %conv, -1
  br i1 %cmp75400, label %sync.continue110, label %pfor.detach77.lr.ph

pfor.detach77.lr.ph:                              ; preds = %sync.continue60
  %conv85 = sext i32 %n to i64
  %cmp1.i = icmp eq i64 %sext377, 0
  %add.ptr2.i = getelementptr inbounds i32, i32* %18, i64 %conv33
  %cmp380.i = icmp slt i64 %sext377, 0
  %31 = add nsw i64 %mul34, 4
  %32 = zext i32 %__cilkrts_wc8435 to i64
  %33 = add nsw i64 %32, -1
  %34 = add nsw i64 %33, %div
  %35 = udiv i64 %34, %32
  %36 = icmp ult i64 %35, 2048
  %37 = select i1 %36, i64 %35, i64 2048
  invoke fastcc void @_Z10sampleSortIiSt4lessIiEiEvPT_T1_T0__pfor.detach77.ls(i64 0, i64 %div, i64 %37, i64 %add5, i64 %div, i64 %conv85, i32* %A, i64 %conv62, i32* %30, i1 %cmp1.i, i1 %cmp380.i, i64 %31, i32* %18, i32* %add.ptr2.i)
          to label %sync.continue110 unwind label %lpad103.loopexit

lpad103.loopexit:                                 ; preds = %pfor.detach77.lr.ph
  %lpad.loopexit389 = landingpad { i8*, i32 }
          cleanup
  %38 = extractvalue { i8*, i32 } %lpad.loopexit389, 0
  %39 = extractvalue { i8*, i32 } %lpad.loopexit389, 1
  br label %eh.resume

sync.continue110:                                 ; preds = %sync.continue60, %pfor.detach77.lr.ph
  %mul113 = shl i64 %add5, 2
  %mul114 = mul i64 %mul113, %add
  %call115 = tail call noalias i8* @malloc(i64 %mul114) #2
  %40 = bitcast i8* %call115 to i32*
  %call119 = tail call noalias i8* @malloc(i64 %mul64) #2
  %41 = bitcast i8* %call119 to i32*
  %call123 = tail call noalias i8* @malloc(i64 %mul64) #2
  %42 = bitcast i8* %call123 to i32*
  %call.i381382 = invoke i32 @_ZN8sequence4scanIilSt4plusIiENS_4getAIilEEEET_PS5_T0_S7_T1_T2_S5_bb(i32* %41, i64 0, i64 %mul63, i32* %30, i32 0, i1 zeroext false, i1 zeroext false)
          to label %invoke.cont128 unwind label %lpad127

invoke.cont128:                                   ; preds = %sync.continue110
  %43 = bitcast %struct.transpose* %ref.tmp to i8*
  call void @llvm.lifetime.start.p0i8(i64 16, i8* nonnull %43) #2
  %44 = bitcast %struct.transpose* %ref.tmp to i8**
  store i8* %call65, i8** %44, align 8, !tbaa !94
  %B.i = getelementptr inbounds %struct.transpose, %struct.transpose* %ref.tmp, i64 0, i32 1
  %45 = bitcast i32** %B.i to i8**
  store i8* %call123, i8** %45, align 8, !tbaa !96
  invoke void @_ZN9transposeIiiE6transREiiiiii(%struct.transpose* nonnull %ref.tmp, i32 0, i32 %conv8, i32 %conv8, i32 0, i32 %conv8, i32 %conv8)
          to label %invoke.cont133 unwind label %lpad130

invoke.cont133:                                   ; preds = %invoke.cont128
  call void @llvm.lifetime.end.p0i8(i64 16, i8* nonnull %43) #2
  %call.i385386 = invoke i32 @_ZN8sequence4scanIilSt4plusIiENS_4getAIilEEEET_PS5_T0_S7_T1_T2_S5_bb(i32* %42, i64 0, i64 %mul63, i32* %42, i32 0, i1 zeroext false, i1 zeroext false)
          to label %invoke.cont137 unwind label %lpad127

invoke.cont137:                                   ; preds = %invoke.cont133
  %46 = bitcast %struct.blockTrans* %ref.tmp139 to i8*
  call void @llvm.lifetime.start.p0i8(i64 40, i8* nonnull %46) #2
  %A.i383 = getelementptr inbounds %struct.blockTrans, %struct.blockTrans* %ref.tmp139, i64 0, i32 0
  store i32* %A, i32** %A.i383, align 8, !tbaa !97
  %B.i384 = getelementptr inbounds %struct.blockTrans, %struct.blockTrans* %ref.tmp139, i64 0, i32 1
  %47 = bitcast i32** %B.i384 to i8**
  store i8* %call115, i8** %47, align 8, !tbaa !99
  %OA.i = getelementptr inbounds %struct.blockTrans, %struct.blockTrans* %ref.tmp139, i64 0, i32 2
  %48 = bitcast i32** %OA.i to i8**
  store i8* %call119, i8** %48, align 8, !tbaa !100
  %OB.i = getelementptr inbounds %struct.blockTrans, %struct.blockTrans* %ref.tmp139, i64 0, i32 3
  %49 = bitcast i32** %OB.i to i8**
  store i8* %call123, i8** %49, align 8, !tbaa !101
  %L.i = getelementptr inbounds %struct.blockTrans, %struct.blockTrans* %ref.tmp139, i64 0, i32 4
  %50 = bitcast i32** %L.i to i8**
  store i8* %call65, i8** %50, align 8, !tbaa !102
  invoke void @_ZN10blockTransIiiE6transREiiiiii(%struct.blockTrans* nonnull %ref.tmp139, i32 0, i32 %conv8, i32 %conv8, i32 0, i32 %conv8, i32 %conv8)
          to label %invoke.cont143 unwind label %lpad140

invoke.cont143:                                   ; preds = %invoke.cont137
  call void @llvm.lifetime.end.p0i8(i64 40, i8* nonnull %46) #2
  call void @free(i8* %call119) #2
  call void @free(i8* %call65) #2
  %cmp154397 = icmp sgt i64 %sub32, 0
  br i1 %cmp154397, label %pfor.detach156.preheader, label %sync.continue209

pfor.detach156.preheader:                         ; preds = %invoke.cont143
  %51 = icmp sgt i64 %conv62, 1
  %smax434 = select i1 %51, i64 %conv62, i64 1
  %52 = add nsw i64 %smax434, -1
  %53 = zext i32 %__cilkrts_wc8435 to i64
  %54 = add nsw i64 %53, -1
  %55 = add nsw i64 %54, %52
  %56 = udiv i64 %55, %53
  %57 = icmp ult i64 %56, 2048
  %58 = select i1 %57, i64 %56, i64 2048
  invoke fastcc void @_Z10sampleSortIiSt4lessIiEiEvPT_T1_T0__pfor.detach156.ls(i64 0, i64 %52, i64 %58, i64 %add, i32* %42, i64 %conv33, i32 %n, i32* %18, i32* %40, i32* %A, i8* %call115)
          to label %sync.continue209 unwind label %lpad202.loopexit

lpad127:                                          ; preds = %invoke.cont133, %sync.continue110
  %59 = landingpad { i8*, i32 }
          cleanup
  %60 = extractvalue { i8*, i32 } %59, 0
  %61 = extractvalue { i8*, i32 } %59, 1
  br label %eh.resume

lpad130:                                          ; preds = %invoke.cont128
  %62 = landingpad { i8*, i32 }
          cleanup
  %63 = extractvalue { i8*, i32 } %62, 0
  %64 = extractvalue { i8*, i32 } %62, 1
  call void @llvm.lifetime.end.p0i8(i64 16, i8* nonnull %43) #2
  br label %eh.resume

lpad140:                                          ; preds = %invoke.cont137
  %65 = landingpad { i8*, i32 }
          cleanup
  %66 = extractvalue { i8*, i32 } %65, 0
  %67 = extractvalue { i8*, i32 } %65, 1
  call void @llvm.lifetime.end.p0i8(i64 40, i8* nonnull %46) #2
  br label %eh.resume

lpad202.loopexit:                                 ; preds = %pfor.detach156.preheader
  %lpad.loopexit = landingpad { i8*, i32 }
          cleanup
  %68 = extractvalue { i8*, i32 } %lpad.loopexit, 0
  %69 = extractvalue { i8*, i32 } %lpad.loopexit, 1
  br label %eh.resume

sync.continue209:                                 ; preds = %pfor.detach156.preheader, %invoke.cont143
  call void @free(i8* %call35) #2
  call void @free(i8* %call123) #2
  call void @free(i8* %call115) #2
  br label %if.end222

if.end222:                                        ; preds = %if.then, %sync.continue209
  ret void

eh.resume:                                        ; preds = %lpad202.loopexit, %lpad103.loopexit, %lpad26, %lpad30, %lpad127, %lpad130, %lpad140, %lpad
  %ehselector.slot.3 = phi i32 [ %3, %lpad ], [ %29, %lpad30 ], [ %17, %lpad26 ], [ %39, %lpad103.loopexit ], [ %67, %lpad140 ], [ %61, %lpad127 ], [ %64, %lpad130 ], [ %69, %lpad202.loopexit ]
  %exn.slot.3 = phi i8* [ %2, %lpad ], [ %28, %lpad30 ], [ %16, %lpad26 ], [ %38, %lpad103.loopexit ], [ %66, %lpad140 ], [ %60, %lpad127 ], [ %63, %lpad130 ], [ %68, %lpad202.loopexit ]
  %lpad.val226 = insertvalue { i8*, i32 } undef, i8* %exn.slot.3, 0
  %lpad.val227 = insertvalue { i8*, i32 } %lpad.val226, i32 %ehselector.slot.3, 1
  resume { i8*, i32 } %lpad.val227
}

; Function Attrs: uwtable
define linkonce_odr void @_ZN5timer7reportTEd(%struct.timer* %this, double %time) local_unnamed_addr #4 comdat align 2 personality i8* bitcast (i32 (...)* @__gxx_personality_v0 to i8*) {
entry:
