; ModuleID = 'neighborsTime.C'
source_filename = "neighborsTime.C"
target datalayout = "e-m:e-i64:64-f80:128-n8:16:32:64-S128"
target triple = "x86_64-unknown-linux-gnu"

%"class.std::ios_base::Init" = type { i8 }
%struct.timer = type <{ double, double, double, i8, [3 x i8], %struct.timezone, [4 x i8] }>
%struct.timezone = type { i32, i32 }
%"class.std::basic_ostream" = type { i32 (...)**, %"class.std::basic_ios" }
%"class.std::basic_ios" = type { %"class.std::ios_base", %"class.std::basic_ostream"*, i8, i8, %"class.std::basic_streambuf"*, %"class.std::ctype"*, %"class.std::num_put"*, %"class.std::num_get"* }
%"class.std::ios_base" = type { i32 (...)**, i64, i64, i32, i32, i32, %"struct.std::ios_base::_Callback_list"*, %"struct.std::ios_base::_Words", [8 x %"struct.std::ios_base::_Words"], i32, %"struct.std::ios_base::_Words"*, %"class.std::locale" }
%"struct.std::ios_base::_Callback_list" = type { %"struct.std::ios_base::_Callback_list"*, void (i32, %"class.std::ios_base"*, i32)*, i32, i32 }
%"struct.std::ios_base::_Words" = type { i8*, i64 }
%"class.std::locale" = type { %"class.std::locale::_Impl"* }
%"class.std::locale::_Impl" = type { i32, %"class.std::locale::facet"**, i64, %"class.std::locale::facet"**, i8** }
%"class.std::locale::facet" = type <{ i32 (...)**, i32, [4 x i8] }>
%"class.std::basic_streambuf" = type { i32 (...)**, i8*, i8*, i8*, i8*, i8*, i8*, %"class.std::locale" }
%"class.std::ctype" = type <{ %"class.std::locale::facet.base", [4 x i8], %struct.__locale_struct*, i8, [7 x i8], i32*, i32*, i16*, i8, [256 x i8], [256 x i8], i8, [6 x i8] }>
%"class.std::locale::facet.base" = type <{ i32 (...)**, i32 }>
%struct.__locale_struct = type { [13 x %struct.__locale_data*], i16*, i32*, i32*, [13 x i8*] }
%struct.__locale_data = type opaque
%"class.std::num_put" = type { %"class.std::locale::facet.base", [4 x i8] }
%"class.std::num_get" = type { %"class.std::locale::facet.base", [4 x i8] }
%"class.std::__cxx11::basic_string" = type { %"struct.std::__cxx11::basic_string<char, std::char_traits<char>, std::allocator<char> >::_Alloc_hider", i64, %union.anon.1 }
%"struct.std::__cxx11::basic_string<char, std::char_traits<char>, std::allocator<char> >::_Alloc_hider" = type { i8* }
%union.anon.1 = type { i64, [8 x i8] }
%class._point3d = type { double, double, double }
%"struct.benchIO::words" = type { i64, i8*, i64, i8** }
%"class.std::basic_ofstream" = type { %"class.std::basic_ostream.base", %"class.std::basic_filebuf", %"class.std::basic_ios" }
%"class.std::basic_ostream.base" = type { i32 (...)** }
%"class.std::basic_filebuf" = type { %"class.std::basic_streambuf", %union.pthread_mutex_t, %"class.std::__basic_file", i32, %struct.__mbstate_t, %struct.__mbstate_t, %struct.__mbstate_t, i8*, i64, i8, i8, i8, i8, i8*, i8*, i8, %"class.std::codecvt"*, i8*, i64, i8*, i8* }
%union.pthread_mutex_t = type { %struct.__pthread_mutex_s }
%struct.__pthread_mutex_s = type { i32, i32, i32, i32, i32, i16, i16, %struct.__pthread_internal_list }
%struct.__pthread_internal_list = type { %struct.__pthread_internal_list*, %struct.__pthread_internal_list* }
%"class.std::__basic_file" = type <{ %struct._IO_FILE*, i8, [7 x i8] }>
%struct._IO_FILE = type { i32, i8*, i8*, i8*, i8*, i8*, i8*, i8*, i8*, i8*, i8*, i8*, %struct._IO_marker*, %struct._IO_FILE*, i32, i32, i64, i16, i8, [1 x i8], i8*, i64, i8*, i8*, i8*, i8*, i64, i32, [20 x i8] }
%struct._IO_marker = type { %struct._IO_marker*, %struct._IO_FILE*, i32 }
%struct.__mbstate_t = type { i32, %union.anon }
%union.anon = type { i32 }
%"class.std::codecvt" = type { %"class.std::__codecvt_abstract_base.base", %struct.__locale_struct* }
%"class.std::__codecvt_abstract_base.base" = type { %"class.std::locale::facet.base" }
%"class.std::basic_ifstream" = type { %"class.std::basic_istream.base", %"class.std::basic_filebuf", %"class.std::basic_ios" }
%"class.std::basic_istream.base" = type { i32 (...)**, i64 }
%"class.std::basic_istream" = type { i32 (...)**, i64, %"class.std::basic_ios" }
%struct.triangles = type { i32, i32, %class._point2d*, %struct.triangle* }
%class._point2d = type { double, double }
%struct.triangle = type { [3 x i32] }
%struct.commandLine = type { i32, i8**, %"class.std::__cxx11::basic_string" }
%struct.timeval = type { i64, i64 }
%struct.vertex = type { i32, %class._point2d, [1 x %struct.vertex*] }
%struct.vertex.16 = type { i32, %class._point2d, [10 x %struct.vertex.16*] }
%struct.vertex.29 = type { i32, %class._point3d, [1 x %struct.vertex.29*] }
%struct.vertex.44 = type { i32, %class._point3d, [10 x %struct.vertex.44*] }
%class.gTreeNode = type { %class._point2d, double, %struct.nData, i32, [8 x %class.gTreeNode*], %struct.vertex**, %class.gTreeNode* }
%struct.nData = type { i32 }
%class.gTreeNode.18 = type { %class._point2d, double, %struct.nData.19, i32, [8 x %class.gTreeNode.18*], %struct.vertex.16**, %class.gTreeNode.18* }
%struct.nData.19 = type { i32 }
%"struct.std::pair" = type { %class._point2d, %class._point2d }
%"struct.std::pair.6" = type { i32, %struct.vertex* }
%struct.__cilkrts_stack_frame = type { i32, i32, %struct.__cilkrts_stack_frame*, %struct.__cilkrts_worker*, i8*, [5 x i8*], i32, i16, i16, { %struct.__cilkrts_pedigree } }
%struct.__cilkrts_worker = type { %struct.__cilkrts_stack_frame**, %struct.__cilkrts_stack_frame**, %struct.__cilkrts_stack_frame**, %struct.__cilkrts_stack_frame**, %struct.__cilkrts_stack_frame**, i32, i8*, i8*, i8*, %struct.__cilkrts_stack_frame*, i8*, i8*, %struct.__cilkrts_pedigree }
%struct.__cilkrts_pedigree = type { i64, %struct.__cilkrts_pedigree* }
%"struct.intSort::eBits" = type { %"struct.utils::firstF", i64, i64 }
%"struct.utils::firstF" = type { i8 }
%struct.transpose = type { i32*, i32* }
%struct.blockTrans = type { %"struct.std::pair.6"*, %"struct.std::pair.6"*, i32*, i32*, i32* }
%"struct.kNearestNeighbor<vertex<_point2d<double>, 1>, 1>::kNN" = type { %struct.vertex*, [1 x %struct.vertex*], [1 x double], i32, i32 }
%struct.kNearestNeighbor.17 = type { %class.gTreeNode.18* }
%"struct.kNearestNeighbor<vertex<_point2d<double>, 10>, 10>::kNN" = type { %struct.vertex.16*, [10 x %struct.vertex.16*], [10 x double], i32, i32 }
%"struct.std::pair.23" = type { i32, %struct.vertex.16* }
%"struct.intSort::eBits.25" = type { %"struct.utils::firstF.24", i64, i64 }
%"struct.utils::firstF.24" = type { i8 }
%struct.blockTrans.26 = type { %"struct.std::pair.23"*, %"struct.std::pair.23"*, i32*, i32*, i32* }
%class.gTreeNode.31 = type { %class._point3d, double, %struct.nData.32, i32, [8 x %class.gTreeNode.31*], %struct.vertex.29**, %class.gTreeNode.31* }
%struct.nData.32 = type { i32 }
%class.gTreeNode.46 = type { %class._point3d, double, %struct.nData.47, i32, [8 x %class.gTreeNode.46*], %struct.vertex.44**, %class.gTreeNode.46* }
%struct.nData.47 = type { i32 }
%"struct.std::pair.33" = type { %class._point3d, %class._point3d }
%"struct.std::pair.38" = type { i32, %struct.vertex.29* }
%"struct.intSort::eBits.40" = type { %"struct.utils::firstF.39", i64, i64 }
%"struct.utils::firstF.39" = type { i8 }
%struct.blockTrans.41 = type { %"struct.std::pair.38"*, %"struct.std::pair.38"*, i32*, i32*, i32* }
%"struct.kNearestNeighbor<vertex<_point3d<double>, 1>, 1>::kNN" = type { %struct.vertex.29*, [1 x %struct.vertex.29*], [1 x double], i32, i32 }
%struct.kNearestNeighbor.45 = type { %class.gTreeNode.46* }
%"struct.kNearestNeighbor<vertex<_point3d<double>, 10>, 10>::kNN" = type { %struct.vertex.44*, [10 x %struct.vertex.44*], [10 x double], i32, i32 }
%"struct.std::pair.51" = type { i32, %struct.vertex.44* }
%"struct.intSort::eBits.53" = type { %"struct.utils::firstF.52", i64, i64 }
%"struct.utils::firstF.52" = type { i8 }
%struct.blockTrans.54 = type { %"struct.std::pair.51"*, %"struct.std::pair.51"*, i32*, i32*, i32* }

$_ZN11commandLine14getOptionValueENSt7__cxx1112basic_stringIcSt11char_traitsIcESaIcEEE = comdat any

$_ZN11commandLine17getOptionIntValueENSt7__cxx1112basic_stringIcSt11char_traitsIcESaIcEEEi = comdat any

$_ZN7benchIO18readPointsFromFileI8_point2dIdEEE4_seqIT_EPc = comdat any

$_Z13timeNeighborsILi1E8_point2dIdEEvPT0_iiiPc = comdat any

$_Z13timeNeighborsILi10E8_point2dIdEEvPT0_iiiPc = comdat any

$_ZN7benchIO18readPointsFromFileI8_point3dIdEEE4_seqIT_EPc = comdat any

$_Z13timeNeighborsILi1E8_point3dIdEEvPT0_iiiPc = comdat any

$_Z13timeNeighborsILi10E8_point3dIdEEvPT0_iiiPc = comdat any

$_ZN8sequence4packIllN5utils9identityFIlEEEE4_seqIT_EPS5_PbT0_S9_T1_ = comdat any

$_ZN8sequence4scanIllN5utils4addFIlEENS_4getAIllEEEET_PS6_T0_S8_T1_T2_S6_bb = comdat any

$_Z3ANNILi1E6vertexI8_point2dIdELi1EEEvPPT0_ii = comdat any

$_ZN5timer7reportTEd = comdat any

$_ZN7benchIO19writeIntArrayToFileIiEET_PS1_lPc = comdat any

$_ZN9gTreeNodeI8_point2dIdE7_vect2dIdE6vertexIS1_Li1EE5nDataIS5_EE5gTreeEPPS5_i = comdat any

$_ZN9gTreeNodeI8_point2dIdE7_vect2dIdE6vertexIS1_Li1EE5nDataIS5_EEC2E4_seqIPS5_ES1_dPS8_i = comdat any

$_ZN8sequence6reduceISt4pairI8_point2dIdES3_EiN9gTreeNodeIS3_7_vect2dIdE6vertexIS3_Li1EE5nDataIS9_EE6minMaxENS_5getAFIPS9_S4_iNSC_6toPairEEEEET_T0_SJ_T1_T2_ = comdat any

$_ZN8sequence6reduceISt4pairI8_point2dIdES3_EiN9gTreeNodeIS3_7_vect2dIdE6vertexIS3_Li1EE5nDataIS9_EE6minMaxENS_4getAIS4_iEEEET_T0_SH_T1_T2_ = comdat any

$_ZN9gTreeNodeI8_point2dIdE7_vect2dIdE6vertexIS1_Li1EE5nDataIS5_EE13sortBlocksBigEPPS5_iiidS1_Pi = comdat any

$_ZN9gTreeNodeI8_point2dIdE7_vect2dIdE6vertexIS1_Li1EE5nDataIS5_EE18buildRecursiveTreeE4_seqIPS5_EPiiPS8_SD_iii = comdat any

$_ZN9gTreeNodeI8_point2dIdE7_vect2dIdE6vertexIS1_Li1EE5nDataIS5_EE15sortBlocksSmallEPPS5_iS1_Pi = comdat any

$_ZN9gTreeNodeI8_point2dIdE7_vect2dIdE6vertexIS1_Li1EE5nDataIS5_EE7newTreeE4_seqIPS5_ES1_dPS8_i = comdat any

$_ZN7intSort6iSortXIjSt4pairIiP6vertexI8_point2dIdELi1EEEN5utils6firstFIiS6_EEiEEvPT0_PT2_llbPcT1_ = comdat any

$_ZN7intSort9radixStepISt4pairIiP6vertexI8_point2dIdELi1EEENS_5eBitsIS7_N5utils6firstFIiS6_EEEEjEEvPT_SE_PhPA256_T1_lllbT0_ = comdat any

$_ZN7intSort16radixLoopTopDownISt4pairIiP6vertexI8_point2dIdELi1EEEN5utils6firstFIiS6_EEjEEvPT_SC_PhPA256_T1_lllT0_ = comdat any

$_ZN9transposeIjjE6transREjjjjjj = comdat any

$_ZN8sequence4scanIjlN5utils4addFIjEENS_4getAIjlEEEET_PS6_T0_S8_T1_T2_S6_bb = comdat any

$_ZN10blockTransISt4pairIiP6vertexI8_point2dIdELi1EEEjE6transREjjjjjj = comdat any

$_ZN8sequence4scanIilN5utils4minFIiEENS_4getAIilEEEET_PS6_T0_S8_T1_T2_S6_bb = comdat any

$_Z9quickSortISt4pairIiP6vertexI8_point2dIdELi1EEEN9gTreeNodeIS3_7_vect2dIdES4_5nDataIS4_EE9compFirstElEvPT_T1_T0_ = comdat any

$_Z15quickSortSerialISt4pairIiP6vertexI8_point2dIdELi1EEEN9gTreeNodeIS3_7_vect2dIdES4_5nDataIS4_EE9compFirstElEvPT_T1_T0_ = comdat any

$_ZN9gTreeNodeI8_point2dIdE7_vect2dIdE6vertexIS1_Li1EE5nDataIS5_EE10applyIndexINS8_10flatten_FAEEEviT_ = comdat any

$_ZN16kNearestNeighborI6vertexI8_point2dIdELi1EELi1EE3kNN10nearestNghEP9gTreeNodeIS2_7_vect2dIdES3_5nDataIS3_EE = comdat any

$_ZN16kNearestNeighborI6vertexI8_point2dIdELi1EELi1EE3kNN14nearestNghTrimEP9gTreeNodeIS2_7_vect2dIdES3_5nDataIS3_EE = comdat any

$_ZN7benchIO16writeArrayToFileIiEEiNSt7__cxx1112basic_stringIcSt11char_traitsIcESaIcEEEPT_lPc = comdat any

$_ZN7benchIO13arrayToStringIiEE4_seqIcEPT_l = comdat any

$_ZN8sequence4packIclNS_4getAIclEEEE4_seqIT_EPS4_PbT0_S8_T1_ = comdat any

$_Z3ANNILi10E6vertexI8_point2dIdELi10EEEvPPT0_ii = comdat any

$_ZN16kNearestNeighborI6vertexI8_point2dIdELi10EELi10EE8kNearestEPS3_PS5_i = comdat any

$_ZN9gTreeNodeI8_point2dIdE7_vect2dIdE6vertexIS1_Li10EE5nDataIS5_EE5gTreeEPPS5_i = comdat any

$_ZN9gTreeNodeI8_point2dIdE7_vect2dIdE6vertexIS1_Li10EE5nDataIS5_EEC2E4_seqIPS5_ES1_dPS8_i = comdat any

$_ZN8sequence6reduceISt4pairI8_point2dIdES3_EiN9gTreeNodeIS3_7_vect2dIdE6vertexIS3_Li10EE5nDataIS9_EE6minMaxENS_5getAFIPS9_S4_iNSC_6toPairEEEEET_T0_SJ_T1_T2_ = comdat any

$_ZN8sequence6reduceISt4pairI8_point2dIdES3_EiN9gTreeNodeIS3_7_vect2dIdE6vertexIS3_Li10EE5nDataIS9_EE6minMaxENS_4getAIS4_iEEEET_T0_SH_T1_T2_ = comdat any

$_ZN9gTreeNodeI8_point2dIdE7_vect2dIdE6vertexIS1_Li10EE5nDataIS5_EE13sortBlocksBigEPPS5_iiidS1_Pi = comdat any

$_ZN9gTreeNodeI8_point2dIdE7_vect2dIdE6vertexIS1_Li10EE5nDataIS5_EE18buildRecursiveTreeE4_seqIPS5_EPiiPS8_SD_iii = comdat any

$_ZN9gTreeNodeI8_point2dIdE7_vect2dIdE6vertexIS1_Li10EE5nDataIS5_EE15sortBlocksSmallEPPS5_iS1_Pi = comdat any

$_ZN9gTreeNodeI8_point2dIdE7_vect2dIdE6vertexIS1_Li10EE5nDataIS5_EE7newTreeE4_seqIPS5_ES1_dPS8_i = comdat any

$_ZN7intSort6iSortXIjSt4pairIiP6vertexI8_point2dIdELi10EEEN5utils6firstFIiS6_EEiEEvPT0_PT2_llbPcT1_ = comdat any

$_ZN7intSort9radixStepISt4pairIiP6vertexI8_point2dIdELi10EEENS_5eBitsIS7_N5utils6firstFIiS6_EEEEjEEvPT_SE_PhPA256_T1_lllbT0_ = comdat any

$_ZN7intSort16radixLoopTopDownISt4pairIiP6vertexI8_point2dIdELi10EEEN5utils6firstFIiS6_EEjEEvPT_SC_PhPA256_T1_lllT0_ = comdat any

$_ZN10blockTransISt4pairIiP6vertexI8_point2dIdELi10EEEjE6transREjjjjjj = comdat any

$_Z5splitISt4pairIiP6vertexI8_point2dIdELi10EEEN9gTreeNodeIS3_7_vect2dIdES4_5nDataIS4_EE9compFirstEiES0_IPT_SF_ESF_T1_T0_ = comdat any

$_Z9quickSortISt4pairIiP6vertexI8_point2dIdELi10EEEN9gTreeNodeIS3_7_vect2dIdES4_5nDataIS4_EE9compFirstElEvPT_T1_T0_ = comdat any

$_Z15quickSortSerialISt4pairIiP6vertexI8_point2dIdELi10EEEN9gTreeNodeIS3_7_vect2dIdES4_5nDataIS4_EE9compFirstElEvPT_T1_T0_ = comdat any

$_Z5splitISt4pairIiP6vertexI8_point2dIdELi10EEEN9gTreeNodeIS3_7_vect2dIdES4_5nDataIS4_EE9compFirstElES0_IPT_SF_ESF_T1_T0_ = comdat any

$_ZN9gTreeNodeI8_point2dIdE7_vect2dIdE6vertexIS1_Li10EE5nDataIS5_EE10applyIndexINS8_10flatten_FAEEEviT_ = comdat any

$_ZN16kNearestNeighborI6vertexI8_point2dIdELi10EELi10EE3kNN10nearestNghEP9gTreeNodeIS2_7_vect2dIdES3_5nDataIS3_EE = comdat any

$_ZN16kNearestNeighborI6vertexI8_point2dIdELi10EELi10EE3kNN14nearestNghTrimEP9gTreeNodeIS2_7_vect2dIdES3_5nDataIS3_EE = comdat any

$_ZN9gTreeNodeI8_point2dIdE7_vect2dIdE6vertexIS1_Li10EE5nDataIS5_EE3delEv = comdat any

$_Z3ANNILi1E6vertexI8_point3dIdELi1EEEvPPT0_ii = comdat any

$_ZN9gTreeNodeI8_point3dIdE7_vect3dIdE6vertexIS1_Li1EE5nDataIS5_EE5gTreeEPPS5_i = comdat any

$_ZN9gTreeNodeI8_point3dIdE7_vect3dIdE6vertexIS1_Li1EE5nDataIS5_EEC2E4_seqIPS5_ES1_dPS8_i = comdat any

$_ZN8sequence6reduceISt4pairI8_point3dIdES3_EiN9gTreeNodeIS3_7_vect3dIdE6vertexIS3_Li1EE5nDataIS9_EE6minMaxENS_5getAFIPS9_S4_iNSC_6toPairEEEEET_T0_SJ_T1_T2_ = comdat any

$_ZN8sequence6reduceISt4pairI8_point3dIdES3_EiN9gTreeNodeIS3_7_vect3dIdE6vertexIS3_Li1EE5nDataIS9_EE6minMaxENS_4getAIS4_iEEEET_T0_SH_T1_T2_ = comdat any

$_ZN9gTreeNodeI8_point3dIdE7_vect3dIdE6vertexIS1_Li1EE5nDataIS5_EE13sortBlocksBigEPPS5_iiidS1_Pi = comdat any

$_ZN9gTreeNodeI8_point3dIdE7_vect3dIdE6vertexIS1_Li1EE5nDataIS5_EE18buildRecursiveTreeE4_seqIPS5_EPiiPS8_SD_iii = comdat any

$_ZN9gTreeNodeI8_point3dIdE7_vect3dIdE6vertexIS1_Li1EE5nDataIS5_EE15sortBlocksSmallEPPS5_iS1_Pi = comdat any

$_ZN9gTreeNodeI8_point3dIdE7_vect3dIdE6vertexIS1_Li1EE5nDataIS5_EE7newTreeE4_seqIPS5_ES1_dPS8_i = comdat any

$_ZN7intSort6iSortXIjSt4pairIiP6vertexI8_point3dIdELi1EEEN5utils6firstFIiS6_EEiEEvPT0_PT2_llbPcT1_ = comdat any

$_ZN7intSort9radixStepISt4pairIiP6vertexI8_point3dIdELi1EEENS_5eBitsIS7_N5utils6firstFIiS6_EEEEjEEvPT_SE_PhPA256_T1_lllbT0_ = comdat any

$_ZN7intSort16radixLoopTopDownISt4pairIiP6vertexI8_point3dIdELi1EEEN5utils6firstFIiS6_EEjEEvPT_SC_PhPA256_T1_lllT0_ = comdat any

$_ZN10blockTransISt4pairIiP6vertexI8_point3dIdELi1EEEjE6transREjjjjjj = comdat any

$_Z9quickSortISt4pairIiP6vertexI8_point3dIdELi1EEEN9gTreeNodeIS3_7_vect3dIdES4_5nDataIS4_EE9compFirstElEvPT_T1_T0_ = comdat any

$_ZN9gTreeNodeI8_point3dIdE7_vect3dIdE6vertexIS1_Li1EE5nDataIS5_EE10applyIndexINS8_10flatten_FAEEEviT_ = comdat any

$_ZN16kNearestNeighborI6vertexI8_point3dIdELi1EELi1EE3kNN10nearestNghEP9gTreeNodeIS2_7_vect3dIdES3_5nDataIS3_EE = comdat any

$_ZN16kNearestNeighborI6vertexI8_point3dIdELi1EELi1EE3kNN14nearestNghTrimEP9gTreeNodeIS2_7_vect3dIdES3_5nDataIS3_EE = comdat any

$_Z3ANNILi10E6vertexI8_point3dIdELi10EEEvPPT0_ii = comdat any

$_ZN16kNearestNeighborI6vertexI8_point3dIdELi10EELi10EE8kNearestEPS3_PS5_i = comdat any

$_ZN9gTreeNodeI8_point3dIdE7_vect3dIdE6vertexIS1_Li10EE5nDataIS5_EE5gTreeEPPS5_i = comdat any

$_ZN9gTreeNodeI8_point3dIdE7_vect3dIdE6vertexIS1_Li10EE5nDataIS5_EEC2E4_seqIPS5_ES1_dPS8_i = comdat any

$_ZN8sequence6reduceISt4pairI8_point3dIdES3_EiN9gTreeNodeIS3_7_vect3dIdE6vertexIS3_Li10EE5nDataIS9_EE6minMaxENS_5getAFIPS9_S4_iNSC_6toPairEEEEET_T0_SJ_T1_T2_ = comdat any

$_ZN8sequence6reduceISt4pairI8_point3dIdES3_EiN9gTreeNodeIS3_7_vect3dIdE6vertexIS3_Li10EE5nDataIS9_EE6minMaxENS_4getAIS4_iEEEET_T0_SH_T1_T2_ = comdat any

$_ZN9gTreeNodeI8_point3dIdE7_vect3dIdE6vertexIS1_Li10EE5nDataIS5_EE13sortBlocksBigEPPS5_iiidS1_Pi = comdat any

$_ZN9gTreeNodeI8_point3dIdE7_vect3dIdE6vertexIS1_Li10EE5nDataIS5_EE18buildRecursiveTreeE4_seqIPS5_EPiiPS8_SD_iii = comdat any

$_ZN9gTreeNodeI8_point3dIdE7_vect3dIdE6vertexIS1_Li10EE5nDataIS5_EE15sortBlocksSmallEPPS5_iS1_Pi = comdat any

$_ZN9gTreeNodeI8_point3dIdE7_vect3dIdE6vertexIS1_Li10EE5nDataIS5_EE7newTreeE4_seqIPS5_ES1_dPS8_i = comdat any

$_ZN7intSort6iSortXIjSt4pairIiP6vertexI8_point3dIdELi10EEEN5utils6firstFIiS6_EEiEEvPT0_PT2_llbPcT1_ = comdat any

$_ZN7intSort9radixStepISt4pairIiP6vertexI8_point3dIdELi10EEENS_5eBitsIS7_N5utils6firstFIiS6_EEEEjEEvPT_SE_PhPA256_T1_lllbT0_ = comdat any

$_ZN7intSort16radixLoopTopDownISt4pairIiP6vertexI8_point3dIdELi10EEEN5utils6firstFIiS6_EEjEEvPT_SC_PhPA256_T1_lllT0_ = comdat any

$_ZN10blockTransISt4pairIiP6vertexI8_point3dIdELi10EEEjE6transREjjjjjj = comdat any

$_Z9quickSortISt4pairIiP6vertexI8_point3dIdELi10EEEN9gTreeNodeIS3_7_vect3dIdES4_5nDataIS4_EE9compFirstElEvPT_T1_T0_ = comdat any

$_ZN9gTreeNodeI8_point3dIdE7_vect3dIdE6vertexIS1_Li10EE5nDataIS5_EE10applyIndexINS8_10flatten_FAEEEviT_ = comdat any

$_ZN16kNearestNeighborI6vertexI8_point3dIdELi10EELi10EE3kNN10nearestNghEP9gTreeNodeIS2_7_vect3dIdES3_5nDataIS3_EE = comdat any

$_ZN16kNearestNeighborI6vertexI8_point3dIdELi10EELi10EE3kNN14nearestNghTrimEP9gTreeNodeIS2_7_vect3dIdES3_5nDataIS3_EE = comdat any

$_ZN9gTreeNodeI8_point3dIdE7_vect3dIdE6vertexIS1_Li10EE5nDataIS5_EE3delEv = comdat any

@_ZStL8__ioinit = internal global %"class.std::ios_base::Init" zeroinitializer, align 1
@__dso_handle = external hidden global i8
@_ZL3_tm = internal global %struct.timer zeroinitializer, align 8
@_ZSt4cout = external global %"class.std::basic_ostream", align 8
@.str = private unnamed_addr constant [22 x i8] c"Unable to open file: \00", align 1
@_ZN7benchIO11intHeaderIOB5cxx11E = global %"class.std::__cxx11::basic_string" zeroinitializer, align 8
@.str.5 = private unnamed_addr constant [12 x i8] c"sequenceInt\00", align 1
@_ZN7benchIO13HeaderPoint2dB5cxx11E = global %"class.std::__cxx11::basic_string" zeroinitializer, align 8
@.str.7 = private unnamed_addr constant [21 x i8] c"pbbs_sequencePoint2d\00", align 1
@_ZN7benchIO13HeaderPoint3dB5cxx11E = global %"class.std::__cxx11::basic_string" zeroinitializer, align 8
@.str.9 = private unnamed_addr constant [21 x i8] c"pbbs_sequencePoint3d\00", align 1
@_ZN7benchIO15HeaderTrianglesB5cxx11E = global %"class.std::__cxx11::basic_string" zeroinitializer, align 8
@.str.11 = private unnamed_addr constant [15 x i8] c"pbbs_triangles\00", align 1
@.str.12 = private unnamed_addr constant [6 x i8] c".node\00", align 1
@.str.13 = private unnamed_addr constant [46 x i8] c"readStringFromFileNodeEle inconsistent length\00", align 1
@.str.14 = private unnamed_addr constant [5 x i8] c".ele\00", align 1
@.str.15 = private unnamed_addr constant [65 x i8] c"[-k {1,...,10}] [-d {2,3}] [-o <outFile>] [-r <rounds>] <inFile>\00", align 1
@.str.20 = private unnamed_addr constant [42 x i8] c"basic_string::_M_construct null not valid\00", align 1
@.str.21 = private unnamed_addr constant [8 x i8] c"usage: \00", align 1
@.str.22 = private unnamed_addr constant [2 x i8] c" \00", align 1
@.str.23 = private unnamed_addr constant [21 x i8] c"basic_string::append\00", align 1
@_ZTTSt14basic_ofstreamIcSt11char_traitsIcEE = external unnamed_addr constant [4 x i8*]
@_ZTVSt13basic_filebufIcSt11char_traitsIcEE = external unnamed_addr constant { [16 x i8*] }
@_ZTVSt15basic_streambufIcSt11char_traitsIcEE = external unnamed_addr constant { [16 x i8*] }
@_ZTTSt14basic_ifstreamIcSt11char_traitsIcEE = external unnamed_addr constant [4 x i8*]
@.str.24 = private unnamed_addr constant [35 x i8] c"readPointsFromFile wrong file type\00", align 1
@.str.25 = private unnamed_addr constant [18 x i8] c"numNewNodes == 0\0A\00", align 1
@.str.26 = private unnamed_addr constant [19 x i8] c"k too large in kNN\00", align 1
@.str.27 = private unnamed_addr constant [12 x i8] c"PBBS-time: \00", align 1
@.str.28 = private unnamed_addr constant [3 x i8] c"%d\00", align 1
@llvm.global_ctors = appending global [1 x { i32, void ()*, i8* }] [{ i32, void ()*, i8* } { i32 65535, void ()* @_GLOBAL__sub_I_neighborsTime.C, i8* null }]

declare void @_ZNSt8ios_base4InitC1Ev(%"class.std::ios_base::Init"*) unnamed_addr #0

; Function Attrs: nounwind
declare void @_ZNSt8ios_base4InitD1Ev(%"class.std::ios_base::Init"*) unnamed_addr #1

; Function Attrs: nounwind
declare i32 @__cxa_atexit(void (i8*)*, i8*, i8*) local_unnamed_addr #2

; Function Attrs: nounwind
declare i32 @mallopt(i32, i32) local_unnamed_addr #1

; Function Attrs: norecurse nounwind readnone uwtable
define i32 @_Z11ptFindBlock8_point2dIdEdiS0_(double %minpt.coerce0, double %minpt.coerce1, double %blocksize, i32 %log_numblocks, double %p.coerce0, double %p.coerce1) local_unnamed_addr #3 {
entry:
  %shl = shl i32 1, %log_numblocks
  %sub = fsub fast double %p.coerce0, %minpt.coerce0
  %div = fdiv fast double %sub, %blocksize
  %conv = fptosi double %div to i32
  %sub3 = add nsw i32 %shl, -1
  %cmp.i = icmp slt i32 %sub3, %conv
  %.sroa.speculated42 = select i1 %cmp.i, i32 %sub3, i32 %conv
  %sub6 = fsub fast double %p.coerce1, %minpt.coerce1
  %div7 = fdiv fast double %sub6, %blocksize
  %conv8 = fptosi double %div7 to i32
  %cmp.i34 = icmp slt i32 %sub3, %conv8
  %.sroa.speculated = select i1 %cmp.i34, i32 %sub3, i32 %conv8
  %cmp47 = icmp sgt i32 %log_numblocks, 0
  br i1 %cmp47, label %for.body.lr.ph, label %for.cond.cleanup

for.body.lr.ph:                                   ; preds = %entry
  %min.iters.check = icmp ult i32 %log_numblocks, 32
  br i1 %min.iters.check, label %for.body.preheader, label %vector.ph

for.body.preheader:                               ; preds = %middle.block, %for.body.lr.ph
  %result.049.ph = phi i32 [ %33, %middle.block ], [ 0, %for.body.lr.ph ]
  %i.048.ph = phi i32 [ %n.vec, %middle.block ], [ 0, %for.body.lr.ph ]
  br label %for.body

vector.ph:                                        ; preds = %for.body.lr.ph
  %n.vec = and i32 %log_numblocks, -32
  %broadcast.splatinsert = insertelement <8 x i32> undef, i32 %.sroa.speculated42, i32 0
  %broadcast.splat = shufflevector <8 x i32> %broadcast.splatinsert, <8 x i32> undef, <8 x i32> zeroinitializer
  %broadcast.splatinsert62 = insertelement <8 x i32> undef, i32 %.sroa.speculated, i32 0
  %broadcast.splat63 = shufflevector <8 x i32> %broadcast.splatinsert62, <8 x i32> undef, <8 x i32> zeroinitializer
  br label %vector.body

vector.body:                                      ; preds = %vector.body, %vector.ph
  %index = phi i32 [ 0, %vector.ph ], [ %index.next, %vector.body ]
  %vec.phi = phi <8 x i32> [ zeroinitializer, %vector.ph ], [ %28, %vector.body ]
  %vec.phi50 = phi <8 x i32> [ zeroinitializer, %vector.ph ], [ %29, %vector.body ]
  %vec.phi51 = phi <8 x i32> [ zeroinitializer, %vector.ph ], [ %30, %vector.body ]
  %vec.phi52 = phi <8 x i32> [ zeroinitializer, %vector.ph ], [ %31, %vector.body ]
  %vec.ind = phi <8 x i32> [ <i32 0, i32 1, i32 2, i32 3, i32 4, i32 5, i32 6, i32 7>, %vector.ph ], [ %vec.ind.next, %vector.body ]
  %step.add = add <8 x i32> %vec.ind, <i32 8, i32 8, i32 8, i32 8, i32 8, i32 8, i32 8, i32 8>
  %step.add53 = add <8 x i32> %vec.ind, <i32 16, i32 16, i32 16, i32 16, i32 16, i32 16, i32 16, i32 16>
  %step.add54 = add <8 x i32> %vec.ind, <i32 24, i32 24, i32 24, i32 24, i32 24, i32 24, i32 24, i32 24>
  %0 = shl <8 x i32> <i32 1, i32 1, i32 1, i32 1, i32 1, i32 1, i32 1, i32 1>, %vec.ind
  %1 = shl <8 x i32> <i32 1, i32 1, i32 1, i32 1, i32 1, i32 1, i32 1, i32 1>, %step.add
  %2 = shl <8 x i32> <i32 1, i32 1, i32 1, i32 1, i32 1, i32 1, i32 1, i32 1>, %step.add53
  %3 = shl <8 x i32> <i32 1, i32 1, i32 1, i32 1, i32 1, i32 1, i32 1, i32 1>, %step.add54
  %4 = and <8 x i32> %0, %broadcast.splat
  %5 = and <8 x i32> %1, %broadcast.splat
  %6 = and <8 x i32> %2, %broadcast.splat
  %7 = and <8 x i32> %3, %broadcast.splat
  %8 = shl <8 x i32> %4, %vec.ind
  %9 = shl <8 x i32> %5, %step.add
  %10 = shl <8 x i32> %6, %step.add53
  %11 = shl <8 x i32> %7, %step.add54
  %12 = add nsw <8 x i32> %8, %vec.phi
  %13 = add nsw <8 x i32> %9, %vec.phi50
  %14 = add nsw <8 x i32> %10, %vec.phi51
  %15 = add nsw <8 x i32> %11, %vec.phi52
  %16 = and <8 x i32> %0, %broadcast.splat63
  %17 = and <8 x i32> %1, %broadcast.splat63
  %18 = and <8 x i32> %2, %broadcast.splat63
  %19 = and <8 x i32> %3, %broadcast.splat63
  %20 = add nuw nsw <8 x i32> %vec.ind, <i32 1, i32 1, i32 1, i32 1, i32 1, i32 1, i32 1, i32 1>
  %21 = add <8 x i32> %vec.ind, <i32 9, i32 9, i32 9, i32 9, i32 9, i32 9, i32 9, i32 9>
  %22 = add <8 x i32> %vec.ind, <i32 17, i32 17, i32 17, i32 17, i32 17, i32 17, i32 17, i32 17>
  %23 = add <8 x i32> %vec.ind, <i32 25, i32 25, i32 25, i32 25, i32 25, i32 25, i32 25, i32 25>
  %24 = shl <8 x i32> %16, %20
  %25 = shl <8 x i32> %17, %21
  %26 = shl <8 x i32> %18, %22
  %27 = shl <8 x i32> %19, %23
  %28 = add nsw <8 x i32> %12, %24
  %29 = add nsw <8 x i32> %13, %25
  %30 = add nsw <8 x i32> %14, %26
  %31 = add nsw <8 x i32> %15, %27
  %index.next = add i32 %index, 32
  %vec.ind.next = add <8 x i32> %vec.ind, <i32 32, i32 32, i32 32, i32 32, i32 32, i32 32, i32 32, i32 32>
  %32 = icmp eq i32 %index.next, %n.vec
  br i1 %32, label %middle.block, label %vector.body, !llvm.loop !2

middle.block:                                     ; preds = %vector.body
  %bin.rdx = add <8 x i32> %29, %28
  %bin.rdx70 = add <8 x i32> %bin.rdx, %30
  %bin.rdx71 = add <8 x i32> %bin.rdx70, %31
  %rdx.shuf = shufflevector <8 x i32> %bin.rdx71, <8 x i32> undef, <8 x i32> <i32 4, i32 5, i32 6, i32 7, i32 undef, i32 undef, i32 undef, i32 undef>
  %bin.rdx72 = add <8 x i32> %rdx.shuf, %bin.rdx71
  %rdx.shuf73 = shufflevector <8 x i32> %bin.rdx72, <8 x i32> undef, <8 x i32> <i32 2, i32 3, i32 undef, i32 undef, i32 undef, i32 undef, i32 undef, i32 undef>
  %bin.rdx74 = add <8 x i32> %rdx.shuf73, %bin.rdx72
  %rdx.shuf75 = shufflevector <8 x i32> %bin.rdx74, <8 x i32> undef, <8 x i32> <i32 1, i32 undef, i32 undef, i32 undef, i32 undef, i32 undef, i32 undef, i32 undef>
  %bin.rdx76 = add <8 x i32> %rdx.shuf75, %bin.rdx74
  %33 = extractelement <8 x i32> %bin.rdx76, i32 0
  %cmp.n = icmp eq i32 %n.vec, %log_numblocks
  br i1 %cmp.n, label %for.cond.cleanup, label %for.body.preheader

for.cond.cleanup:                                 ; preds = %for.body, %middle.block, %entry
  %result.0.lcssa = phi i32 [ 0, %entry ], [ %33, %middle.block ], [ %add17, %for.body ]
  ret i32 %result.0.lcssa

for.body:                                         ; preds = %for.body.preheader, %for.body
  %result.049 = phi i32 [ %add17, %for.body ], [ %result.049.ph, %for.body.preheader ]
  %i.048 = phi i32 [ %add15, %for.body ], [ %i.048.ph, %for.body.preheader ]
  %shl12 = shl i32 1, %i.048
  %and = and i32 %shl12, %.sroa.speculated42
  %shl13 = shl i32 %and, %i.048
  %add = add nsw i32 %shl13, %result.049
  %and14 = and i32 %shl12, %.sroa.speculated
  %add15 = add nuw nsw i32 %i.048, 1
  %shl16 = shl i32 %and14, %add15
  %add17 = add nsw i32 %add, %shl16
  %exitcond = icmp eq i32 %add15, %log_numblocks
  br i1 %exitcond, label %for.cond.cleanup, label %for.body, !llvm.loop !4
}

; Function Attrs: argmemonly nounwind
declare void @llvm.lifetime.start.p0i8(i64, i8* nocapture) #4

; Function Attrs: argmemonly nounwind
declare void @llvm.lifetime.end.p0i8(i64, i8* nocapture) #4

; Function Attrs: norecurse nounwind readonly uwtable
define i32 @_Z11ptFindBlock8_point3dIdEdiS0_(%class._point3d* byval nocapture readonly align 8 %minpt, double %blocksize, i32 %log_numblocks, %class._point3d* byval nocapture readonly align 8 %p) local_unnamed_addr #5 {
entry:
  %shl = shl i32 1, %log_numblocks
  %x = getelementptr inbounds %class._point3d, %class._point3d* %p, i64 0, i32 0
  %0 = load double, double* %x, align 8, !tbaa !6
  %x1 = getelementptr inbounds %class._point3d, %class._point3d* %minpt, i64 0, i32 0
  %1 = load double, double* %x1, align 8, !tbaa !6
  %sub = fsub fast double %0, %1
  %div = fdiv fast double %sub, %blocksize
  %conv = fptosi double %div to i32
  %sub3 = add nsw i32 %shl, -1
  %cmp.i = icmp slt i32 %sub3, %conv
  %.sroa.speculated70 = select i1 %cmp.i, i32 %sub3, i32 %conv
  %y = getelementptr inbounds %class._point3d, %class._point3d* %p, i64 0, i32 1
  %2 = load double, double* %y, align 8, !tbaa !11
  %y5 = getelementptr inbounds %class._point3d, %class._point3d* %minpt, i64 0, i32 1
  %3 = load double, double* %y5, align 8, !tbaa !11
  %sub6 = fsub fast double %2, %3
  %div7 = fdiv fast double %sub6, %blocksize
  %conv8 = fptosi double %div7 to i32
  %cmp.i56 = icmp slt i32 %sub3, %conv8
  %.sroa.speculated64 = select i1 %cmp.i56, i32 %sub3, i32 %conv8
  %z = getelementptr inbounds %class._point3d, %class._point3d* %p, i64 0, i32 2
  %4 = load double, double* %z, align 8, !tbaa !12
  %z13 = getelementptr inbounds %class._point3d, %class._point3d* %minpt, i64 0, i32 2
  %5 = load double, double* %z13, align 8, !tbaa !12
  %sub14 = fsub fast double %4, %5
  %div15 = fdiv fast double %sub14, %blocksize
  %conv16 = fptosi double %div15 to i32
  %cmp.i54 = icmp slt i32 %sub3, %conv16
  %.sroa.speculated = select i1 %cmp.i54, i32 %sub3, i32 %conv16
  %cmp75 = icmp sgt i32 %log_numblocks, 0
  br i1 %cmp75, label %for.body.lr.ph, label %for.cond.cleanup

for.body.lr.ph:                                   ; preds = %entry
  %min.iters.check = icmp ult i32 %log_numblocks, 16
  br i1 %min.iters.check, label %for.body.preheader, label %vector.ph

for.body.preheader:                               ; preds = %middle.block, %for.body.lr.ph
  %result.077.ph = phi i32 [ %33, %middle.block ], [ 0, %for.body.lr.ph ]
  %i.076.ph = phi i32 [ %n.vec, %middle.block ], [ 0, %for.body.lr.ph ]
  br label %for.body

vector.ph:                                        ; preds = %for.body.lr.ph
  %n.vec = and i32 %log_numblocks, -16
  %broadcast.splatinsert = insertelement <8 x i32> undef, i32 %.sroa.speculated70, i32 0
  %broadcast.splat = shufflevector <8 x i32> %broadcast.splatinsert, <8 x i32> undef, <8 x i32> zeroinitializer
  %broadcast.splatinsert82 = insertelement <8 x i32> undef, i32 %.sroa.speculated64, i32 0
  %broadcast.splat83 = shufflevector <8 x i32> %broadcast.splatinsert82, <8 x i32> undef, <8 x i32> zeroinitializer
  %broadcast.splatinsert86 = insertelement <8 x i32> undef, i32 %.sroa.speculated, i32 0
  %broadcast.splat87 = shufflevector <8 x i32> %broadcast.splatinsert86, <8 x i32> undef, <8 x i32> zeroinitializer
  br label %vector.body

vector.body:                                      ; preds = %vector.body, %vector.ph
  %index = phi i32 [ 0, %vector.ph ], [ %index.next, %vector.body ]
  %vec.phi = phi <8 x i32> [ zeroinitializer, %vector.ph ], [ %30, %vector.body ]
  %vec.phi78 = phi <8 x i32> [ zeroinitializer, %vector.ph ], [ %31, %vector.body ]
  %vec.ind = phi <8 x i32> [ <i32 0, i32 1, i32 2, i32 3, i32 4, i32 5, i32 6, i32 7>, %vector.ph ], [ %vec.ind.next, %vector.body ]
  %step.add = add <8 x i32> %vec.ind, <i32 8, i32 8, i32 8, i32 8, i32 8, i32 8, i32 8, i32 8>
  %6 = shl <8 x i32> <i32 1, i32 1, i32 1, i32 1, i32 1, i32 1, i32 1, i32 1>, %vec.ind
  %7 = shl <8 x i32> <i32 1, i32 1, i32 1, i32 1, i32 1, i32 1, i32 1, i32 1>, %step.add
  %8 = and <8 x i32> %6, %broadcast.splat
  %9 = and <8 x i32> %7, %broadcast.splat
  %10 = shl nuw nsw <8 x i32> %vec.ind, <i32 1, i32 1, i32 1, i32 1, i32 1, i32 1, i32 1, i32 1>
  %11 = shl nuw nsw <8 x i32> %step.add, <i32 1, i32 1, i32 1, i32 1, i32 1, i32 1, i32 1, i32 1>
  %12 = shl <8 x i32> %8, %10
  %13 = shl <8 x i32> %9, %11
  %14 = add nsw <8 x i32> %12, %vec.phi
  %15 = add nsw <8 x i32> %13, %vec.phi78
  %16 = and <8 x i32> %6, %broadcast.splat83
  %17 = and <8 x i32> %7, %broadcast.splat83
  %18 = or <8 x i32> %10, <i32 1, i32 1, i32 1, i32 1, i32 1, i32 1, i32 1, i32 1>
  %19 = or <8 x i32> %11, <i32 1, i32 1, i32 1, i32 1, i32 1, i32 1, i32 1, i32 1>
  %20 = shl <8 x i32> %16, %18
  %21 = shl <8 x i32> %17, %19
  %22 = add nsw <8 x i32> %14, %20
  %23 = add nsw <8 x i32> %15, %21
  %24 = and <8 x i32> %6, %broadcast.splat87
  %25 = and <8 x i32> %7, %broadcast.splat87
  %26 = add nuw nsw <8 x i32> %10, <i32 2, i32 2, i32 2, i32 2, i32 2, i32 2, i32 2, i32 2>
  %27 = add nuw nsw <8 x i32> %11, <i32 2, i32 2, i32 2, i32 2, i32 2, i32 2, i32 2, i32 2>
  %28 = shl <8 x i32> %24, %26
  %29 = shl <8 x i32> %25, %27
  %30 = add nsw <8 x i32> %22, %28
  %31 = add nsw <8 x i32> %23, %29
  %index.next = add i32 %index, 16
  %vec.ind.next = add <8 x i32> %vec.ind, <i32 16, i32 16, i32 16, i32 16, i32 16, i32 16, i32 16, i32 16>
  %32 = icmp eq i32 %index.next, %n.vec
  br i1 %32, label %middle.block, label %vector.body, !llvm.loop !13

middle.block:                                     ; preds = %vector.body
  %bin.rdx = add <8 x i32> %31, %30
  %rdx.shuf = shufflevector <8 x i32> %bin.rdx, <8 x i32> undef, <8 x i32> <i32 4, i32 5, i32 6, i32 7, i32 undef, i32 undef, i32 undef, i32 undef>
  %bin.rdx90 = add <8 x i32> %rdx.shuf, %bin.rdx
  %rdx.shuf91 = shufflevector <8 x i32> %bin.rdx90, <8 x i32> undef, <8 x i32> <i32 2, i32 3, i32 undef, i32 undef, i32 undef, i32 undef, i32 undef, i32 undef>
  %bin.rdx92 = add <8 x i32> %rdx.shuf91, %bin.rdx90
  %rdx.shuf93 = shufflevector <8 x i32> %bin.rdx92, <8 x i32> undef, <8 x i32> <i32 1, i32 undef, i32 undef, i32 undef, i32 undef, i32 undef, i32 undef, i32 undef>
  %bin.rdx94 = add <8 x i32> %rdx.shuf93, %bin.rdx92
  %33 = extractelement <8 x i32> %bin.rdx94, i32 0
  %cmp.n = icmp eq i32 %n.vec, %log_numblocks
  br i1 %cmp.n, label %for.cond.cleanup, label %for.body.preheader

for.cond.cleanup:                                 ; preds = %for.body, %middle.block, %entry
  %result.0.lcssa = phi i32 [ 0, %entry ], [ %33, %middle.block ], [ %add31, %for.body ]
  ret i32 %result.0.lcssa

for.body:                                         ; preds = %for.body.preheader, %for.body
  %result.077 = phi i32 [ %add31, %for.body ], [ %result.077.ph, %for.body.preheader ]
  %i.076 = phi i32 [ %inc, %for.body ], [ %i.076.ph, %for.body.preheader ]
  %shl20 = shl i32 1, %i.076
  %and = and i32 %shl20, %.sroa.speculated70
  %mul = shl nuw nsw i32 %i.076, 1
  %shl21 = shl i32 %and, %mul
  %add = add nsw i32 %shl21, %result.077
  %and22 = and i32 %shl20, %.sroa.speculated64
  %add24 = or i32 %mul, 1
  %shl25 = shl i32 %and22, %add24
  %add26 = add nsw i32 %add, %shl25
  %and27 = and i32 %shl20, %.sroa.speculated
  %add29 = add nuw nsw i32 %mul, 2
  %shl30 = shl i32 %and27, %add29
  %add31 = add nsw i32 %add26, %shl30
  %inc = add nuw nsw i32 %i.076, 1
  %exitcond = icmp eq i32 %inc, %log_numblocks
  br i1 %exitcond, label %for.cond.cleanup, label %for.body, !llvm.loop !14
}

; Function Attrs: norecurse nounwind readnone uwtable
define { double, double } @_Z11ptMakeBlock8_point2dIdEdii(double %minpt.coerce0, double %minpt.coerce1, double %blocksize, i32 %log_numblocks, i32 %index) local_unnamed_addr #3 {
entry:
  %cmp27 = icmp sgt i32 %log_numblocks, 0
  br i1 %cmp27, label %for.body.preheader, label %for.cond.cleanup

for.body.preheader:                               ; preds = %entry
  %0 = add i32 %log_numblocks, -1
  %xtraiter = and i32 %log_numblocks, 3
  %1 = icmp ult i32 %0, 3
  br i1 %1, label %for.cond.cleanup.loopexit.unr-lcssa, label %for.body.preheader.new

for.body.preheader.new:                           ; preds = %for.body.preheader
  %unroll_iter = sub i32 %log_numblocks, %xtraiter
  br label %for.body

for.cond.cleanup.loopexit.unr-lcssa:              ; preds = %for.body, %for.body.preheader
  %index.addr.031.unr = phi i32 [ %index, %for.body.preheader ], [ %shr.3, %for.body ]
  %i.029.unr = phi i32 [ 0, %for.body.preheader ], [ %inc.3, %for.body ]
  %2 = phi <2 x i32> [ undef, %for.body.preheader ], [ %43, %for.body ]
  %3 = phi <2 x i32> [ zeroinitializer, %for.body.preheader ], [ %43, %for.body ]
  %lcmp.mod = icmp eq i32 %xtraiter, 0
  br i1 %lcmp.mod, label %for.cond.cleanup.loopexit, label %for.body.epil.preheader

for.body.epil.preheader:                          ; preds = %for.cond.cleanup.loopexit.unr-lcssa
  br label %for.body.epil

for.body.epil:                                    ; preds = %for.body.epil.preheader, %for.body.epil
  %index.addr.031.epil = phi i32 [ %shr.epil, %for.body.epil ], [ %index.addr.031.unr, %for.body.epil.preheader ]
  %i.029.epil = phi i32 [ %inc.epil, %for.body.epil ], [ %i.029.unr, %for.body.epil.preheader ]
  %epil.iter = phi i32 [ %epil.iter.sub, %for.body.epil ], [ %xtraiter, %for.body.epil.preheader ]
  %4 = phi <2 x i32> [ %11, %for.body.epil ], [ %3, %for.body.epil.preheader ]
  %5 = insertelement <2 x i32> undef, i32 %index.addr.031.epil, i32 0
  %6 = shufflevector <2 x i32> %5, <2 x i32> undef, <2 x i32> zeroinitializer
  %7 = and <2 x i32> %6, <i32 1, i32 2>
  %8 = insertelement <2 x i32> undef, i32 %i.029.epil, i32 0
  %9 = shufflevector <2 x i32> %8, <2 x i32> undef, <2 x i32> zeroinitializer
  %10 = shl <2 x i32> %7, %9
  %11 = or <2 x i32> %10, %4
  %shr.epil = ashr i32 %index.addr.031.epil, 2
  %inc.epil = add nuw nsw i32 %i.029.epil, 1
  %epil.iter.sub = add nsw i32 %epil.iter, -1
  %epil.iter.cmp = icmp eq i32 %epil.iter.sub, 0
  br i1 %epil.iter.cmp, label %for.cond.cleanup.loopexit, label %for.body.epil, !llvm.loop !15

for.cond.cleanup.loopexit:                        ; preds = %for.body.epil, %for.cond.cleanup.loopexit.unr-lcssa
  %12 = phi <2 x i32> [ %2, %for.cond.cleanup.loopexit.unr-lcssa ], [ %11, %for.body.epil ]
  %13 = extractelement <2 x i32> %12, i32 1
  %phitmp = ashr i32 %13, 1
  %14 = extractelement <2 x i32> %12, i32 0
  %phitmp33 = sitofp i32 %14 to double
  %phitmp34 = sitofp i32 %phitmp to double
  br label %for.cond.cleanup

for.cond.cleanup:                                 ; preds = %for.cond.cleanup.loopexit, %entry
  %yindex.0.lcssa = phi double [ 0.000000e+00, %entry ], [ %phitmp34, %for.cond.cleanup.loopexit ]
  %xindex.0.lcssa = phi double [ 0.000000e+00, %entry ], [ %phitmp33, %for.cond.cleanup.loopexit ]
  %mul = fmul fast double %xindex.0.lcssa, %blocksize
  %mul6 = fmul fast double %yindex.0.lcssa, %blocksize
  %div = fmul fast double %blocksize, 5.000000e-01
  %add = fadd fast double %div, %minpt.coerce0
  %add.i = fadd fast double %add, %mul
  %add7 = fadd fast double %div, %minpt.coerce1
  %add9.i = fadd fast double %add7, %mul6
  %.fca.0.insert.i = insertvalue { double, double } undef, double %add.i, 0
  %.fca.1.insert.i = insertvalue { double, double } %.fca.0.insert.i, double %add9.i, 1
  ret { double, double } %.fca.1.insert.i

for.body:                                         ; preds = %for.body, %for.body.preheader.new
  %index.addr.031 = phi i32 [ %index, %for.body.preheader.new ], [ %shr.3, %for.body ]
  %i.029 = phi i32 [ 0, %for.body.preheader.new ], [ %inc.3, %for.body ]
  %niter = phi i32 [ %unroll_iter, %for.body.preheader.new ], [ %niter.nsub.3, %for.body ]
  %15 = phi <2 x i32> [ zeroinitializer, %for.body.preheader.new ], [ %43, %for.body ]
  %16 = insertelement <2 x i32> undef, i32 %index.addr.031, i32 0
  %17 = shufflevector <2 x i32> %16, <2 x i32> undef, <2 x i32> zeroinitializer
  %18 = and <2 x i32> %17, <i32 1, i32 2>
  %19 = insertelement <2 x i32> undef, i32 %i.029, i32 0
  %20 = shufflevector <2 x i32> %19, <2 x i32> undef, <2 x i32> zeroinitializer
  %21 = shl <2 x i32> %18, %20
  %22 = or <2 x i32> %21, %15
  %shr = ashr i32 %index.addr.031, 2
  %inc = or i32 %i.029, 1
  %23 = insertelement <2 x i32> undef, i32 %shr, i32 0
  %24 = shufflevector <2 x i32> %23, <2 x i32> undef, <2 x i32> zeroinitializer
  %25 = and <2 x i32> %24, <i32 1, i32 2>
  %26 = insertelement <2 x i32> undef, i32 %inc, i32 0
  %27 = shufflevector <2 x i32> %26, <2 x i32> undef, <2 x i32> zeroinitializer
  %28 = shl <2 x i32> %25, %27
  %29 = or <2 x i32> %22, %28
  %shr.1 = ashr i32 %index.addr.031, 4
  %inc.1 = or i32 %i.029, 2
  %30 = insertelement <2 x i32> undef, i32 %shr.1, i32 0
  %31 = shufflevector <2 x i32> %30, <2 x i32> undef, <2 x i32> zeroinitializer
  %32 = and <2 x i32> %31, <i32 1, i32 2>
  %33 = insertelement <2 x i32> undef, i32 %inc.1, i32 0
  %34 = shufflevector <2 x i32> %33, <2 x i32> undef, <2 x i32> zeroinitializer
  %35 = shl <2 x i32> %32, %34
  %36 = or <2 x i32> %29, %35
  %shr.2 = ashr i32 %index.addr.031, 6
  %inc.2 = or i32 %i.029, 3
  %37 = insertelement <2 x i32> undef, i32 %shr.2, i32 0
  %38 = shufflevector <2 x i32> %37, <2 x i32> undef, <2 x i32> zeroinitializer
  %39 = and <2 x i32> %38, <i32 1, i32 2>
  %40 = insertelement <2 x i32> undef, i32 %inc.2, i32 0
  %41 = shufflevector <2 x i32> %40, <2 x i32> undef, <2 x i32> zeroinitializer
  %42 = shl <2 x i32> %39, %41
  %43 = or <2 x i32> %36, %42
  %shr.3 = ashr i32 %index.addr.031, 8
  %inc.3 = add nuw nsw i32 %i.029, 4
  %niter.nsub.3 = add i32 %niter, -4
  %niter.ncmp.3 = icmp eq i32 %niter.nsub.3, 0
  br i1 %niter.ncmp.3, label %for.cond.cleanup.loopexit.unr-lcssa, label %for.body
}

; Function Attrs: norecurse nounwind uwtable
define void @_Z11ptMakeBlock8_point3dIdEdii(%class._point3d* noalias nocapture sret %agg.result, %class._point3d* byval nocapture readonly align 8 %minpt, double %blocksize, i32 %log_numblocks, i32 %index) local_unnamed_addr #6 {
entry:
  %cmp43 = icmp sgt i32 %log_numblocks, 0
  br i1 %cmp43, label %for.body.preheader, label %for.cond.cleanup

for.body.preheader:                               ; preds = %entry
  %0 = add i32 %log_numblocks, -1
  %xtraiter = and i32 %log_numblocks, 3
  %1 = icmp ult i32 %0, 3
  br i1 %1, label %for.cond.cleanup.loopexit.unr-lcssa, label %for.body.preheader.new

for.body.preheader.new:                           ; preds = %for.body.preheader
  %unroll_iter = sub i32 %log_numblocks, %xtraiter
  br label %for.body

for.cond.cleanup.loopexit.unr-lcssa:              ; preds = %for.body, %for.body.preheader
  %or.lcssa.ph = phi i32 [ undef, %for.body.preheader ], [ %or.3, %for.body ]
  %or3.lcssa.ph = phi i32 [ undef, %for.body.preheader ], [ %or3.3, %for.body ]
  %or6.lcssa.ph = phi i32 [ undef, %for.body.preheader ], [ %or6.3, %for.body ]
  %index.addr.048.unr = phi i32 [ %index, %for.body.preheader ], [ %shr.3, %for.body ]
  %xindex.047.unr = phi i32 [ 0, %for.body.preheader ], [ %or.3, %for.body ]
  %yindex.046.unr = phi i32 [ 0, %for.body.preheader ], [ %or3.3, %for.body ]
  %i.045.unr = phi i32 [ 0, %for.body.preheader ], [ %inc.3, %for.body ]
  %zindex.044.unr = phi i32 [ 0, %for.body.preheader ], [ %or6.3, %for.body ]
  %lcmp.mod = icmp eq i32 %xtraiter, 0
  br i1 %lcmp.mod, label %for.cond.cleanup.loopexit, label %for.body.epil.preheader

for.body.epil.preheader:                          ; preds = %for.cond.cleanup.loopexit.unr-lcssa
  br label %for.body.epil

for.body.epil:                                    ; preds = %for.body.epil.preheader, %for.body.epil
  %index.addr.048.epil = phi i32 [ %shr.epil, %for.body.epil ], [ %index.addr.048.unr, %for.body.epil.preheader ]
  %xindex.047.epil = phi i32 [ %or.epil, %for.body.epil ], [ %xindex.047.unr, %for.body.epil.preheader ]
  %yindex.046.epil = phi i32 [ %or3.epil, %for.body.epil ], [ %yindex.046.unr, %for.body.epil.preheader ]
  %i.045.epil = phi i32 [ %inc.epil, %for.body.epil ], [ %i.045.unr, %for.body.epil.preheader ]
  %zindex.044.epil = phi i32 [ %or6.epil, %for.body.epil ], [ %zindex.044.unr, %for.body.epil.preheader ]
  %epil.iter = phi i32 [ %epil.iter.sub, %for.body.epil ], [ %xtraiter, %for.body.epil.preheader ]
  %and.epil = and i32 %index.addr.048.epil, 1
  %shl.epil = shl i32 %and.epil, %i.045.epil
  %or.epil = or i32 %shl.epil, %xindex.047.epil
  %and1.epil = and i32 %index.addr.048.epil, 2
  %shl2.epil = shl i32 %and1.epil, %i.045.epil
  %or3.epil = or i32 %shl2.epil, %yindex.046.epil
  %and4.epil = and i32 %index.addr.048.epil, 4
  %shl5.epil = shl i32 %and4.epil, %i.045.epil
  %or6.epil = or i32 %shl5.epil, %zindex.044.epil
  %shr.epil = ashr i32 %index.addr.048.epil, 3
  %inc.epil = add nuw nsw i32 %i.045.epil, 1
  %epil.iter.sub = add nsw i32 %epil.iter, -1
  %epil.iter.cmp = icmp eq i32 %epil.iter.sub, 0
  br i1 %epil.iter.cmp, label %for.cond.cleanup.loopexit, label %for.body.epil, !llvm.loop !17

for.cond.cleanup.loopexit:                        ; preds = %for.body.epil, %for.cond.cleanup.loopexit.unr-lcssa
  %or.lcssa = phi i32 [ %or.lcssa.ph, %for.cond.cleanup.loopexit.unr-lcssa ], [ %or.epil, %for.body.epil ]
  %or3.lcssa = phi i32 [ %or3.lcssa.ph, %for.cond.cleanup.loopexit.unr-lcssa ], [ %or3.epil, %for.body.epil ]
  %or6.lcssa = phi i32 [ %or6.lcssa.ph, %for.cond.cleanup.loopexit.unr-lcssa ], [ %or6.epil, %for.body.epil ]
  %phitmp = ashr i32 %or3.lcssa, 1
  %phitmp51 = ashr i32 %or6.lcssa, 2
  %2 = insertelement <2 x i32> undef, i32 %or.lcssa, i32 0
  %3 = insertelement <2 x i32> %2, i32 %phitmp, i32 1
  %4 = sitofp <2 x i32> %3 to <2 x double>
  %phitmp54 = sitofp i32 %phitmp51 to double
  %5 = fadd fast <2 x double> %4, <double 5.000000e-01, double 5.000000e-01>
  %phitmp57 = fadd fast double %phitmp54, 5.000000e-01
  br label %for.cond.cleanup

for.cond.cleanup:                                 ; preds = %for.cond.cleanup.loopexit, %entry
  %zindex.0.lcssa = phi double [ 5.000000e-01, %entry ], [ %phitmp57, %for.cond.cleanup.loopexit ]
  %6 = phi <2 x double> [ <double 5.000000e-01, double 5.000000e-01>, %entry ], [ %5, %for.cond.cleanup.loopexit ]
  %7 = bitcast %class._point3d* %minpt to <2 x double>*
  %8 = load <2 x double>, <2 x double>* %7, align 8, !tbaa !18
  %z = getelementptr inbounds %class._point3d, %class._point3d* %minpt, i64 0, i32 2
  %9 = load double, double* %z, align 8, !tbaa !12
  %10 = insertelement <2 x double> undef, double %blocksize, i32 0
  %11 = shufflevector <2 x double> %10, <2 x double> undef, <2 x i32> zeroinitializer
  %12 = fmul fast <2 x double> %6, %11
  %13 = fadd fast <2 x double> %12, %8
  %14 = fmul fast double %zindex.0.lcssa, %blocksize
  %add17.i = fadd fast double %9, %14
  %15 = bitcast %class._point3d* %agg.result to <2 x double>*
  store <2 x double> %13, <2 x double>* %15, align 8, !tbaa !18, !alias.scope !19
  %z.i.i = getelementptr inbounds %class._point3d, %class._point3d* %agg.result, i64 0, i32 2
  store double %add17.i, double* %z.i.i, align 8, !tbaa !12, !alias.scope !19
  ret void

for.body:                                         ; preds = %for.body, %for.body.preheader.new
  %index.addr.048 = phi i32 [ %index, %for.body.preheader.new ], [ %shr.3, %for.body ]
  %xindex.047 = phi i32 [ 0, %for.body.preheader.new ], [ %or.3, %for.body ]
  %yindex.046 = phi i32 [ 0, %for.body.preheader.new ], [ %or3.3, %for.body ]
  %i.045 = phi i32 [ 0, %for.body.preheader.new ], [ %inc.3, %for.body ]
  %zindex.044 = phi i32 [ 0, %for.body.preheader.new ], [ %or6.3, %for.body ]
  %niter = phi i32 [ %unroll_iter, %for.body.preheader.new ], [ %niter.nsub.3, %for.body ]
  %and = and i32 %index.addr.048, 1
  %shl = shl i32 %and, %i.045
  %or = or i32 %shl, %xindex.047
  %and1 = and i32 %index.addr.048, 2
  %shl2 = shl i32 %and1, %i.045
  %or3 = or i32 %shl2, %yindex.046
  %and4 = and i32 %index.addr.048, 4
  %shl5 = shl i32 %and4, %i.045
  %or6 = or i32 %shl5, %zindex.044
  %shr = ashr i32 %index.addr.048, 3
  %inc = or i32 %i.045, 1
  %and.1 = and i32 %shr, 1
  %shl.1 = shl i32 %and.1, %inc
  %or.1 = or i32 %or, %shl.1
  %and1.1 = and i32 %shr, 2
  %shl2.1 = shl i32 %and1.1, %inc
  %or3.1 = or i32 %or3, %shl2.1
  %and4.1 = and i32 %shr, 4
  %shl5.1 = shl i32 %and4.1, %inc
  %or6.1 = or i32 %or6, %shl5.1
  %shr.1 = ashr i32 %index.addr.048, 6
  %inc.1 = or i32 %i.045, 2
  %and.2 = and i32 %shr.1, 1
  %shl.2 = shl i32 %and.2, %inc.1
  %or.2 = or i32 %or.1, %shl.2
  %and1.2 = and i32 %shr.1, 2
  %shl2.2 = shl i32 %and1.2, %inc.1
  %or3.2 = or i32 %or3.1, %shl2.2
  %and4.2 = and i32 %shr.1, 4
  %shl5.2 = shl i32 %and4.2, %inc.1
  %or6.2 = or i32 %or6.1, %shl5.2
  %shr.2 = ashr i32 %index.addr.048, 9
  %inc.2 = or i32 %i.045, 3
  %and.3 = and i32 %shr.2, 1
  %shl.3 = shl i32 %and.3, %inc.2
  %or.3 = or i32 %or.2, %shl.3
  %and1.3 = and i32 %shr.2, 2
  %shl2.3 = shl i32 %and1.3, %inc.2
  %or3.3 = or i32 %or3.2, %shl2.3
  %and4.3 = and i32 %shr.2, 4
  %shl5.3 = shl i32 %and4.3, %inc.2
  %or6.3 = or i32 %or6.2, %shl5.3
  %shr.3 = ashr i32 %index.addr.048, 12
  %inc.3 = add nuw nsw i32 %i.045, 4
  %niter.nsub.3 = add i32 %niter, -4
  %niter.ncmp.3 = icmp eq i32 %niter.nsub.3, 0
  br i1 %niter.ncmp.3, label %for.cond.cleanup.loopexit.unr-lcssa, label %for.body
}

; Function Attrs: nounwind uwtable
define void @_ZN7benchIO13stringToWordsEPcl(%"struct.benchIO::words"* noalias nocapture sret %agg.result, i8* %Str, i64 %n) local_unnamed_addr #7 {
entry:
  %0 = tail call i32 @__cilkrts_get_nworkers()
  %__cilkrts_wc8118 = shl i32 %0, 3
  %cmp113 = icmp sgt i64 %n, 0
  br i1 %cmp113, label %pfor.detach.preheader, label %sync.continue

pfor.detach.preheader:                            ; preds = %entry
  %sub1 = add nsw i64 %n, -1
  %1 = zext i32 %__cilkrts_wc8118 to i64
  %2 = add i64 %n, -2
  %3 = add i64 %2, %1
  %4 = udiv i64 %3, %1
  %5 = icmp ult i64 %4, 2048
  %6 = select i1 %5, i64 %4, i64 2048
  tail call fastcc void @_ZN7benchIO13stringToWordsEPcl_pfor.detach.ls(i64 0, i64 %sub1, i64 %6, i8* %Str)
  br label %sync.continue

sync.continue:                                    ; preds = %entry, %pfor.detach.preheader
  %call5 = tail call noalias i8* @malloc(i64 %n) #2
  %7 = load i8, i8* %Str, align 1, !tbaa !22
  %tobool = icmp ne i8 %7, 0
  %frombool = zext i1 %tobool to i8
  store i8 %frombool, i8* %call5, align 1, !tbaa !23
  %cmp17111 = icmp sgt i64 %n, 1
  br i1 %cmp17111, label %pfor.detach19.preheader, label %sync.continue35

pfor.detach19.preheader:                          ; preds = %sync.continue
  %8 = add i64 %n, -2
  %9 = zext i32 %__cilkrts_wc8118 to i64
  %10 = add i64 %n, -3
  %11 = add i64 %10, %9
  %12 = udiv i64 %11, %9
  %13 = icmp ult i64 %12, 2048
  %14 = select i1 %13, i64 %12, i64 2048
  tail call fastcc void @_ZN7benchIO13stringToWordsEPcl_pfor.detach19.ls(i64 0, i64 %8, i64 %14, i8* nonnull %Str, i8* %call5)
  br label %sync.continue35

sync.continue35:                                  ; preds = %sync.continue, %pfor.detach19.preheader
  %call.i = tail call { i64*, i64 } @_ZN8sequence4packIllN5utils9identityFIlEEEE4_seqIT_EPS5_PbT0_S9_T1_(i64* null, i8* %call5, i64 0, i64 %n) #2
  %15 = extractvalue { i64*, i64 } %call.i, 0
  %16 = extractvalue { i64*, i64 } %call.i, 1
  %mul39 = shl i64 %16, 3
  %call40 = tail call noalias i8* @malloc(i64 %mul39) #2
  %cmp50109 = icmp sgt i64 %16, 0
  br i1 %cmp50109, label %pfor.detach52.preheader, label %sync.continue62

pfor.detach52.preheader:                          ; preds = %sync.continue35
  %17 = bitcast i8* %call40 to i8**
  %18 = add i64 %16, -1
  %19 = zext i32 %__cilkrts_wc8118 to i64
  %20 = add nsw i64 %19, -1
  %21 = add i64 %20, %18
  %22 = udiv i64 %21, %19
  %23 = icmp ult i64 %22, 2048
  %24 = select i1 %23, i64 %22, i64 2048
  tail call fastcc void @_ZN7benchIO13stringToWordsEPcl_pfor.detach52.ls(i64 0, i64 %18, i64 %24, i64* %15, i8* nonnull %Str, i8** %17)
  br label %sync.continue62

sync.continue62:                                  ; preds = %sync.continue35, %pfor.detach52.preheader
  %25 = bitcast i64* %15 to i8*
  tail call void @free(i8* %25) #2
  tail call void @free(i8* %call5) #2
  %n.i = getelementptr inbounds %"struct.benchIO::words", %"struct.benchIO::words"* %agg.result, i64 0, i32 0
  store i64 %n, i64* %n.i, align 8, !tbaa !25
  %Chars.i = getelementptr inbounds %"struct.benchIO::words", %"struct.benchIO::words"* %agg.result, i64 0, i32 1
  store i8* %Str, i8** %Chars.i, align 8, !tbaa !29
  %m.i = getelementptr inbounds %"struct.benchIO::words", %"struct.benchIO::words"* %agg.result, i64 0, i32 2
  store i64 %16, i64* %m.i, align 8, !tbaa !30
  %Strings.i = getelementptr inbounds %"struct.benchIO::words", %"struct.benchIO::words"* %agg.result, i64 0, i32 3
  %26 = bitcast i8*** %Strings.i to i8**
  store i8* %call40, i8** %26, align 8, !tbaa !31
  ret void
}

; Function Attrs: nounwind
declare noalias i8* @malloc(i64) local_unnamed_addr #1

; Function Attrs: nounwind
declare void @free(i8* nocapture) local_unnamed_addr #1

; Function Attrs: nounwind uwtable
define i32 @_ZN7benchIO17writeStringToFileEPclS0_(i8* %S, i64 %n, i8* %fileName) local_unnamed_addr #7 {
entry:
  %file = alloca %"class.std::basic_ofstream", align 8
  %0 = bitcast %"class.std::basic_ofstream"* %file to i8*
  call void @llvm.lifetime.start.p0i8(i64 512, i8* nonnull %0) #2
  call void @_ZNSt14basic_ofstreamIcSt11char_traitsIcEEC1EPKcSt13_Ios_Openmode(%"class.std::basic_ofstream"* nonnull %file, i8* %fileName, i32 20)
  %_M_file.i.i = getelementptr inbounds %"class.std::basic_ofstream", %"class.std::basic_ofstream"* %file, i64 0, i32 1, i32 2
  %call.i.i = call zeroext i1 @_ZNKSt12__basic_fileIcE7is_openEv(%"class.std::__basic_file"* nonnull %_M_file.i.i) #20
  br i1 %call.i.i, label %if.end, label %if.then

if.then:                                          ; preds = %entry
  %call1.i = call dereferenceable(272) %"class.std::basic_ostream"* @_ZSt16__ostream_insertIcSt11char_traitsIcEERSt13basic_ostreamIT_T0_ES6_PKS3_l(%"class.std::basic_ostream"* nonnull dereferenceable(272) @_ZSt4cout, i8* nonnull getelementptr inbounds ([22 x i8], [22 x i8]* @.str, i64 0, i64 0), i64 21) #2
  %tobool.i = icmp eq i8* %fileName, null
  br i1 %tobool.i, label %if.then.i, label %if.else.i

if.then.i:                                        ; preds = %if.then
  %vtable.i = load i8*, i8** bitcast (%"class.std::basic_ostream"* @_ZSt4cout to i8**), align 8, !tbaa !32
  %vbase.offset.ptr.i = getelementptr i8, i8* %vtable.i, i64 -24
  %1 = bitcast i8* %vbase.offset.ptr.i to i64*
  %vbase.offset.i = load i64, i64* %1, align 8
  %add.ptr.i = getelementptr inbounds i8, i8* bitcast (%"class.std::basic_ostream"* @_ZSt4cout to i8*), i64 %vbase.offset.i
  %2 = bitcast i8* %add.ptr.i to %"class.std::basic_ios"*
  %_M_streambuf_state.i.i.i = getelementptr inbounds i8, i8* %add.ptr.i, i64 32
  %3 = bitcast i8* %_M_streambuf_state.i.i.i to i32*
  %4 = load i32, i32* %3, align 8, !tbaa !34
  %or.i.i.i = or i32 %4, 1
  call void @_ZNSt9basic_iosIcSt11char_traitsIcEE5clearESt12_Ios_Iostate(%"class.std::basic_ios"* %2, i32 %or.i.i.i) #2
  br label %_ZStlsISt11char_traitsIcEERSt13basic_ostreamIcT_ES5_PKc.exit

if.else.i:                                        ; preds = %if.then
  %call.i.i10 = call i64 @strlen(i8* nonnull %fileName) #2
  %call1.i11 = call dereferenceable(272) %"class.std::basic_ostream"* @_ZSt16__ostream_insertIcSt11char_traitsIcEERSt13basic_ostreamIT_T0_ES6_PKS3_l(%"class.std::basic_ostream"* nonnull dereferenceable(272) @_ZSt4cout, i8* nonnull %fileName, i64 %call.i.i10) #2
  br label %_ZStlsISt11char_traitsIcEERSt13basic_ostreamIcT_ES5_PKc.exit

_ZStlsISt11char_traitsIcEERSt13basic_ostreamIcT_ES5_PKc.exit: ; preds = %if.then.i, %if.else.i
  %vtable.i12 = load i8*, i8** bitcast (%"class.std::basic_ostream"* @_ZSt4cout to i8**), align 8, !tbaa !32
  %vbase.offset.ptr.i13 = getelementptr i8, i8* %vtable.i12, i64 -24
  %5 = bitcast i8* %vbase.offset.ptr.i13 to i64*
  %vbase.offset.i14 = load i64, i64* %5, align 8
  %add.ptr.i15 = getelementptr inbounds i8, i8* bitcast (%"class.std::basic_ostream"* @_ZSt4cout to i8*), i64 %vbase.offset.i14
  %_M_ctype.i = getelementptr inbounds i8, i8* %add.ptr.i15, i64 240
  %6 = bitcast i8* %_M_ctype.i to %"class.std::ctype"**
  %7 = load %"class.std::ctype"*, %"class.std::ctype"** %6, align 8, !tbaa !41
  %tobool.i32 = icmp eq %"class.std::ctype"* %7, null
  br i1 %tobool.i32, label %if.then.i33, label %_ZSt13__check_facetISt5ctypeIcEERKT_PS3_.exit

if.then.i33:                                      ; preds = %_ZStlsISt11char_traitsIcEERSt13basic_ostreamIcT_ES5_PKc.exit
  call void @_ZSt16__throw_bad_castv() #21
  unreachable

_ZSt13__check_facetISt5ctypeIcEERKT_PS3_.exit:    ; preds = %_ZStlsISt11char_traitsIcEERSt13basic_ostreamIcT_ES5_PKc.exit
  %_M_widen_ok.i = getelementptr inbounds %"class.std::ctype", %"class.std::ctype"* %7, i64 0, i32 8
  %8 = load i8, i8* %_M_widen_ok.i, align 8, !tbaa !43
  %tobool.i28 = icmp eq i8 %8, 0
  br i1 %tobool.i28, label %if.end.i, label %if.then.i29

if.then.i29:                                      ; preds = %_ZSt13__check_facetISt5ctypeIcEERKT_PS3_.exit
  %arrayidx.i = getelementptr inbounds %"class.std::ctype", %"class.std::ctype"* %7, i64 0, i32 9, i64 10
  %9 = load i8, i8* %arrayidx.i, align 1, !tbaa !22
  br label %_ZNKSt5ctypeIcE5widenEc.exit

if.end.i:                                         ; preds = %_ZSt13__check_facetISt5ctypeIcEERKT_PS3_.exit
  call void @_ZNKSt5ctypeIcE13_M_widen_initEv(%"class.std::ctype"* nonnull %7) #2
  %10 = bitcast %"class.std::ctype"* %7 to i8 (%"class.std::ctype"*, i8)***
  %vtable.i30 = load i8 (%"class.std::ctype"*, i8)**, i8 (%"class.std::ctype"*, i8)*** %10, align 8, !tbaa !32
  %vfn.i = getelementptr inbounds i8 (%"class.std::ctype"*, i8)*, i8 (%"class.std::ctype"*, i8)** %vtable.i30, i64 6
  %11 = load i8 (%"class.std::ctype"*, i8)*, i8 (%"class.std::ctype"*, i8)** %vfn.i, align 8
  %call.i31 = call signext i8 %11(%"class.std::ctype"* nonnull %7, i8 signext 10) #2
  br label %_ZNKSt5ctypeIcE5widenEc.exit

_ZNKSt5ctypeIcE5widenEc.exit:                     ; preds = %if.then.i29, %if.end.i
  %retval.0.i = phi i8 [ %9, %if.then.i29 ], [ %call.i31, %if.end.i ]
  %call1.i17 = call dereferenceable(272) %"class.std::basic_ostream"* @_ZNSo3putEc(%"class.std::basic_ostream"* nonnull @_ZSt4cout, i8 signext %retval.0.i) #2
  %call.i = call dereferenceable(272) %"class.std::basic_ostream"* @_ZNSo5flushEv(%"class.std::basic_ostream"* nonnull %call1.i17) #2
  %.pre = getelementptr inbounds %"class.std::basic_ofstream", %"class.std::basic_ofstream"* %file, i64 0, i32 1
  br label %cleanup

if.end:                                           ; preds = %entry
  %12 = bitcast %"class.std::basic_ofstream"* %file to %"class.std::basic_ostream"*
  %call5 = call dereferenceable(272) %"class.std::basic_ostream"* @_ZNSo5writeEPKcl(%"class.std::basic_ostream"* nonnull %12, i8* %S, i64 %n) #2
  %_M_filebuf.i = getelementptr inbounds %"class.std::basic_ofstream", %"class.std::basic_ofstream"* %file, i64 0, i32 1
  %call.i18 = call %"class.std::basic_filebuf"* @_ZNSt13basic_filebufIcSt11char_traitsIcEE5closeEv(%"class.std::basic_filebuf"* nonnull %_M_filebuf.i) #2
  %tobool.i19 = icmp eq %"class.std::basic_filebuf"* %call.i18, null
  br i1 %tobool.i19, label %if.then.i26, label %cleanup

if.then.i26:                                      ; preds = %if.end
  %13 = bitcast %"class.std::basic_ofstream"* %file to i8**
  %vtable.i20 = load i8*, i8** %13, align 8, !tbaa !32
  %vbase.offset.ptr.i21 = getelementptr i8, i8* %vtable.i20, i64 -24
  %14 = bitcast i8* %vbase.offset.ptr.i21 to i64*
  %vbase.offset.i22 = load i64, i64* %14, align 8
  %add.ptr.i23 = getelementptr inbounds i8, i8* %0, i64 %vbase.offset.i22
  %15 = bitcast i8* %add.ptr.i23 to %"class.std::basic_ios"*
  %_M_streambuf_state.i.i.i24 = getelementptr inbounds i8, i8* %add.ptr.i23, i64 32
  %16 = bitcast i8* %_M_streambuf_state.i.i.i24 to i32*
  %17 = load i32, i32* %16, align 8, !tbaa !34
  %or.i.i.i25 = or i32 %17, 4
  call void @_ZNSt9basic_iosIcSt11char_traitsIcEE5clearESt12_Ios_Iostate(%"class.std::basic_ios"* %15, i32 %or.i.i.i25) #2
  br label %cleanup

cleanup:                                          ; preds = %if.then.i26, %if.end, %_ZNKSt5ctypeIcE5widenEc.exit
  %_M_filebuf.i.i.pre-phi = phi %"class.std::basic_filebuf"* [ %_M_filebuf.i, %if.then.i26 ], [ %_M_filebuf.i, %if.end ], [ %.pre, %_ZNKSt5ctypeIcE5widenEc.exit ]
  %retval.0 = phi i32 [ 0, %if.then.i26 ], [ 0, %if.end ], [ 1, %_ZNKSt5ctypeIcE5widenEc.exit ]
  %18 = load i64, i64* bitcast ([4 x i8*]* @_ZTTSt14basic_ofstreamIcSt11char_traitsIcEE to i64*), align 8
  %19 = bitcast %"class.std::basic_ofstream"* %file to i64*
  store i64 %18, i64* %19, align 8, !tbaa !32
  %20 = load i64, i64* bitcast (i8** getelementptr inbounds ([4 x i8*], [4 x i8*]* @_ZTTSt14basic_ofstreamIcSt11char_traitsIcEE, i64 0, i64 3) to i64*), align 8
  %vtable.cast.i.i = inttoptr i64 %18 to i8*
  %vbase.offset.ptr.i.i = getelementptr i8, i8* %vtable.cast.i.i, i64 -24
  %21 = bitcast i8* %vbase.offset.ptr.i.i to i64*
  %vbase.offset.i.i = load i64, i64* %21, align 8
  %add.ptr.i.i = getelementptr inbounds i8, i8* %0, i64 %vbase.offset.i.i
  %22 = bitcast i8* %add.ptr.i.i to i64*
  store i64 %20, i64* %22, align 8, !tbaa !32
  %23 = getelementptr inbounds %"class.std::basic_ofstream", %"class.std::basic_ofstream"* %file, i64 0, i32 1, i32 0, i32 0
  store i32 (...)** bitcast (i8** getelementptr inbounds ({ [16 x i8*] }, { [16 x i8*] }* @_ZTVSt13basic_filebufIcSt11char_traitsIcEE, i64 0, inrange i32 0, i64 2) to i32 (...)**), i32 (...)*** %23, align 8, !tbaa !32
  %call.i.i.i = call %"class.std::basic_filebuf"* @_ZNSt13basic_filebufIcSt11char_traitsIcEE5closeEv(%"class.std::basic_filebuf"* nonnull %_M_filebuf.i.i.pre-phi) #2
  call void @_ZNSt12__basic_fileIcED1Ev(%"class.std::__basic_file"* nonnull %_M_file.i.i) #2
  store i32 (...)** bitcast (i8** getelementptr inbounds ({ [16 x i8*] }, { [16 x i8*] }* @_ZTVSt15basic_streambufIcSt11char_traitsIcEE, i64 0, inrange i32 0, i64 2) to i32 (...)**), i32 (...)*** %23, align 8, !tbaa !32
  %_M_buf_locale.i.i.i.i = getelementptr inbounds %"class.std::basic_ofstream", %"class.std::basic_ofstream"* %file, i64 0, i32 1, i32 0, i32 7
  call void @_ZNSt6localeD1Ev(%"class.std::locale"* nonnull %_M_buf_locale.i.i.i.i) #2
  %24 = getelementptr inbounds %"class.std::basic_ofstream", %"class.std::basic_ofstream"* %file, i64 0, i32 2, i32 0
  call void @_ZNSt8ios_baseD2Ev(%"class.std::ios_base"* nonnull %24) #2
  call void @llvm.lifetime.end.p0i8(i64 512, i8* nonnull %0) #2
  ret i32 %retval.0
}

; Function Attrs: nounwind uwtable
declare void @_ZNSt14basic_ofstreamIcSt11char_traitsIcEEC1EPKcSt13_Ios_Openmode(%"class.std::basic_ofstream"*, i8*, i32) unnamed_addr #7 align 2

; Function Attrs: inlinehint nounwind uwtable
declare dereferenceable(272) %"class.std::basic_ostream"* @_ZStlsISt11char_traitsIcEERSt13basic_ostreamIcT_ES5_PKc(%"class.std::basic_ostream"* dereferenceable(272), i8*) local_unnamed_addr #8

; Function Attrs: inlinehint nounwind uwtable
declare dereferenceable(272) %"class.std::basic_ostream"* @_ZSt4endlIcSt11char_traitsIcEERSt13basic_ostreamIT_T0_ES6_(%"class.std::basic_ostream"* dereferenceable(272)) local_unnamed_addr #8

declare dereferenceable(272) %"class.std::basic_ostream"* @_ZNSo5writeEPKcl(%"class.std::basic_ostream"*, i8*, i64) local_unnamed_addr #0

; Function Attrs: nounwind uwtable
define { i8*, i64 } @_ZN7benchIO18readStringFromFileEPc(i8* %fileName) local_unnamed_addr #7 {
entry:
  %0 = tail call i32 @__cilkrts_get_nworkers()
  %__cilkrts_wc8 = shl i32 %0, 3
  %file = alloca %"class.std::basic_ifstream", align 8
  %1 = bitcast %"class.std::basic_ifstream"* %file to i8*
  call void @llvm.lifetime.start.p0i8(i64 520, i8* nonnull %1) #2
  call void @_ZNSt14basic_ifstreamIcSt11char_traitsIcEEC1EPKcSt13_Ios_Openmode(%"class.std::basic_ifstream"* nonnull %file, i8* %fileName, i32 14)
  %_M_file.i.i = getelementptr inbounds %"class.std::basic_ifstream", %"class.std::basic_ifstream"* %file, i64 0, i32 1, i32 2
  %call.i.i = call zeroext i1 @_ZNKSt12__basic_fileIcE7is_openEv(%"class.std::__basic_file"* nonnull %_M_file.i.i) #20
  br i1 %call.i.i, label %if.end, label %if.then

if.then:                                          ; preds = %entry
  %call3 = call dereferenceable(272) %"class.std::basic_ostream"* @_ZStlsISt11char_traitsIcEERSt13basic_ostreamIcT_ES5_PKc(%"class.std::basic_ostream"* nonnull dereferenceable(272) @_ZSt4cout, i8* getelementptr inbounds ([22 x i8], [22 x i8]* @.str, i64 0, i64 0))
  %call4 = call dereferenceable(272) %"class.std::basic_ostream"* @_ZStlsISt11char_traitsIcEERSt13basic_ostreamIcT_ES5_PKc(%"class.std::basic_ostream"* nonnull dereferenceable(272) %call3, i8* %fileName)
  %call.i = call dereferenceable(272) %"class.std::basic_ostream"* @_ZSt4endlIcSt11char_traitsIcEERSt13basic_ostreamIT_T0_ES6_(%"class.std::basic_ostream"* nonnull dereferenceable(272) %call4) #2
  call void @abort() #21
  unreachable

if.end:                                           ; preds = %entry
  %2 = bitcast %"class.std::basic_ifstream"* %file to %"class.std::basic_istream"*
  %call6 = call { i64, i64 } @_ZNSi5tellgEv(%"class.std::basic_istream"* nonnull %2) #2
  %3 = extractvalue { i64, i64 } %call6, 0
  %call8 = call dereferenceable(280) %"class.std::basic_istream"* @_ZNSi5seekgElSt12_Ios_Seekdir(%"class.std::basic_istream"* nonnull %2, i64 0, i32 0) #2
  %call9 = call { i64, i64 } @_ZNSi5tellgEv(%"class.std::basic_istream"* nonnull %2) #2
  %4 = extractvalue { i64, i64 } %call9, 0
  %sub = sub nsw i64 %3, %4
  %add = add nsw i64 %sub, 1
  %call12 = call noalias i8* @malloc(i64 %add) #2
  %cmp37 = icmp slt i64 %sub, 0
  br i1 %cmp37, label %sync.continue, label %pfor.detach.lr.ph

pfor.detach.lr.ph:                                ; preds = %if.end
  %5 = zext i32 %__cilkrts_wc8 to i64
  %6 = add nsw i64 %5, -1
  %7 = add i64 %6, %sub
  %8 = udiv i64 %7, %5
  %9 = icmp ult i64 %8, 2048
  %10 = select i1 %9, i64 %8, i64 2048
  call fastcc void @_ZN7benchIO18readStringFromFileEPc_pfor.detach.ls(i64 0, i64 %sub, i64 %10, i8* %call12)
  br label %sync.continue

sync.continue:                                    ; preds = %if.end, %pfor.detach.lr.ph
  %call19 = call dereferenceable(280) %"class.std::basic_istream"* @_ZNSi4readEPcl(%"class.std::basic_istream"* nonnull %2, i8* %call12, i64 %sub) #2
  %_M_filebuf.i = getelementptr inbounds %"class.std::basic_ifstream", %"class.std::basic_ifstream"* %file, i64 0, i32 1
  %call.i36 = call %"class.std::basic_filebuf"* @_ZNSt13basic_filebufIcSt11char_traitsIcEE5closeEv(%"class.std::basic_filebuf"* nonnull %_M_filebuf.i) #2
  %tobool.i = icmp eq %"class.std::basic_filebuf"* %call.i36, null
  br i1 %tobool.i, label %if.then.i, label %_ZNSt14basic_ifstreamIcSt11char_traitsIcEE5closeEv.exit

if.then.i:                                        ; preds = %sync.continue
  %11 = bitcast %"class.std::basic_ifstream"* %file to i8**
  %vtable.i = load i8*, i8** %11, align 8, !tbaa !32
  %vbase.offset.ptr.i = getelementptr i8, i8* %vtable.i, i64 -24
  %12 = bitcast i8* %vbase.offset.ptr.i to i64*
  %vbase.offset.i = load i64, i64* %12, align 8
  %add.ptr.i = getelementptr inbounds i8, i8* %1, i64 %vbase.offset.i
  %13 = bitcast i8* %add.ptr.i to %"class.std::basic_ios"*
  %_M_streambuf_state.i.i.i = getelementptr inbounds i8, i8* %add.ptr.i, i64 32
  %14 = bitcast i8* %_M_streambuf_state.i.i.i to i32*
  %15 = load i32, i32* %14, align 8, !tbaa !34
  %or.i.i.i = or i32 %15, 4
  call void @_ZNSt9basic_iosIcSt11char_traitsIcEE5clearESt12_Ios_Iostate(%"class.std::basic_ios"* %13, i32 %or.i.i.i) #2
  br label %_ZNSt14basic_ifstreamIcSt11char_traitsIcEE5closeEv.exit

_ZNSt14basic_ifstreamIcSt11char_traitsIcEE5closeEv.exit: ; preds = %sync.continue, %if.then.i
  %16 = load i64, i64* bitcast ([4 x i8*]* @_ZTTSt14basic_ifstreamIcSt11char_traitsIcEE to i64*), align 8
  %17 = bitcast %"class.std::basic_ifstream"* %file to i64*
  store i64 %16, i64* %17, align 8, !tbaa !32
  %18 = load i64, i64* bitcast (i8** getelementptr inbounds ([4 x i8*], [4 x i8*]* @_ZTTSt14basic_ifstreamIcSt11char_traitsIcEE, i64 0, i64 3) to i64*), align 8
  %vtable.cast.i.i = inttoptr i64 %16 to i8*
  %vbase.offset.ptr.i.i = getelementptr i8, i8* %vtable.cast.i.i, i64 -24
  %19 = bitcast i8* %vbase.offset.ptr.i.i to i64*
  %vbase.offset.i.i = load i64, i64* %19, align 8
  %add.ptr.i.i = getelementptr inbounds i8, i8* %1, i64 %vbase.offset.i.i
  %20 = bitcast i8* %add.ptr.i.i to i64*
  store i64 %18, i64* %20, align 8, !tbaa !32
  %21 = getelementptr inbounds %"class.std::basic_filebuf", %"class.std::basic_filebuf"* %_M_filebuf.i, i64 0, i32 0, i32 0
  store i32 (...)** bitcast (i8** getelementptr inbounds ({ [16 x i8*] }, { [16 x i8*] }* @_ZTVSt13basic_filebufIcSt11char_traitsIcEE, i64 0, inrange i32 0, i64 2) to i32 (...)**), i32 (...)*** %21, align 8, !tbaa !32
  %call.i.i.i = call %"class.std::basic_filebuf"* @_ZNSt13basic_filebufIcSt11char_traitsIcEE5closeEv(%"class.std::basic_filebuf"* nonnull %_M_filebuf.i) #2
  call void @_ZNSt12__basic_fileIcED1Ev(%"class.std::__basic_file"* nonnull %_M_file.i.i) #2
  store i32 (...)** bitcast (i8** getelementptr inbounds ({ [16 x i8*] }, { [16 x i8*] }* @_ZTVSt15basic_streambufIcSt11char_traitsIcEE, i64 0, inrange i32 0, i64 2) to i32 (...)**), i32 (...)*** %21, align 8, !tbaa !32
  %_M_buf_locale.i.i.i.i = getelementptr inbounds %"class.std::basic_ifstream", %"class.std::basic_ifstream"* %file, i64 0, i32 1, i32 0, i32 7
  call void @_ZNSt6localeD1Ev(%"class.std::locale"* nonnull %_M_buf_locale.i.i.i.i) #2
  %22 = load i64, i64* bitcast (i8** getelementptr inbounds ([4 x i8*], [4 x i8*]* @_ZTTSt14basic_ifstreamIcSt11char_traitsIcEE, i64 0, i64 1) to i64*), align 8
  store i64 %22, i64* %17, align 8, !tbaa !32
  %23 = load i64, i64* bitcast (i8** getelementptr inbounds ([4 x i8*], [4 x i8*]* @_ZTTSt14basic_ifstreamIcSt11char_traitsIcEE, i64 0, i64 2) to i64*), align 8
  %vtable.cast.i.i.i = inttoptr i64 %22 to i8*
  %vbase.offset.ptr.i.i.i = getelementptr i8, i8* %vtable.cast.i.i.i, i64 -24
  %24 = bitcast i8* %vbase.offset.ptr.i.i.i to i64*
  %vbase.offset.i.i.i = load i64, i64* %24, align 8
  %add.ptr.i.i.i = getelementptr inbounds i8, i8* %1, i64 %vbase.offset.i.i.i
  %25 = bitcast i8* %add.ptr.i.i.i to i64*
  store i64 %23, i64* %25, align 8, !tbaa !32
  %26 = getelementptr inbounds %"class.std::basic_ifstream", %"class.std::basic_ifstream"* %file, i64 0, i32 0, i32 1
  store i64 0, i64* %26, align 8, !tbaa !45
  %27 = getelementptr inbounds %"class.std::basic_ifstream", %"class.std::basic_ifstream"* %file, i64 0, i32 2, i32 0
  call void @_ZNSt8ios_baseD2Ev(%"class.std::ios_base"* nonnull %27) #2
  call void @llvm.lifetime.end.p0i8(i64 520, i8* nonnull %1) #2
  %.fca.0.insert = insertvalue { i8*, i64 } undef, i8* %call12, 0
  %.fca.1.insert = insertvalue { i8*, i64 } %.fca.0.insert, i64 %sub, 1
  ret { i8*, i64 } %.fca.1.insert
}

; Function Attrs: nounwind uwtable
declare void @_ZNSt14basic_ifstreamIcSt11char_traitsIcEEC1EPKcSt13_Ios_Openmode(%"class.std::basic_ifstream"*, i8*, i32) unnamed_addr #7 align 2

; Function Attrs: noreturn nounwind
declare void @abort() local_unnamed_addr #9

declare { i64, i64 } @_ZNSi5tellgEv(%"class.std::basic_istream"*) local_unnamed_addr #0

declare dereferenceable(280) %"class.std::basic_istream"* @_ZNSi5seekgElSt12_Ios_Seekdir(%"class.std::basic_istream"*, i64, i32) local_unnamed_addr #0

declare dereferenceable(280) %"class.std::basic_istream"* @_ZNSi4readEPcl(%"class.std::basic_istream"*, i8*, i64) local_unnamed_addr #0

; Function Attrs: nounwind uwtable
declare void @_ZNSt7__cxx1112basic_stringIcSt11char_traitsIcESaIcEED2Ev(%"class.std::__cxx11::basic_string"*) unnamed_addr #7 align 2

; Function Attrs: nounwind uwtable
define void @_ZN7benchIO28readTrianglesFromFileNodeEleEPc(%struct.triangles* noalias nocapture sret %agg.result, i8* readonly %fname) local_unnamed_addr #7 {
entry:
  %__dnew.i.i.i.i104 = alloca i64, align 8
  %__dnew.i.i.i.i = alloca i64, align 8
  %nfilename = alloca %"class.std::__cxx11::basic_string", align 8
  %W = alloca %"struct.benchIO::words", align 8
  %efilename = alloca %"class.std::__cxx11::basic_string", align 8
  %WE = alloca %"struct.benchIO::words", align 8
  %0 = bitcast %"class.std::__cxx11::basic_string"* %nfilename to i8*
  call void @llvm.lifetime.start.p0i8(i64 32, i8* nonnull %0) #2
  %1 = getelementptr inbounds %"class.std::__cxx11::basic_string", %"class.std::__cxx11::basic_string"* %nfilename, i64 0, i32 2
  %2 = bitcast %"class.std::__cxx11::basic_string"* %nfilename to %union.anon.1**
  store %union.anon.1* %1, %union.anon.1** %2, align 8, !tbaa !47
  %tobool.i = icmp eq i8* %fname, null
  %3 = bitcast %union.anon.1* %1 to i8*
  br i1 %tobool.i, label %cond.end.predBB2.split.i, label %if.end.i.i.i.i

if.end.i.i.i.i:                                   ; preds = %entry
  %call.i.i = call i64 @strlen(i8* nonnull %fname) #2
  %4 = bitcast i64* %__dnew.i.i.i.i to i8*
  call void @llvm.lifetime.start.p0i8(i64 8, i8* nonnull %4) #2
  store i64 %call.i.i, i64* %__dnew.i.i.i.i, align 8, !tbaa !49
  %cmp3.i.i.i.i = icmp ugt i64 %call.i.i, 15
  br i1 %cmp3.i.i.i.i, label %if.then4.i.i.i.i, label %if.end.if.end6_crit_edge.i.i.i.i

if.end.if.end6_crit_edge.i.i.i.i:                 ; preds = %if.end.i.i.i.i
  %_M_p.i.phi.trans.insert.i.i.i.i = getelementptr inbounds %"class.std::__cxx11::basic_string", %"class.std::__cxx11::basic_string"* %nfilename, i64 0, i32 0, i32 0
  br label %if.end6.i.i.i.i

if.then4.i.i.i.i:                                 ; preds = %if.end.i.i.i.i
  %call5.i.i.i.i = call i8* @_ZNSt7__cxx1112basic_stringIcSt11char_traitsIcESaIcEE9_M_createERmm(%"class.std::__cxx11::basic_string"* nonnull %nfilename, i64* nonnull dereferenceable(8) %__dnew.i.i.i.i, i64 0) #2
  %_M_p.i13.i.i.i.i = getelementptr inbounds %"class.std::__cxx11::basic_string", %"class.std::__cxx11::basic_string"* %nfilename, i64 0, i32 0, i32 0
  store i8* %call5.i.i.i.i, i8** %_M_p.i13.i.i.i.i, align 8, !tbaa !50
  %5 = load i64, i64* %__dnew.i.i.i.i, align 8, !tbaa !49
  %_M_allocated_capacity.i.i.i.i.i = getelementptr inbounds %"class.std::__cxx11::basic_string", %"class.std::__cxx11::basic_string"* %nfilename, i64 0, i32 2, i32 0
  store i64 %5, i64* %_M_allocated_capacity.i.i.i.i.i, align 8, !tbaa !22
  br label %if.end6.i.i.i.i

if.end6.i.i.i.i:                                  ; preds = %if.then4.i.i.i.i, %if.end.if.end6_crit_edge.i.i.i.i
  %_M_p.i.pre-phi.i.i.i.i = phi i8** [ %_M_p.i.phi.trans.insert.i.i.i.i, %if.end.if.end6_crit_edge.i.i.i.i ], [ %_M_p.i13.i.i.i.i, %if.then4.i.i.i.i ]
  %6 = phi i8* [ %3, %if.end.if.end6_crit_edge.i.i.i.i ], [ %call5.i.i.i.i, %if.then4.i.i.i.i ]
  switch i64 %call.i.i, label %if.end.i.i.i.i.i.i.i [
    i64 1, label %if.then.i.i.i.i.i.i
    i64 0, label %_ZNSt7__cxx1112basic_stringIcSt11char_traitsIcESaIcEEC2EPKcRKS3_.exit
  ]

if.then.i.i.i.i.i.i:                              ; preds = %if.end6.i.i.i.i
  %7 = load i8, i8* %fname, align 1, !tbaa !22
  store i8 %7, i8* %6, align 1, !tbaa !22
  br label %_ZNSt7__cxx1112basic_stringIcSt11char_traitsIcESaIcEEC2EPKcRKS3_.exit

if.end.i.i.i.i.i.i.i:                             ; preds = %if.end6.i.i.i.i
  call void @llvm.memcpy.p0i8.p0i8.i64(i8* %6, i8* nonnull %fname, i64 %call.i.i, i32 1, i1 false) #2
  br label %_ZNSt7__cxx1112basic_stringIcSt11char_traitsIcESaIcEEC2EPKcRKS3_.exit

cond.end.predBB2.split.i:                         ; preds = %entry
  call void @_ZSt19__throw_logic_errorPKc(i8* getelementptr inbounds ([42 x i8], [42 x i8]* @.str.20, i64 0, i64 0)) #21
  unreachable

_ZNSt7__cxx1112basic_stringIcSt11char_traitsIcESaIcEEC2EPKcRKS3_.exit: ; preds = %if.end6.i.i.i.i, %if.then.i.i.i.i.i.i, %if.end.i.i.i.i.i.i.i
  %8 = load i64, i64* %__dnew.i.i.i.i, align 8, !tbaa !49
  %_M_string_length.i.i.i.i.i.i = getelementptr inbounds %"class.std::__cxx11::basic_string", %"class.std::__cxx11::basic_string"* %nfilename, i64 0, i32 1
  store i64 %8, i64* %_M_string_length.i.i.i.i.i.i, align 8, !tbaa !52
  %9 = load i8*, i8** %_M_p.i.pre-phi.i.i.i.i, align 8, !tbaa !50
  %arrayidx.i.i.i.i.i = getelementptr inbounds i8, i8* %9, i64 %8
  store i8 0, i8* %arrayidx.i.i.i.i.i, align 1, !tbaa !22
  call void @llvm.lifetime.end.p0i8(i64 8, i8* nonnull %4) #2
  %10 = load i64, i64* %_M_string_length.i.i.i.i.i.i, align 8, !tbaa !52
  %sub3.i.i = sub i64 9223372036854775807, %10
  %cmp.i.i = icmp ult i64 %sub3.i.i, 5
  br i1 %cmp.i.i, label %if.then.i.i, label %_ZNSt7__cxx1112basic_stringIcSt11char_traitsIcESaIcEE6appendEPKc.exit

if.then.i.i:                                      ; preds = %_ZNSt7__cxx1112basic_stringIcSt11char_traitsIcESaIcEEC2EPKcRKS3_.exit
  call void @_ZSt20__throw_length_errorPKc(i8* getelementptr inbounds ([21 x i8], [21 x i8]* @.str.23, i64 0, i64 0)) #21
  unreachable

_ZNSt7__cxx1112basic_stringIcSt11char_traitsIcESaIcEE6appendEPKc.exit: ; preds = %_ZNSt7__cxx1112basic_stringIcSt11char_traitsIcESaIcEEC2EPKcRKS3_.exit
  %call2.i = call dereferenceable(32) %"class.std::__cxx11::basic_string"* @_ZNSt7__cxx1112basic_stringIcSt11char_traitsIcESaIcEE9_M_appendEPKcm(%"class.std::__cxx11::basic_string"* nonnull %nfilename, i8* getelementptr inbounds ([6 x i8], [6 x i8]* @.str.12, i64 0, i64 0), i64 5) #2
  %_M_p.i.i = getelementptr inbounds %"class.std::__cxx11::basic_string", %"class.std::__cxx11::basic_string"* %call2.i, i64 0, i32 0, i32 0
  %11 = load i8*, i8** %_M_p.i.i, align 8, !tbaa !50
  %call2 = call { i8*, i64 } @_ZN7benchIO18readStringFromFileEPc(i8* %11)
  %12 = extractvalue { i8*, i64 } %call2, 0
  %13 = extractvalue { i8*, i64 } %call2, 1
  %14 = bitcast %"struct.benchIO::words"* %W to i8*
  call void @llvm.lifetime.start.p0i8(i64 32, i8* nonnull %14) #2
  call void @_ZN7benchIO13stringToWordsEPcl(%"struct.benchIO::words"* nonnull sret %W, i8* %12, i64 %13)
  %Strings = getelementptr inbounds %"struct.benchIO::words", %"struct.benchIO::words"* %W, i64 0, i32 3
  %15 = load i8**, i8*** %Strings, align 8, !tbaa !31
  %16 = load i8*, i8** %15, align 8, !tbaa !53
  %call.i102 = call i64 @strtol(i8* nocapture nonnull %16, i8** null, i32 10) #2
  %conv = trunc i64 %call.i102 to i32
  %numPoints = getelementptr inbounds %struct.triangles, %struct.triangles* %agg.result, i64 0, i32 0
  store i32 %conv, i32* %numPoints, align 8, !tbaa !54
  %m = getelementptr inbounds %"struct.benchIO::words", %"struct.benchIO::words"* %W, i64 0, i32 2
  %17 = load i64, i64* %m, align 8, !tbaa !30
  %mul = shl i32 %conv, 2
  %add = add nsw i32 %mul, 4
  %conv5 = sext i32 %add to i64
  %cmp = icmp slt i64 %17, %conv5
  br i1 %cmp, label %if.then, label %if.end

if.then:                                          ; preds = %_ZNSt7__cxx1112basic_stringIcSt11char_traitsIcESaIcEE6appendEPKc.exit
  %call6 = call dereferenceable(272) %"class.std::basic_ostream"* @_ZStlsISt11char_traitsIcEERSt13basic_ostreamIcT_ES5_PKc(%"class.std::basic_ostream"* nonnull dereferenceable(272) @_ZSt4cout, i8* getelementptr inbounds ([46 x i8], [46 x i8]* @.str.13, i64 0, i64 0))
  %call.i103 = call dereferenceable(272) %"class.std::basic_ostream"* @_ZSt4endlIcSt11char_traitsIcEERSt13basic_ostreamIT_T0_ES6_(%"class.std::basic_ostream"* nonnull dereferenceable(272) %call6) #2
  call void @abort() #21
  unreachable

if.end:                                           ; preds = %_ZNSt7__cxx1112basic_stringIcSt11char_traitsIcESaIcEE6appendEPKc.exit
  %sext = shl i64 %call.i102, 32
  %mul10 = ashr exact i64 %sext, 28
  %call11 = call noalias i8* @malloc(i64 %mul10) #2
  %P = getelementptr inbounds %struct.triangles, %struct.triangles* %agg.result, i64 0, i32 2
  %18 = bitcast %class._point2d** %P to i8**
  store i8* %call11, i8** %18, align 8, !tbaa !56
  %cmp13148 = icmp sgt i32 %conv, 0
  %19 = bitcast i8* %call11 to %class._point2d*
  br i1 %cmp13148, label %for.body.lr.ph, label %if.end.i.i.i.i108

for.body.lr.ph:                                   ; preds = %if.end
  %wide.trip.count = and i64 %call.i102, 4294967295
  br label %for.body

if.end.i.i.i.i108:                                ; preds = %for.body, %if.end
  %20 = bitcast %"class.std::__cxx11::basic_string"* %efilename to i8*
  call void @llvm.lifetime.start.p0i8(i64 32, i8* nonnull %20) #2
  %21 = getelementptr inbounds %"class.std::__cxx11::basic_string", %"class.std::__cxx11::basic_string"* %efilename, i64 0, i32 2
  %22 = bitcast %"class.std::__cxx11::basic_string"* %efilename to %union.anon.1**
  store %union.anon.1* %21, %union.anon.1** %22, align 8, !tbaa !47
  %23 = bitcast %union.anon.1* %21 to i8*
  %call.i.i106 = call i64 @strlen(i8* nonnull %fname) #2
  %24 = bitcast i64* %__dnew.i.i.i.i104 to i8*
  call void @llvm.lifetime.start.p0i8(i64 8, i8* nonnull %24) #2
  store i64 %call.i.i106, i64* %__dnew.i.i.i.i104, align 8, !tbaa !49
  %cmp3.i.i.i.i107 = icmp ugt i64 %call.i.i106, 15
  br i1 %cmp3.i.i.i.i107, label %if.then4.i.i.i.i114, label %if.end.if.end6_crit_edge.i.i.i.i110

if.end.if.end6_crit_edge.i.i.i.i110:              ; preds = %if.end.i.i.i.i108
  %_M_p.i.phi.trans.insert.i.i.i.i109 = getelementptr inbounds %"class.std::__cxx11::basic_string", %"class.std::__cxx11::basic_string"* %efilename, i64 0, i32 0, i32 0
  br label %if.end6.i.i.i.i116

if.then4.i.i.i.i114:                              ; preds = %if.end.i.i.i.i108
  %call5.i.i.i.i111 = call i8* @_ZNSt7__cxx1112basic_stringIcSt11char_traitsIcESaIcEE9_M_createERmm(%"class.std::__cxx11::basic_string"* nonnull %efilename, i64* nonnull dereferenceable(8) %__dnew.i.i.i.i104, i64 0) #2
  %_M_p.i13.i.i.i.i112 = getelementptr inbounds %"class.std::__cxx11::basic_string", %"class.std::__cxx11::basic_string"* %efilename, i64 0, i32 0, i32 0
  store i8* %call5.i.i.i.i111, i8** %_M_p.i13.i.i.i.i112, align 8, !tbaa !50
  %25 = load i64, i64* %__dnew.i.i.i.i104, align 8, !tbaa !49
  %_M_allocated_capacity.i.i.i.i.i113 = getelementptr inbounds %"class.std::__cxx11::basic_string", %"class.std::__cxx11::basic_string"* %efilename, i64 0, i32 2, i32 0
  store i64 %25, i64* %_M_allocated_capacity.i.i.i.i.i113, align 8, !tbaa !22
  br label %if.end6.i.i.i.i116

if.end6.i.i.i.i116:                               ; preds = %if.then4.i.i.i.i114, %if.end.if.end6_crit_edge.i.i.i.i110
  %_M_p.i.pre-phi.i.i.i.i115 = phi i8** [ %_M_p.i.phi.trans.insert.i.i.i.i109, %if.end.if.end6_crit_edge.i.i.i.i110 ], [ %_M_p.i13.i.i.i.i112, %if.then4.i.i.i.i114 ]
  %26 = phi i8* [ %23, %if.end.if.end6_crit_edge.i.i.i.i110 ], [ %call5.i.i.i.i111, %if.then4.i.i.i.i114 ]
  switch i64 %call.i.i106, label %if.end.i.i.i.i.i.i.i118 [
    i64 1, label %if.then.i.i.i.i.i.i117
    i64 0, label %_ZNSt7__cxx1112basic_stringIcSt11char_traitsIcESaIcEEC2EPKcRKS3_.exit122
  ]

if.then.i.i.i.i.i.i117:                           ; preds = %if.end6.i.i.i.i116
  %27 = load i8, i8* %fname, align 1, !tbaa !22
  store i8 %27, i8* %26, align 1, !tbaa !22
  br label %_ZNSt7__cxx1112basic_stringIcSt11char_traitsIcESaIcEEC2EPKcRKS3_.exit122

if.end.i.i.i.i.i.i.i118:                          ; preds = %if.end6.i.i.i.i116
  call void @llvm.memcpy.p0i8.p0i8.i64(i8* %26, i8* nonnull %fname, i64 %call.i.i106, i32 1, i1 false) #2
  br label %_ZNSt7__cxx1112basic_stringIcSt11char_traitsIcESaIcEEC2EPKcRKS3_.exit122

_ZNSt7__cxx1112basic_stringIcSt11char_traitsIcESaIcEEC2EPKcRKS3_.exit122: ; preds = %if.end6.i.i.i.i116, %if.then.i.i.i.i.i.i117, %if.end.i.i.i.i.i.i.i118
  %28 = load i64, i64* %__dnew.i.i.i.i104, align 8, !tbaa !49
  %_M_string_length.i.i.i.i.i.i120 = getelementptr inbounds %"class.std::__cxx11::basic_string", %"class.std::__cxx11::basic_string"* %efilename, i64 0, i32 1
  store i64 %28, i64* %_M_string_length.i.i.i.i.i.i120, align 8, !tbaa !52
  %29 = load i8*, i8** %_M_p.i.pre-phi.i.i.i.i115, align 8, !tbaa !50
  %arrayidx.i.i.i.i.i121 = getelementptr inbounds i8, i8* %29, i64 %28
  store i8 0, i8* %arrayidx.i.i.i.i.i121, align 1, !tbaa !22
  call void @llvm.lifetime.end.p0i8(i64 8, i8* nonnull %24) #2
  %30 = load i64, i64* %_M_string_length.i.i.i.i.i.i120, align 8, !tbaa !52
  %31 = or i64 %30, 3
  %cmp.i.i126 = icmp eq i64 %31, 9223372036854775807
  br i1 %cmp.i.i126, label %if.then.i.i127, label %_ZNSt7__cxx1112basic_stringIcSt11char_traitsIcESaIcEE6appendEPKc.exit129

if.then.i.i127:                                   ; preds = %_ZNSt7__cxx1112basic_stringIcSt11char_traitsIcESaIcEEC2EPKcRKS3_.exit122
  call void @_ZSt20__throw_length_errorPKc(i8* getelementptr inbounds ([21 x i8], [21 x i8]* @.str.23, i64 0, i64 0)) #21
  unreachable

_ZNSt7__cxx1112basic_stringIcSt11char_traitsIcESaIcEE6appendEPKc.exit129: ; preds = %_ZNSt7__cxx1112basic_stringIcSt11char_traitsIcESaIcEEC2EPKcRKS3_.exit122
  %call2.i128 = call dereferenceable(32) %"class.std::__cxx11::basic_string"* @_ZNSt7__cxx1112basic_stringIcSt11char_traitsIcESaIcEE9_M_appendEPKcm(%"class.std::__cxx11::basic_string"* nonnull %efilename, i8* getelementptr inbounds ([5 x i8], [5 x i8]* @.str.14, i64 0, i64 0), i64 4) #2
  %_M_p.i.i130 = getelementptr inbounds %"class.std::__cxx11::basic_string", %"class.std::__cxx11::basic_string"* %call2.i128, i64 0, i32 0, i32 0
  %32 = load i8*, i8** %_M_p.i.i130, align 8, !tbaa !50
  %call32 = call { i8*, i64 } @_ZN7benchIO18readStringFromFileEPc(i8* %32)
  %33 = extractvalue { i8*, i64 } %call32, 0
  %34 = extractvalue { i8*, i64 } %call32, 1
  %35 = bitcast %"struct.benchIO::words"* %WE to i8*
  call void @llvm.lifetime.start.p0i8(i64 32, i8* nonnull %35) #2
  call void @_ZN7benchIO13stringToWordsEPcl(%"struct.benchIO::words"* nonnull sret %WE, i8* %33, i64 %34)
  %Strings35 = getelementptr inbounds %"struct.benchIO::words", %"struct.benchIO::words"* %WE, i64 0, i32 3
  %36 = load i8**, i8*** %Strings35, align 8, !tbaa !31
  %37 = load i8*, i8** %36, align 8, !tbaa !53
  %call.i131 = call i64 @strtol(i8* nocapture nonnull %37, i8** null, i32 10) #2
  %conv38 = trunc i64 %call.i131 to i32
  %numTriangles = getelementptr inbounds %struct.triangles, %struct.triangles* %agg.result, i64 0, i32 1
  store i32 %conv38, i32* %numTriangles, align 4, !tbaa !57
  %m39 = getelementptr inbounds %"struct.benchIO::words", %"struct.benchIO::words"* %WE, i64 0, i32 2
  %38 = load i64, i64* %m39, align 8, !tbaa !30
  %mul41 = shl nsw i32 %conv38, 2
  %add42 = or i32 %mul41, 3
  %conv43 = sext i32 %add42 to i64
  %cmp44 = icmp slt i64 %38, %conv43
  br i1 %cmp44, label %if.then45, label %if.end48

for.body:                                         ; preds = %for.body, %for.body.lr.ph
  %indvars.iv = phi i64 [ 0, %for.body.lr.ph ], [ %indvars.iv.next, %for.body ]
  %39 = trunc i64 %indvars.iv to i32
  %mul16 = shl nsw i32 %39, 2
  %add17 = add nuw nsw i32 %mul16, 5
  %40 = zext i32 %add17 to i64
  %arrayidx18 = getelementptr inbounds i8*, i8** %15, i64 %40
  %41 = load i8*, i8** %arrayidx18, align 8, !tbaa !53
  %call.i132 = call fast double @strtod(i8* nocapture nonnull %41, i8** null) #2
  %add22 = add nuw nsw i32 %mul16, 6
  %42 = zext i32 %add22 to i64
  %arrayidx24 = getelementptr inbounds i8*, i8** %15, i64 %42
  %43 = load i8*, i8** %arrayidx24, align 8, !tbaa !53
  %call.i133 = call fast double @strtod(i8* nocapture nonnull %43, i8** null) #2
  %ref.tmp14.sroa.0.0..sroa_idx = getelementptr inbounds %class._point2d, %class._point2d* %19, i64 %indvars.iv, i32 0
  store double %call.i132, double* %ref.tmp14.sroa.0.0..sroa_idx, align 8
  %ref.tmp14.sroa.4.0..sroa_idx142 = getelementptr inbounds %class._point2d, %class._point2d* %19, i64 %indvars.iv, i32 1
  store double %call.i133, double* %ref.tmp14.sroa.4.0..sroa_idx142, align 8
  %indvars.iv.next = add nuw nsw i64 %indvars.iv, 1
  %exitcond = icmp eq i64 %indvars.iv.next, %wide.trip.count
  br i1 %exitcond, label %if.end.i.i.i.i108, label %for.body

if.then45:                                        ; preds = %_ZNSt7__cxx1112basic_stringIcSt11char_traitsIcESaIcEE6appendEPKc.exit129
  %call46 = call dereferenceable(272) %"class.std::basic_ostream"* @_ZStlsISt11char_traitsIcEERSt13basic_ostreamIcT_ES5_PKc(%"class.std::basic_ostream"* nonnull dereferenceable(272) @_ZSt4cout, i8* getelementptr inbounds ([46 x i8], [46 x i8]* @.str.13, i64 0, i64 0))
  %call.i134 = call dereferenceable(272) %"class.std::basic_ostream"* @_ZSt4endlIcSt11char_traitsIcEERSt13basic_ostreamIT_T0_ES6_(%"class.std::basic_ostream"* nonnull dereferenceable(272) %call46) #2
  call void @abort() #21
  unreachable

if.end48:                                         ; preds = %_ZNSt7__cxx1112basic_stringIcSt11char_traitsIcESaIcEE6appendEPKc.exit129
  %sext100 = shl i64 %call.i131, 32
  %conv50 = ashr exact i64 %sext100, 32
  %mul51 = mul nsw i64 %conv50, 12
  %call52 = call noalias i8* @malloc(i64 %mul51) #2
  %T = getelementptr inbounds %struct.triangles, %struct.triangles* %agg.result, i64 0, i32 3
  %44 = bitcast %struct.triangle** %T to i8**
  store i8* %call52, i8** %44, align 8, !tbaa !58
  %cmp57146 = icmp sgt i64 %sext100, 0
  %45 = bitcast i8* %call52 to %struct.triangle*
  br i1 %cmp57146, label %for.body59.preheader, label %for.cond.cleanup58

for.body59.preheader:                             ; preds = %if.end48
  br label %for.body59

for.cond.cleanup58:                               ; preds = %for.body59, %if.end48
  call void @llvm.lifetime.end.p0i8(i64 32, i8* nonnull %35) #2
  %_M_p.i.i.i.i = getelementptr inbounds %"class.std::__cxx11::basic_string", %"class.std::__cxx11::basic_string"* %efilename, i64 0, i32 0, i32 0
  %46 = load i8*, i8** %_M_p.i.i.i.i, align 8, !tbaa !50
  %cmp.i.i.i = icmp eq i8* %46, %23
  br i1 %cmp.i.i.i, label %_ZNSt7__cxx1112basic_stringIcSt11char_traitsIcESaIcEED2Ev.exit, label %if.then.i.i135

if.then.i.i135:                                   ; preds = %for.cond.cleanup58
  call void @_ZdlPv(i8* %46) #2
  br label %_ZNSt7__cxx1112basic_stringIcSt11char_traitsIcESaIcEED2Ev.exit

_ZNSt7__cxx1112basic_stringIcSt11char_traitsIcESaIcEED2Ev.exit: ; preds = %for.cond.cleanup58, %if.then.i.i135
  call void @llvm.lifetime.end.p0i8(i64 32, i8* nonnull %20) #2
  call void @llvm.lifetime.end.p0i8(i64 32, i8* nonnull %14) #2
  %_M_p.i.i.i.i136 = getelementptr inbounds %"class.std::__cxx11::basic_string", %"class.std::__cxx11::basic_string"* %nfilename, i64 0, i32 0, i32 0
  %47 = load i8*, i8** %_M_p.i.i.i.i136, align 8, !tbaa !50
  %cmp.i.i.i138 = icmp eq i8* %47, %3
  br i1 %cmp.i.i.i138, label %_ZNSt7__cxx1112basic_stringIcSt11char_traitsIcESaIcEED2Ev.exit140, label %if.then.i.i139

if.then.i.i139:                                   ; preds = %_ZNSt7__cxx1112basic_stringIcSt11char_traitsIcESaIcEED2Ev.exit
  call void @_ZdlPv(i8* %47) #2
  br label %_ZNSt7__cxx1112basic_stringIcSt11char_traitsIcESaIcEED2Ev.exit140

_ZNSt7__cxx1112basic_stringIcSt11char_traitsIcESaIcEED2Ev.exit140: ; preds = %_ZNSt7__cxx1112basic_stringIcSt11char_traitsIcESaIcEED2Ev.exit, %if.then.i.i139
  call void @llvm.lifetime.end.p0i8(i64 32, i8* nonnull %0) #2
  ret void

for.body59:                                       ; preds = %for.body59.preheader, %for.body59
  %i53.0147 = phi i64 [ %inc80, %for.body59 ], [ 0, %for.body59.preheader ]
  %mul65 = shl i64 %i53.0147, 2
  %add66 = add nuw nsw i64 %mul65, 4
  %arrayidx69 = getelementptr inbounds i8*, i8** %36, i64 %add66
  %48 = load i8*, i8** %arrayidx69, align 8, !tbaa !53
  %call.i = call i64 @strtol(i8* nocapture nonnull %48, i8** null, i32 10) #2
  %conv71 = trunc i64 %call.i to i32
  %arrayidx75 = getelementptr inbounds %struct.triangle, %struct.triangle* %45, i64 %i53.0147, i32 0, i64 0
  store i32 %conv71, i32* %arrayidx75, align 4, !tbaa !59
  %add68.1 = add nuw nsw i64 %mul65, 5
  %arrayidx69.1 = getelementptr inbounds i8*, i8** %36, i64 %add68.1
  %49 = load i8*, i8** %arrayidx69.1, align 8, !tbaa !53
  %call.i.1 = call i64 @strtol(i8* nocapture nonnull %49, i8** null, i32 10) #2
  %conv71.1 = trunc i64 %call.i.1 to i32
  %arrayidx75.1 = getelementptr inbounds %struct.triangle, %struct.triangle* %45, i64 %i53.0147, i32 0, i64 1
  store i32 %conv71.1, i32* %arrayidx75.1, align 4, !tbaa !59
  %add68.2 = add nuw nsw i64 %mul65, 6
  %arrayidx69.2 = getelementptr inbounds i8*, i8** %36, i64 %add68.2
  %50 = load i8*, i8** %arrayidx69.2, align 8, !tbaa !53
  %call.i.2 = call i64 @strtol(i8* nocapture nonnull %50, i8** null, i32 10) #2
  %conv71.2 = trunc i64 %call.i.2 to i32
  %arrayidx75.2 = getelementptr inbounds %struct.triangle, %struct.triangle* %45, i64 %i53.0147, i32 0, i64 2
  store i32 %conv71.2, i32* %arrayidx75.2, align 4, !tbaa !59
  %inc80 = add nuw nsw i64 %i53.0147, 1
  %cmp57 = icmp slt i64 %inc80, %conv50
  br i1 %cmp57, label %for.body59, label %for.cond.cleanup58
}

; Function Attrs: argmemonly nounwind
declare void @llvm.memcpy.p0i8.p0i8.i64(i8* nocapture writeonly, i8* nocapture readonly, i64, i32, i1) #4

; Function Attrs: norecurse nounwind uwtable
define i32 @main(i32 %argc, i8** %argv) local_unnamed_addr #6 {
entry:
  %__dnew.i.i.i.i.i = alloca i64, align 8
  %__dnew.i.i.i.i = alloca i64, align 8
  %P = alloca %struct.commandLine, align 8
  %agg.tmp = alloca %"class.std::__cxx11::basic_string", align 8
  %agg.tmp1 = alloca %"class.std::__cxx11::basic_string", align 8
  %agg.tmp4 = alloca %"class.std::__cxx11::basic_string", align 8
  %agg.tmp7 = alloca %"class.std::__cxx11::basic_string", align 8
  %agg.tmp10 = alloca %"class.std::__cxx11::basic_string", align 8
  %0 = bitcast %struct.commandLine* %P to i8*
  call void @llvm.lifetime.start.p0i8(i64 48, i8* nonnull %0) #2
  %1 = getelementptr inbounds %"class.std::__cxx11::basic_string", %"class.std::__cxx11::basic_string"* %agg.tmp, i64 0, i32 2
  %2 = bitcast %"class.std::__cxx11::basic_string"* %agg.tmp to %union.anon.1**
  store %union.anon.1* %1, %union.anon.1** %2, align 8, !tbaa !47
  %3 = bitcast %union.anon.1* %1 to i8*
  %4 = bitcast i64* %__dnew.i.i.i.i to i8*
  call void @llvm.lifetime.start.p0i8(i64 8, i8* nonnull %4) #2
  store i64 64, i64* %__dnew.i.i.i.i, align 8, !tbaa !49
  %call5.i.i.i.i = call i8* @_ZNSt7__cxx1112basic_stringIcSt11char_traitsIcESaIcEE9_M_createERmm(%"class.std::__cxx11::basic_string"* nonnull %agg.tmp, i64* nonnull dereferenceable(8) %__dnew.i.i.i.i, i64 0) #2
  %_M_p.i13.i.i.i.i = getelementptr inbounds %"class.std::__cxx11::basic_string", %"class.std::__cxx11::basic_string"* %agg.tmp, i64 0, i32 0, i32 0
  store i8* %call5.i.i.i.i, i8** %_M_p.i13.i.i.i.i, align 8, !tbaa !50
  %5 = load i64, i64* %__dnew.i.i.i.i, align 8, !tbaa !49
  %_M_allocated_capacity.i.i.i.i.i = getelementptr inbounds %"class.std::__cxx11::basic_string", %"class.std::__cxx11::basic_string"* %agg.tmp, i64 0, i32 2, i32 0
  store i64 %5, i64* %_M_allocated_capacity.i.i.i.i.i, align 8, !tbaa !22
  call void @llvm.memcpy.p0i8.p0i8.i64(i8* %call5.i.i.i.i, i8* nonnull getelementptr inbounds ([65 x i8], [65 x i8]* @.str.15, i64 0, i64 0), i64 64, i32 1, i1 false) #2
  %_M_string_length.i.i.i.i.i.i = getelementptr inbounds %"class.std::__cxx11::basic_string", %"class.std::__cxx11::basic_string"* %agg.tmp, i64 0, i32 1
  store i64 %5, i64* %_M_string_length.i.i.i.i.i.i, align 8, !tbaa !52
  %arrayidx.i.i.i.i.i = getelementptr inbounds i8, i8* %call5.i.i.i.i, i64 %5
  store i8 0, i8* %arrayidx.i.i.i.i.i, align 1, !tbaa !22
  call void @llvm.lifetime.end.p0i8(i64 8, i8* nonnull %4) #2
  %argc.i = getelementptr inbounds %struct.commandLine, %struct.commandLine* %P, i64 0, i32 0
  store i32 %argc, i32* %argc.i, align 8, !tbaa !60
  %argv.i = getelementptr inbounds %struct.commandLine, %struct.commandLine* %P, i64 0, i32 1
  store i8** %argv, i8*** %argv.i, align 8, !tbaa !62
  %comLine.i = getelementptr inbounds %struct.commandLine, %struct.commandLine* %P, i64 0, i32 2
  %6 = getelementptr inbounds %struct.commandLine, %struct.commandLine* %P, i64 0, i32 2, i32 2
  %7 = bitcast %"class.std::__cxx11::basic_string"* %comLine.i to %union.anon.1**
  store %union.anon.1* %6, %union.anon.1** %7, align 8, !tbaa !47
  %8 = load i8*, i8** %_M_p.i13.i.i.i.i, align 8, !tbaa !50
  %9 = load i64, i64* %_M_string_length.i.i.i.i.i.i, align 8, !tbaa !52
  %cmp.i.i.i.i.i.i = icmp ne i8* %8, null
  %cmp.i.i.i.i.i = icmp eq i64 %9, 0
  %or.cond.i.i.i.i.i = or i1 %cmp.i.i.i.i.i.i, %cmp.i.i.i.i.i
  %10 = bitcast %union.anon.1* %6 to i8*
  br i1 %or.cond.i.i.i.i.i, label %if.end.i.i.i.i.i, label %if.then.i.i.i.i.i

if.then.i.i.i.i.i:                                ; preds = %entry
  call void @_ZSt19__throw_logic_errorPKc(i8* getelementptr inbounds ([42 x i8], [42 x i8]* @.str.20, i64 0, i64 0)) #21
  unreachable

if.end.i.i.i.i.i:                                 ; preds = %entry
  %11 = bitcast i64* %__dnew.i.i.i.i.i to i8*
  call void @llvm.lifetime.start.p0i8(i64 8, i8* nonnull %11) #2
  store i64 %9, i64* %__dnew.i.i.i.i.i, align 8, !tbaa !49
  %cmp3.i.i.i.i.i = icmp ugt i64 %9, 15
  br i1 %cmp3.i.i.i.i.i, label %if.then4.i.i.i.i.i, label %if.end.if.end6_crit_edge.i.i.i.i.i

if.end.if.end6_crit_edge.i.i.i.i.i:               ; preds = %if.end.i.i.i.i.i
  %_M_p.i.phi.trans.insert.i.i.i.i.i = getelementptr inbounds %"class.std::__cxx11::basic_string", %"class.std::__cxx11::basic_string"* %comLine.i, i64 0, i32 0, i32 0
  br label %if.end6.i.i.i.i.i

if.then4.i.i.i.i.i:                               ; preds = %if.end.i.i.i.i.i
  %call5.i.i.i.i.i = call i8* @_ZNSt7__cxx1112basic_stringIcSt11char_traitsIcESaIcEE9_M_createERmm(%"class.std::__cxx11::basic_string"* nonnull %comLine.i, i64* nonnull dereferenceable(8) %__dnew.i.i.i.i.i, i64 0) #2
  %_M_p.i13.i.i.i.i.i = getelementptr inbounds %"class.std::__cxx11::basic_string", %"class.std::__cxx11::basic_string"* %comLine.i, i64 0, i32 0, i32 0
  store i8* %call5.i.i.i.i.i, i8** %_M_p.i13.i.i.i.i.i, align 8, !tbaa !50
  %12 = load i64, i64* %__dnew.i.i.i.i.i, align 8, !tbaa !49
  %_M_allocated_capacity.i.i.i.i.i.i = getelementptr inbounds %struct.commandLine, %struct.commandLine* %P, i64 0, i32 2, i32 2, i32 0
  store i64 %12, i64* %_M_allocated_capacity.i.i.i.i.i.i, align 8, !tbaa !22
  br label %if.end6.i.i.i.i.i

if.end6.i.i.i.i.i:                                ; preds = %if.then4.i.i.i.i.i, %if.end.if.end6_crit_edge.i.i.i.i.i
  %_M_p.i.pre-phi.i.i.i.i.i = phi i8** [ %_M_p.i.phi.trans.insert.i.i.i.i.i, %if.end.if.end6_crit_edge.i.i.i.i.i ], [ %_M_p.i13.i.i.i.i.i, %if.then4.i.i.i.i.i ]
  %13 = phi i8* [ %10, %if.end.if.end6_crit_edge.i.i.i.i.i ], [ %call5.i.i.i.i.i, %if.then4.i.i.i.i.i ]
  switch i64 %9, label %if.end.i.i.i.i.i.i.i.i [
    i64 1, label %if.then.i.i.i.i.i.i.i
    i64 0, label %_ZN11commandLineC2EiPPcNSt7__cxx1112basic_stringIcSt11char_traitsIcESaIcEEE.exit
  ]

if.then.i.i.i.i.i.i.i:                            ; preds = %if.end6.i.i.i.i.i
  %14 = load i8, i8* %8, align 1, !tbaa !22
  store i8 %14, i8* %13, align 1, !tbaa !22
  br label %_ZN11commandLineC2EiPPcNSt7__cxx1112basic_stringIcSt11char_traitsIcESaIcEEE.exit

if.end.i.i.i.i.i.i.i.i:                           ; preds = %if.end6.i.i.i.i.i
  call void @llvm.memcpy.p0i8.p0i8.i64(i8* %13, i8* %8, i64 %9, i32 1, i1 false) #2
  br label %_ZN11commandLineC2EiPPcNSt7__cxx1112basic_stringIcSt11char_traitsIcESaIcEEE.exit

_ZN11commandLineC2EiPPcNSt7__cxx1112basic_stringIcSt11char_traitsIcESaIcEEE.exit: ; preds = %if.end6.i.i.i.i.i, %if.then.i.i.i.i.i.i.i, %if.end.i.i.i.i.i.i.i.i
  %15 = load i64, i64* %__dnew.i.i.i.i.i, align 8, !tbaa !49
  %_M_string_length.i.i.i.i.i.i.i = getelementptr inbounds %struct.commandLine, %struct.commandLine* %P, i64 0, i32 2, i32 1
  store i64 %15, i64* %_M_string_length.i.i.i.i.i.i.i, align 8, !tbaa !52
  %16 = load i8*, i8** %_M_p.i.pre-phi.i.i.i.i.i, align 8, !tbaa !50
  %arrayidx.i.i.i.i.i.i = getelementptr inbounds i8, i8* %16, i64 %15
  store i8 0, i8* %arrayidx.i.i.i.i.i.i, align 1, !tbaa !22
  call void @llvm.lifetime.end.p0i8(i64 8, i8* nonnull %11) #2
  %17 = load i8*, i8** %_M_p.i13.i.i.i.i, align 8, !tbaa !50
  %cmp.i.i.i = icmp eq i8* %17, %3
  br i1 %cmp.i.i.i, label %_ZNSt7__cxx1112basic_stringIcSt11char_traitsIcESaIcEED2Ev.exit, label %if.then.i.i

if.then.i.i:                                      ; preds = %_ZN11commandLineC2EiPPcNSt7__cxx1112basic_stringIcSt11char_traitsIcESaIcEEE.exit
  call void @_ZdlPv(i8* %17) #2
  br label %_ZNSt7__cxx1112basic_stringIcSt11char_traitsIcESaIcEED2Ev.exit

_ZNSt7__cxx1112basic_stringIcSt11char_traitsIcESaIcEED2Ev.exit: ; preds = %_ZN11commandLineC2EiPPcNSt7__cxx1112basic_stringIcSt11char_traitsIcESaIcEEE.exit, %if.then.i.i
  %18 = load i32, i32* %argc.i, align 8, !tbaa !60
  %cmp.i = icmp slt i32 %18, 2
  br i1 %cmp.i, label %if.then.i, label %_ZN11commandLine11getArgumentEi.exit

if.then.i:                                        ; preds = %_ZNSt7__cxx1112basic_stringIcSt11char_traitsIcESaIcEED2Ev.exit
  %call.i.i70 = call dereferenceable(272) %"class.std::basic_ostream"* @_ZStlsISt11char_traitsIcEERSt13basic_ostreamIcT_ES5_PKc(%"class.std::basic_ostream"* nonnull dereferenceable(272) @_ZSt4cout, i8* getelementptr inbounds ([8 x i8], [8 x i8]* @.str.21, i64 0, i64 0)) #2
  %19 = load i8**, i8*** %argv.i, align 8, !tbaa !62
  %20 = load i8*, i8** %19, align 8, !tbaa !53
  %call2.i.i = call dereferenceable(272) %"class.std::basic_ostream"* @_ZStlsISt11char_traitsIcEERSt13basic_ostreamIcT_ES5_PKc(%"class.std::basic_ostream"* nonnull dereferenceable(272) %call.i.i70, i8* %20) #2
  %call3.i.i = call dereferenceable(272) %"class.std::basic_ostream"* @_ZStlsISt11char_traitsIcEERSt13basic_ostreamIcT_ES5_PKc(%"class.std::basic_ostream"* nonnull dereferenceable(272) %call2.i.i, i8* getelementptr inbounds ([2 x i8], [2 x i8]* @.str.22, i64 0, i64 0)) #2
  %call4.i.i = call dereferenceable(272) %"class.std::basic_ostream"* @_ZStlsIcSt11char_traitsIcESaIcEERSt13basic_ostreamIT_T0_ES7_RKNSt7__cxx1112basic_stringIS4_S5_T1_EE(%"class.std::basic_ostream"* nonnull dereferenceable(272) %call3.i.i, %"class.std::__cxx11::basic_string"* nonnull dereferenceable(32) %comLine.i) #2
  %call.i.i.i = call dereferenceable(272) %"class.std::basic_ostream"* @_ZSt4endlIcSt11char_traitsIcEERSt13basic_ostreamIT_T0_ES6_(%"class.std::basic_ostream"* nonnull dereferenceable(272) %call4.i.i) #2
  call void @abort() #21
  unreachable

_ZN11commandLine11getArgumentEi.exit:             ; preds = %_ZNSt7__cxx1112basic_stringIcSt11char_traitsIcESaIcEED2Ev.exit
  %21 = load i8**, i8*** %argv.i, align 8, !tbaa !62
  %sub3.i = add i32 %18, -1
  %idxprom.i = sext i32 %sub3.i to i64
  %arrayidx.i = getelementptr inbounds i8*, i8** %21, i64 %idxprom.i
  %22 = load i8*, i8** %arrayidx.i, align 8, !tbaa !53
  %23 = getelementptr inbounds %"class.std::__cxx11::basic_string", %"class.std::__cxx11::basic_string"* %agg.tmp1, i64 0, i32 2
  %24 = bitcast %"class.std::__cxx11::basic_string"* %agg.tmp1 to %union.anon.1**
  store %union.anon.1* %23, %union.anon.1** %24, align 8, !tbaa !47
  %25 = bitcast %union.anon.1* %23 to i8*
  %_M_p.i.phi.trans.insert.i.i.i.i75 = getelementptr inbounds %"class.std::__cxx11::basic_string", %"class.std::__cxx11::basic_string"* %agg.tmp1, i64 0, i32 0, i32 0
  %26 = bitcast %union.anon.1* %23 to i16*
  store i16 28461, i16* %26, align 8
  %_M_string_length.i.i.i.i.i.i85 = getelementptr inbounds %"class.std::__cxx11::basic_string", %"class.std::__cxx11::basic_string"* %agg.tmp1, i64 0, i32 1
  store i64 2, i64* %_M_string_length.i.i.i.i.i.i85, align 8, !tbaa !52
  %arrayidx.i.i.i.i.i86 = getelementptr inbounds i8, i8* %25, i64 2
  store i8 0, i8* %arrayidx.i.i.i.i.i86, align 2, !tbaa !22
  %call3 = call i8* @_ZN11commandLine14getOptionValueENSt7__cxx1112basic_stringIcSt11char_traitsIcESaIcEEE(%struct.commandLine* nonnull %P, %"class.std::__cxx11::basic_string"* nonnull %agg.tmp1)
  %27 = load i8*, i8** %_M_p.i.phi.trans.insert.i.i.i.i75, align 8, !tbaa !50
  %cmp.i.i.i90 = icmp eq i8* %27, %25
  br i1 %cmp.i.i.i90, label %_ZNSt7__cxx1112basic_stringIcSt11char_traitsIcESaIcEED2Ev.exit92, label %if.then.i.i91

if.then.i.i91:                                    ; preds = %_ZN11commandLine11getArgumentEi.exit
  call void @_ZdlPv(i8* %27) #2
  br label %_ZNSt7__cxx1112basic_stringIcSt11char_traitsIcESaIcEED2Ev.exit92

_ZNSt7__cxx1112basic_stringIcSt11char_traitsIcESaIcEED2Ev.exit92: ; preds = %_ZN11commandLine11getArgumentEi.exit, %if.then.i.i91
  %28 = getelementptr inbounds %"class.std::__cxx11::basic_string", %"class.std::__cxx11::basic_string"* %agg.tmp4, i64 0, i32 2
  %29 = bitcast %"class.std::__cxx11::basic_string"* %agg.tmp4 to %union.anon.1**
  store %union.anon.1* %28, %union.anon.1** %29, align 8, !tbaa !47
  %30 = bitcast %union.anon.1* %28 to i8*
  %_M_p.i.phi.trans.insert.i.i.i.i96 = getelementptr inbounds %"class.std::__cxx11::basic_string", %"class.std::__cxx11::basic_string"* %agg.tmp4, i64 0, i32 0, i32 0
  %31 = bitcast %union.anon.1* %28 to i16*
  store i16 29229, i16* %31, align 8
  %_M_string_length.i.i.i.i.i.i106 = getelementptr inbounds %"class.std::__cxx11::basic_string", %"class.std::__cxx11::basic_string"* %agg.tmp4, i64 0, i32 1
  store i64 2, i64* %_M_string_length.i.i.i.i.i.i106, align 8, !tbaa !52
  %arrayidx.i.i.i.i.i107 = getelementptr inbounds i8, i8* %30, i64 2
  store i8 0, i8* %arrayidx.i.i.i.i.i107, align 2, !tbaa !22
  %call6 = call i32 @_ZN11commandLine17getOptionIntValueENSt7__cxx1112basic_stringIcSt11char_traitsIcESaIcEEEi(%struct.commandLine* nonnull %P, %"class.std::__cxx11::basic_string"* nonnull %agg.tmp4, i32 1)
  %32 = load i8*, i8** %_M_p.i.phi.trans.insert.i.i.i.i96, align 8, !tbaa !50
  %cmp.i.i.i111 = icmp eq i8* %32, %30
  br i1 %cmp.i.i.i111, label %_ZNSt7__cxx1112basic_stringIcSt11char_traitsIcESaIcEED2Ev.exit113, label %if.then.i.i112

if.then.i.i112:                                   ; preds = %_ZNSt7__cxx1112basic_stringIcSt11char_traitsIcESaIcEED2Ev.exit92
  call void @_ZdlPv(i8* %32) #2
  br label %_ZNSt7__cxx1112basic_stringIcSt11char_traitsIcESaIcEED2Ev.exit113

_ZNSt7__cxx1112basic_stringIcSt11char_traitsIcESaIcEED2Ev.exit113: ; preds = %_ZNSt7__cxx1112basic_stringIcSt11char_traitsIcESaIcEED2Ev.exit92, %if.then.i.i112
  %33 = getelementptr inbounds %"class.std::__cxx11::basic_string", %"class.std::__cxx11::basic_string"* %agg.tmp7, i64 0, i32 2
  %34 = bitcast %"class.std::__cxx11::basic_string"* %agg.tmp7 to %union.anon.1**
  store %union.anon.1* %33, %union.anon.1** %34, align 8, !tbaa !47
  %35 = bitcast %union.anon.1* %33 to i8*
  %_M_p.i.phi.trans.insert.i.i.i.i117 = getelementptr inbounds %"class.std::__cxx11::basic_string", %"class.std::__cxx11::basic_string"* %agg.tmp7, i64 0, i32 0, i32 0
  %36 = bitcast %union.anon.1* %33 to i16*
  store i16 27437, i16* %36, align 8
  %_M_string_length.i.i.i.i.i.i127 = getelementptr inbounds %"class.std::__cxx11::basic_string", %"class.std::__cxx11::basic_string"* %agg.tmp7, i64 0, i32 1
  store i64 2, i64* %_M_string_length.i.i.i.i.i.i127, align 8, !tbaa !52
  %arrayidx.i.i.i.i.i128 = getelementptr inbounds i8, i8* %35, i64 2
  store i8 0, i8* %arrayidx.i.i.i.i.i128, align 2, !tbaa !22
  %call9 = call i32 @_ZN11commandLine17getOptionIntValueENSt7__cxx1112basic_stringIcSt11char_traitsIcESaIcEEEi(%struct.commandLine* nonnull %P, %"class.std::__cxx11::basic_string"* nonnull %agg.tmp7, i32 1)
  %37 = load i8*, i8** %_M_p.i.phi.trans.insert.i.i.i.i117, align 8, !tbaa !50
  %cmp.i.i.i132 = icmp eq i8* %37, %35
  br i1 %cmp.i.i.i132, label %_ZNSt7__cxx1112basic_stringIcSt11char_traitsIcESaIcEED2Ev.exit134, label %if.then.i.i133

if.then.i.i133:                                   ; preds = %_ZNSt7__cxx1112basic_stringIcSt11char_traitsIcESaIcEED2Ev.exit113
  call void @_ZdlPv(i8* %37) #2
  br label %_ZNSt7__cxx1112basic_stringIcSt11char_traitsIcESaIcEED2Ev.exit134

_ZNSt7__cxx1112basic_stringIcSt11char_traitsIcESaIcEED2Ev.exit134: ; preds = %_ZNSt7__cxx1112basic_stringIcSt11char_traitsIcESaIcEED2Ev.exit113, %if.then.i.i133
  %38 = getelementptr inbounds %"class.std::__cxx11::basic_string", %"class.std::__cxx11::basic_string"* %agg.tmp10, i64 0, i32 2
  %39 = bitcast %"class.std::__cxx11::basic_string"* %agg.tmp10 to %union.anon.1**
  store %union.anon.1* %38, %union.anon.1** %39, align 8, !tbaa !47
  %40 = bitcast %union.anon.1* %38 to i8*
  %_M_p.i.phi.trans.insert.i.i.i.i138 = getelementptr inbounds %"class.std::__cxx11::basic_string", %"class.std::__cxx11::basic_string"* %agg.tmp10, i64 0, i32 0, i32 0
  %41 = bitcast %union.anon.1* %38 to i16*
  store i16 25645, i16* %41, align 8
  %_M_string_length.i.i.i.i.i.i148 = getelementptr inbounds %"class.std::__cxx11::basic_string", %"class.std::__cxx11::basic_string"* %agg.tmp10, i64 0, i32 1
  store i64 2, i64* %_M_string_length.i.i.i.i.i.i148, align 8, !tbaa !52
  %arrayidx.i.i.i.i.i149 = getelementptr inbounds i8, i8* %40, i64 2
  store i8 0, i8* %arrayidx.i.i.i.i.i149, align 2, !tbaa !22
  %call12 = call i32 @_ZN11commandLine17getOptionIntValueENSt7__cxx1112basic_stringIcSt11char_traitsIcESaIcEEEi(%struct.commandLine* nonnull %P, %"class.std::__cxx11::basic_string"* nonnull %agg.tmp10, i32 2)
  %42 = load i8*, i8** %_M_p.i.phi.trans.insert.i.i.i.i138, align 8, !tbaa !50
  %cmp.i.i.i153 = icmp eq i8* %42, %40
  br i1 %cmp.i.i.i153, label %_ZNSt7__cxx1112basic_stringIcSt11char_traitsIcESaIcEED2Ev.exit155, label %if.then.i.i154

if.then.i.i154:                                   ; preds = %_ZNSt7__cxx1112basic_stringIcSt11char_traitsIcESaIcEED2Ev.exit134
  call void @_ZdlPv(i8* %42) #2
  br label %_ZNSt7__cxx1112basic_stringIcSt11char_traitsIcESaIcEED2Ev.exit155

_ZNSt7__cxx1112basic_stringIcSt11char_traitsIcESaIcEED2Ev.exit155: ; preds = %_ZNSt7__cxx1112basic_stringIcSt11char_traitsIcESaIcEED2Ev.exit134, %if.then.i.i154
  %call9.off = add i32 %call9, -1
  %43 = icmp ugt i32 %call9.off, 9
  br i1 %43, label %if.then, label %if.end

if.then:                                          ; preds = %_ZNSt7__cxx1112basic_stringIcSt11char_traitsIcESaIcEED2Ev.exit155
  %call.i = call dereferenceable(272) %"class.std::basic_ostream"* @_ZStlsISt11char_traitsIcEERSt13basic_ostreamIcT_ES5_PKc(%"class.std::basic_ostream"* nonnull dereferenceable(272) @_ZSt4cout, i8* getelementptr inbounds ([8 x i8], [8 x i8]* @.str.21, i64 0, i64 0)) #2
  %44 = load i8**, i8*** %argv.i, align 8, !tbaa !62
  %45 = load i8*, i8** %44, align 8, !tbaa !53
  %call2.i = call dereferenceable(272) %"class.std::basic_ostream"* @_ZStlsISt11char_traitsIcEERSt13basic_ostreamIcT_ES5_PKc(%"class.std::basic_ostream"* nonnull dereferenceable(272) %call.i, i8* %45) #2
  %call3.i = call dereferenceable(272) %"class.std::basic_ostream"* @_ZStlsISt11char_traitsIcEERSt13basic_ostreamIcT_ES5_PKc(%"class.std::basic_ostream"* nonnull dereferenceable(272) %call2.i, i8* getelementptr inbounds ([2 x i8], [2 x i8]* @.str.22, i64 0, i64 0)) #2
  %call4.i = call dereferenceable(272) %"class.std::basic_ostream"* @_ZStlsIcSt11char_traitsIcESaIcEERSt13basic_ostreamIT_T0_ES7_RKNSt7__cxx1112basic_stringIS4_S5_T1_EE(%"class.std::basic_ostream"* nonnull dereferenceable(272) %call3.i, %"class.std::__cxx11::basic_string"* nonnull dereferenceable(32) %comLine.i) #2
  %call.i.i158 = call dereferenceable(272) %"class.std::basic_ostream"* @_ZSt4endlIcSt11char_traitsIcEERSt13basic_ostreamIT_T0_ES6_(%"class.std::basic_ostream"* nonnull dereferenceable(272) %call4.i) #2
  call void @abort() #21
  unreachable

if.end:                                           ; preds = %_ZNSt7__cxx1112basic_stringIcSt11char_traitsIcESaIcEED2Ev.exit155
  %46 = and i32 %call12, -2
  %47 = icmp eq i32 %46, 2
  br i1 %47, label %if.end18, label %if.then17

if.then17:                                        ; preds = %if.end
  %call.i159 = call dereferenceable(272) %"class.std::basic_ostream"* @_ZStlsISt11char_traitsIcEERSt13basic_ostreamIcT_ES5_PKc(%"class.std::basic_ostream"* nonnull dereferenceable(272) @_ZSt4cout, i8* getelementptr inbounds ([8 x i8], [8 x i8]* @.str.21, i64 0, i64 0)) #2
  %48 = load i8**, i8*** %argv.i, align 8, !tbaa !62
  %49 = load i8*, i8** %48, align 8, !tbaa !53
  %call2.i161 = call dereferenceable(272) %"class.std::basic_ostream"* @_ZStlsISt11char_traitsIcEERSt13basic_ostreamIcT_ES5_PKc(%"class.std::basic_ostream"* nonnull dereferenceable(272) %call.i159, i8* %49) #2
  %call3.i162 = call dereferenceable(272) %"class.std::basic_ostream"* @_ZStlsISt11char_traitsIcEERSt13basic_ostreamIcT_ES5_PKc(%"class.std::basic_ostream"* nonnull dereferenceable(272) %call2.i161, i8* getelementptr inbounds ([2 x i8], [2 x i8]* @.str.22, i64 0, i64 0)) #2
  %call4.i164 = call dereferenceable(272) %"class.std::basic_ostream"* @_ZStlsIcSt11char_traitsIcESaIcEERSt13basic_ostreamIT_T0_ES7_RKNSt7__cxx1112basic_stringIS4_S5_T1_EE(%"class.std::basic_ostream"* nonnull dereferenceable(272) %call3.i162, %"class.std::__cxx11::basic_string"* nonnull dereferenceable(32) %comLine.i) #2
  %call.i.i165 = call dereferenceable(272) %"class.std::basic_ostream"* @_ZSt4endlIcSt11char_traitsIcEERSt13basic_ostreamIT_T0_ES6_(%"class.std::basic_ostream"* nonnull dereferenceable(272) %call4.i164) #2
  call void @abort() #21
  unreachable

if.end18:                                         ; preds = %if.end
  switch i32 %call12, label %if.end43 [
    i32 2, label %if.then20
    i32 3, label %if.then30
  ]

if.then20:                                        ; preds = %if.end18
  %call21 = call { %class._point2d*, i64 } @_ZN7benchIO18readPointsFromFileI8_point2dIdEEE4_seqIT_EPc(i8* %22)
  %50 = extractvalue { %class._point2d*, i64 } %call21, 0
  %51 = extractvalue { %class._point2d*, i64 } %call21, 1
  %cmp22 = icmp eq i32 %call9, 1
  %conv = trunc i64 %51 to i32
  br i1 %cmp22, label %if.then23, label %if.else

if.then23:                                        ; preds = %if.then20
  call void @_Z13timeNeighborsILi1E8_point2dIdEEvPT0_iiiPc(%class._point2d* %50, i32 %conv, i32 1, i32 %call6, i8* %call3)
  br label %if.end43

if.else:                                          ; preds = %if.then20
  call void @_Z13timeNeighborsILi10E8_point2dIdEEvPT0_iiiPc(%class._point2d* %50, i32 %conv, i32 %call9, i32 %call6, i8* %call3)
  br label %if.end43

if.then30:                                        ; preds = %if.end18
  %call32 = call { %class._point3d*, i64 } @_ZN7benchIO18readPointsFromFileI8_point3dIdEEE4_seqIT_EPc(i8* %22)
  %52 = extractvalue { %class._point3d*, i64 } %call32, 0
  %53 = extractvalue { %class._point3d*, i64 } %call32, 1
  %cmp33 = icmp eq i32 %call9, 1
  %conv37 = trunc i64 %53 to i32
  br i1 %cmp33, label %if.then34, label %if.else38

if.then34:                                        ; preds = %if.then30
  call void @_Z13timeNeighborsILi1E8_point3dIdEEvPT0_iiiPc(%class._point3d* %52, i32 %conv37, i32 1, i32 %call6, i8* %call3)
  br label %if.end43

if.else38:                                        ; preds = %if.then30
  call void @_Z13timeNeighborsILi10E8_point3dIdEEvPT0_iiiPc(%class._point3d* %52, i32 %conv37, i32 %call9, i32 %call6, i8* %call3)
  br label %if.end43

if.end43:                                         ; preds = %if.else, %if.then23, %if.then34, %if.else38, %if.end18
  %_M_p.i.i.i.i.i = getelementptr inbounds %struct.commandLine, %struct.commandLine* %P, i64 0, i32 2, i32 0, i32 0
  %54 = load i8*, i8** %_M_p.i.i.i.i.i, align 8, !tbaa !50
  %cmp.i.i.i.i = icmp eq i8* %54, %10
  br i1 %cmp.i.i.i.i, label %_ZN11commandLineD2Ev.exit, label %if.then.i.i.i

if.then.i.i.i:                                    ; preds = %if.end43
  call void @_ZdlPv(i8* %54) #2
  br label %_ZN11commandLineD2Ev.exit

_ZN11commandLineD2Ev.exit:                        ; preds = %if.end43, %if.then.i.i.i
  call void @llvm.lifetime.end.p0i8(i64 48, i8* nonnull %0) #2
  ret i32 0
}

; Function Attrs: nounwind uwtable
define linkonce_odr i8* @_ZN11commandLine14getOptionValueENSt7__cxx1112basic_stringIcSt11char_traitsIcESaIcEEE(%struct.commandLine* %this, %"class.std::__cxx11::basic_string"* %option) local_unnamed_addr #7 comdat align 2 {
entry:
  %__dnew.i.i.i.i = alloca i64, align 8
  %ref.tmp = alloca %"class.std::__cxx11::basic_string", align 8
  %argc = getelementptr inbounds %struct.commandLine, %struct.commandLine* %this, i64 0, i32 0
  %0 = load i32, i32* %argc, align 8, !tbaa !60
  %cmp16 = icmp sgt i32 %0, 2
  br i1 %cmp16, label %for.body.lr.ph, label %.loopexit

for.body.lr.ph:                                   ; preds = %entry
  %1 = bitcast %"class.std::__cxx11::basic_string"* %ref.tmp to i8*
  %argv = getelementptr inbounds %struct.commandLine, %struct.commandLine* %this, i64 0, i32 1
  %2 = getelementptr inbounds %"class.std::__cxx11::basic_string", %"class.std::__cxx11::basic_string"* %ref.tmp, i64 0, i32 2
  %3 = bitcast %"class.std::__cxx11::basic_string"* %ref.tmp to %union.anon.1**
  %4 = bitcast %union.anon.1* %2 to i8*
  %5 = bitcast i64* %__dnew.i.i.i.i to i8*
  %_M_p.i13.i.i.i.i = getelementptr inbounds %"class.std::__cxx11::basic_string", %"class.std::__cxx11::basic_string"* %ref.tmp, i64 0, i32 0, i32 0
  %_M_allocated_capacity.i.i.i.i.i = getelementptr inbounds %"class.std::__cxx11::basic_string", %"class.std::__cxx11::basic_string"* %ref.tmp, i64 0, i32 2, i32 0
  %_M_string_length.i.i.i.i.i.i = getelementptr inbounds %"class.std::__cxx11::basic_string", %"class.std::__cxx11::basic_string"* %ref.tmp, i64 0, i32 1
  %_M_string_length.i9.i = getelementptr inbounds %"class.std::__cxx11::basic_string", %"class.std::__cxx11::basic_string"* %option, i64 0, i32 1
  %_M_p.i.i.i = getelementptr inbounds %"class.std::__cxx11::basic_string", %"class.std::__cxx11::basic_string"* %option, i64 0, i32 0, i32 0
  br label %for.body

for.body:                                         ; preds = %for.body.lr.ph, %for.inc
  %indvars.iv = phi i64 [ 1, %for.body.lr.ph ], [ %indvars.iv.next, %for.inc ]
  call void @llvm.lifetime.start.p0i8(i64 32, i8* nonnull %1) #2
  %6 = load i8**, i8*** %argv, align 8, !tbaa !62
  %arrayidx = getelementptr inbounds i8*, i8** %6, i64 %indvars.iv
  %7 = load i8*, i8** %arrayidx, align 8, !tbaa !53
  store %union.anon.1* %2, %union.anon.1** %3, align 8, !tbaa !47
  %tobool.i = icmp eq i8* %7, null
  br i1 %tobool.i, label %cond.end.predBB2.split.i, label %if.end.i.i.i.i

if.end.i.i.i.i:                                   ; preds = %for.body
  %call.i.i11 = call i64 @strlen(i8* nonnull %7) #2
  call void @llvm.lifetime.start.p0i8(i64 8, i8* nonnull %5) #2
  store i64 %call.i.i11, i64* %__dnew.i.i.i.i, align 8, !tbaa !49
  %cmp3.i.i.i.i = icmp ugt i64 %call.i.i11, 15
  br i1 %cmp3.i.i.i.i, label %if.then4.i.i.i.i, label %if.end6.i.i.i.i

if.then4.i.i.i.i:                                 ; preds = %if.end.i.i.i.i
  %call5.i.i.i.i = call i8* @_ZNSt7__cxx1112basic_stringIcSt11char_traitsIcESaIcEE9_M_createERmm(%"class.std::__cxx11::basic_string"* nonnull %ref.tmp, i64* nonnull dereferenceable(8) %__dnew.i.i.i.i, i64 0) #2
  store i8* %call5.i.i.i.i, i8** %_M_p.i13.i.i.i.i, align 8, !tbaa !50
  %8 = load i64, i64* %__dnew.i.i.i.i, align 8, !tbaa !49
  store i64 %8, i64* %_M_allocated_capacity.i.i.i.i.i, align 8, !tbaa !22
  br label %if.end6.i.i.i.i

if.end6.i.i.i.i:                                  ; preds = %if.end.i.i.i.i, %if.then4.i.i.i.i
  %9 = phi i8* [ %call5.i.i.i.i, %if.then4.i.i.i.i ], [ %4, %if.end.i.i.i.i ]
  switch i64 %call.i.i11, label %if.end.i.i.i.i.i.i.i [
    i64 1, label %if.then.i.i.i.i.i.i
    i64 0, label %_ZNSt7__cxx1112basic_stringIcSt11char_traitsIcESaIcEEC2EPKcRKS3_.exit
  ]

if.then.i.i.i.i.i.i:                              ; preds = %if.end6.i.i.i.i
  %10 = load i8, i8* %7, align 1, !tbaa !22
  store i8 %10, i8* %9, align 1, !tbaa !22
  br label %_ZNSt7__cxx1112basic_stringIcSt11char_traitsIcESaIcEEC2EPKcRKS3_.exit

if.end.i.i.i.i.i.i.i:                             ; preds = %if.end6.i.i.i.i
  call void @llvm.memcpy.p0i8.p0i8.i64(i8* %9, i8* nonnull %7, i64 %call.i.i11, i32 1, i1 false) #2
  br label %_ZNSt7__cxx1112basic_stringIcSt11char_traitsIcESaIcEEC2EPKcRKS3_.exit

cond.end.predBB2.split.i:                         ; preds = %for.body
  call void @_ZSt19__throw_logic_errorPKc(i8* getelementptr inbounds ([42 x i8], [42 x i8]* @.str.20, i64 0, i64 0)) #21
  unreachable

_ZNSt7__cxx1112basic_stringIcSt11char_traitsIcESaIcEEC2EPKcRKS3_.exit: ; preds = %if.end6.i.i.i.i, %if.then.i.i.i.i.i.i, %if.end.i.i.i.i.i.i.i
  %11 = load i64, i64* %__dnew.i.i.i.i, align 8, !tbaa !49
  store i64 %11, i64* %_M_string_length.i.i.i.i.i.i, align 8, !tbaa !52
  %12 = load i8*, i8** %_M_p.i13.i.i.i.i, align 8, !tbaa !50
  %arrayidx.i.i.i.i.i = getelementptr inbounds i8, i8* %12, i64 %11
  store i8 0, i8* %arrayidx.i.i.i.i.i, align 1, !tbaa !22
  call void @llvm.lifetime.end.p0i8(i64 8, i8* nonnull %5) #2
  %13 = load i64, i64* %_M_string_length.i.i.i.i.i.i, align 8, !tbaa !52
  %14 = load i64, i64* %_M_string_length.i9.i, align 8, !tbaa !52
  %cmp.i = icmp eq i64 %13, %14
  br i1 %cmp.i, label %land.rhs.i, label %_ZSteqIcEN9__gnu_cxx11__enable_ifIXsr9__is_charIT_EE7__valueEbE6__typeERKNSt7__cxx1112basic_stringIS2_St11char_traitsIS2_ESaIS2_EEESC_.exit

land.rhs.i:                                       ; preds = %_ZNSt7__cxx1112basic_stringIcSt11char_traitsIcESaIcEEC2EPKcRKS3_.exit
  %cmp.i.i = icmp eq i64 %13, 0
  br i1 %cmp.i.i, label %_ZSteqIcEN9__gnu_cxx11__enable_ifIXsr9__is_charIT_EE7__valueEbE6__typeERKNSt7__cxx1112basic_stringIS2_St11char_traitsIS2_ESaIS2_EEESC_.exit, label %if.end.i.i

if.end.i.i:                                       ; preds = %land.rhs.i
  %15 = load i8*, i8** %_M_p.i.i.i, align 8, !tbaa !50
  %16 = load i8*, i8** %_M_p.i13.i.i.i.i, align 8, !tbaa !50
  %call.i.i = call i32 @memcmp(i8* %16, i8* %15, i64 %13) #2
  %phitmp.i = icmp eq i32 %call.i.i, 0
  br label %_ZSteqIcEN9__gnu_cxx11__enable_ifIXsr9__is_charIT_EE7__valueEbE6__typeERKNSt7__cxx1112basic_stringIS2_St11char_traitsIS2_ESaIS2_EEESC_.exit

_ZSteqIcEN9__gnu_cxx11__enable_ifIXsr9__is_charIT_EE7__valueEbE6__typeERKNSt7__cxx1112basic_stringIS2_St11char_traitsIS2_ESaIS2_EEESC_.exit: ; preds = %_ZNSt7__cxx1112basic_stringIcSt11char_traitsIcESaIcEEC2EPKcRKS3_.exit, %land.rhs.i, %if.end.i.i
  %17 = phi i1 [ false, %_ZNSt7__cxx1112basic_stringIcSt11char_traitsIcESaIcEEC2EPKcRKS3_.exit ], [ %phitmp.i, %if.end.i.i ], [ true, %land.rhs.i ]
  %18 = load i8*, i8** %_M_p.i13.i.i.i.i, align 8, !tbaa !50
  %cmp.i.i.i = icmp eq i8* %18, %4
  br i1 %cmp.i.i.i, label %_ZNSt7__cxx1112basic_stringIcSt11char_traitsIcESaIcEED2Ev.exit, label %if.then.i.i

if.then.i.i:                                      ; preds = %_ZSteqIcEN9__gnu_cxx11__enable_ifIXsr9__is_charIT_EE7__valueEbE6__typeERKNSt7__cxx1112basic_stringIS2_St11char_traitsIS2_ESaIS2_EEESC_.exit
  call void @_ZdlPv(i8* %18) #2
  br label %_ZNSt7__cxx1112basic_stringIcSt11char_traitsIcESaIcEED2Ev.exit

_ZNSt7__cxx1112basic_stringIcSt11char_traitsIcESaIcEED2Ev.exit: ; preds = %_ZSteqIcEN9__gnu_cxx11__enable_ifIXsr9__is_charIT_EE7__valueEbE6__typeERKNSt7__cxx1112basic_stringIS2_St11char_traitsIS2_ESaIS2_EEESC_.exit, %if.then.i.i
  call void @llvm.lifetime.end.p0i8(i64 32, i8* nonnull %1) #2
  br i1 %17, label %cleanup, label %for.inc

for.inc:                                          ; preds = %_ZNSt7__cxx1112basic_stringIcSt11char_traitsIcESaIcEED2Ev.exit
  %indvars.iv.next = add nuw nsw i64 %indvars.iv, 1
  %19 = load i32, i32* %argc, align 8, !tbaa !60
  %sub = add nsw i32 %19, -1
  %20 = sext i32 %sub to i64
  %cmp = icmp slt i64 %indvars.iv.next, %20
  br i1 %cmp, label %for.body, label %.loopexit

cleanup:                                          ; preds = %_ZNSt7__cxx1112basic_stringIcSt11char_traitsIcESaIcEED2Ev.exit
  %21 = load i8**, i8*** %argv, align 8, !tbaa !62
  %add = add nuw i64 %indvars.iv, 1
  %22 = and i64 %add, 4294967295
  %arrayidx5 = getelementptr inbounds i8*, i8** %21, i64 %22
  %23 = load i8*, i8** %arrayidx5, align 8, !tbaa !53
  br label %.loopexit

.loopexit:                                        ; preds = %for.inc, %entry, %cleanup
  %24 = phi i8* [ %23, %cleanup ], [ null, %entry ], [ null, %for.inc ]
  ret i8* %24
}

; Function Attrs: nounwind uwtable
define linkonce_odr i32 @_ZN11commandLine17getOptionIntValueENSt7__cxx1112basic_stringIcSt11char_traitsIcESaIcEEEi(%struct.commandLine* %this, %"class.std::__cxx11::basic_string"* %option, i32 %defaultValue) local_unnamed_addr #7 comdat align 2 {
entry:
  %__dnew.i.i.i.i = alloca i64, align 8
  %ref.tmp = alloca %"class.std::__cxx11::basic_string", align 8
  %argc = getelementptr inbounds %struct.commandLine, %struct.commandLine* %this, i64 0, i32 0
  %0 = load i32, i32* %argc, align 8, !tbaa !60
  %cmp24 = icmp sgt i32 %0, 2
  br i1 %cmp24, label %for.body.lr.ph, label %cleanup

for.body.lr.ph:                                   ; preds = %entry
  %1 = bitcast %"class.std::__cxx11::basic_string"* %ref.tmp to i8*
  %argv = getelementptr inbounds %struct.commandLine, %struct.commandLine* %this, i64 0, i32 1
  %2 = getelementptr inbounds %"class.std::__cxx11::basic_string", %"class.std::__cxx11::basic_string"* %ref.tmp, i64 0, i32 2
  %3 = bitcast %"class.std::__cxx11::basic_string"* %ref.tmp to %union.anon.1**
  %4 = bitcast %union.anon.1* %2 to i8*
  %5 = bitcast i64* %__dnew.i.i.i.i to i8*
  %_M_p.i13.i.i.i.i = getelementptr inbounds %"class.std::__cxx11::basic_string", %"class.std::__cxx11::basic_string"* %ref.tmp, i64 0, i32 0, i32 0
  %_M_allocated_capacity.i.i.i.i.i = getelementptr inbounds %"class.std::__cxx11::basic_string", %"class.std::__cxx11::basic_string"* %ref.tmp, i64 0, i32 2, i32 0
  %_M_string_length.i.i.i.i.i.i = getelementptr inbounds %"class.std::__cxx11::basic_string", %"class.std::__cxx11::basic_string"* %ref.tmp, i64 0, i32 1
  %_M_string_length.i9.i = getelementptr inbounds %"class.std::__cxx11::basic_string", %"class.std::__cxx11::basic_string"* %option, i64 0, i32 1
  %_M_p.i.i.i = getelementptr inbounds %"class.std::__cxx11::basic_string", %"class.std::__cxx11::basic_string"* %option, i64 0, i32 0, i32 0
  br label %for.body

for.body:                                         ; preds = %for.body.lr.ph, %for.inc
  %indvars.iv = phi i64 [ 1, %for.body.lr.ph ], [ %indvars.iv.next, %for.inc ]
  call void @llvm.lifetime.start.p0i8(i64 32, i8* nonnull %1) #2
  %6 = load i8**, i8*** %argv, align 8, !tbaa !62
  %arrayidx = getelementptr inbounds i8*, i8** %6, i64 %indvars.iv
  %7 = load i8*, i8** %arrayidx, align 8, !tbaa !53
  store %union.anon.1* %2, %union.anon.1** %3, align 8, !tbaa !47
  %tobool.i = icmp eq i8* %7, null
  br i1 %tobool.i, label %cond.end.predBB2.split.i, label %if.end.i.i.i.i

if.end.i.i.i.i:                                   ; preds = %for.body
  %call.i.i17 = call i64 @strlen(i8* nonnull %7) #2
  call void @llvm.lifetime.start.p0i8(i64 8, i8* nonnull %5) #2
  store i64 %call.i.i17, i64* %__dnew.i.i.i.i, align 8, !tbaa !49
  %cmp3.i.i.i.i = icmp ugt i64 %call.i.i17, 15
  br i1 %cmp3.i.i.i.i, label %if.then4.i.i.i.i, label %if.end6.i.i.i.i

if.then4.i.i.i.i:                                 ; preds = %if.end.i.i.i.i
  %call5.i.i.i.i = call i8* @_ZNSt7__cxx1112basic_stringIcSt11char_traitsIcESaIcEE9_M_createERmm(%"class.std::__cxx11::basic_string"* nonnull %ref.tmp, i64* nonnull dereferenceable(8) %__dnew.i.i.i.i, i64 0) #2
  store i8* %call5.i.i.i.i, i8** %_M_p.i13.i.i.i.i, align 8, !tbaa !50
  %8 = load i64, i64* %__dnew.i.i.i.i, align 8, !tbaa !49
  store i64 %8, i64* %_M_allocated_capacity.i.i.i.i.i, align 8, !tbaa !22
  br label %if.end6.i.i.i.i

if.end6.i.i.i.i:                                  ; preds = %if.end.i.i.i.i, %if.then4.i.i.i.i
  %9 = phi i8* [ %call5.i.i.i.i, %if.then4.i.i.i.i ], [ %4, %if.end.i.i.i.i ]
  switch i64 %call.i.i17, label %if.end.i.i.i.i.i.i.i [
    i64 1, label %if.then.i.i.i.i.i.i
    i64 0, label %_ZNSt7__cxx1112basic_stringIcSt11char_traitsIcESaIcEEC2EPKcRKS3_.exit
  ]

if.then.i.i.i.i.i.i:                              ; preds = %if.end6.i.i.i.i
  %10 = load i8, i8* %7, align 1, !tbaa !22
  store i8 %10, i8* %9, align 1, !tbaa !22
  br label %_ZNSt7__cxx1112basic_stringIcSt11char_traitsIcESaIcEEC2EPKcRKS3_.exit

if.end.i.i.i.i.i.i.i:                             ; preds = %if.end6.i.i.i.i
  call void @llvm.memcpy.p0i8.p0i8.i64(i8* %9, i8* nonnull %7, i64 %call.i.i17, i32 1, i1 false) #2
  br label %_ZNSt7__cxx1112basic_stringIcSt11char_traitsIcESaIcEEC2EPKcRKS3_.exit

cond.end.predBB2.split.i:                         ; preds = %for.body
  call void @_ZSt19__throw_logic_errorPKc(i8* getelementptr inbounds ([42 x i8], [42 x i8]* @.str.20, i64 0, i64 0)) #21
  unreachable

_ZNSt7__cxx1112basic_stringIcSt11char_traitsIcESaIcEEC2EPKcRKS3_.exit: ; preds = %if.end6.i.i.i.i, %if.then.i.i.i.i.i.i, %if.end.i.i.i.i.i.i.i
  %11 = load i64, i64* %__dnew.i.i.i.i, align 8, !tbaa !49
  store i64 %11, i64* %_M_string_length.i.i.i.i.i.i, align 8, !tbaa !52
  %12 = load i8*, i8** %_M_p.i13.i.i.i.i, align 8, !tbaa !50
  %arrayidx.i.i.i.i.i = getelementptr inbounds i8, i8* %12, i64 %11
  store i8 0, i8* %arrayidx.i.i.i.i.i, align 1, !tbaa !22
  call void @llvm.lifetime.end.p0i8(i64 8, i8* nonnull %5) #2
  %13 = load i64, i64* %_M_string_length.i.i.i.i.i.i, align 8, !tbaa !52
  %14 = load i64, i64* %_M_string_length.i9.i, align 8, !tbaa !52
  %cmp.i = icmp eq i64 %13, %14
  br i1 %cmp.i, label %land.rhs.i, label %_ZSteqIcEN9__gnu_cxx11__enable_ifIXsr9__is_charIT_EE7__valueEbE6__typeERKNSt7__cxx1112basic_stringIS2_St11char_traitsIS2_ESaIS2_EEESC_.exit

land.rhs.i:                                       ; preds = %_ZNSt7__cxx1112basic_stringIcSt11char_traitsIcESaIcEEC2EPKcRKS3_.exit
  %cmp.i.i = icmp eq i64 %13, 0
  br i1 %cmp.i.i, label %_ZSteqIcEN9__gnu_cxx11__enable_ifIXsr9__is_charIT_EE7__valueEbE6__typeERKNSt7__cxx1112basic_stringIS2_St11char_traitsIS2_ESaIS2_EEESC_.exit, label %if.end.i.i

if.end.i.i:                                       ; preds = %land.rhs.i
  %15 = load i8*, i8** %_M_p.i.i.i, align 8, !tbaa !50
  %16 = load i8*, i8** %_M_p.i13.i.i.i.i, align 8, !tbaa !50
  %call.i.i18 = call i32 @memcmp(i8* %16, i8* %15, i64 %13) #2
  %phitmp.i = icmp eq i32 %call.i.i18, 0
  br label %_ZSteqIcEN9__gnu_cxx11__enable_ifIXsr9__is_charIT_EE7__valueEbE6__typeERKNSt7__cxx1112basic_stringIS2_St11char_traitsIS2_ESaIS2_EEESC_.exit

_ZSteqIcEN9__gnu_cxx11__enable_ifIXsr9__is_charIT_EE7__valueEbE6__typeERKNSt7__cxx1112basic_stringIS2_St11char_traitsIS2_ESaIS2_EEESC_.exit: ; preds = %_ZNSt7__cxx1112basic_stringIcSt11char_traitsIcESaIcEEC2EPKcRKS3_.exit, %land.rhs.i, %if.end.i.i
  %17 = phi i1 [ false, %_ZNSt7__cxx1112basic_stringIcSt11char_traitsIcESaIcEEC2EPKcRKS3_.exit ], [ %phitmp.i, %if.end.i.i ], [ true, %land.rhs.i ]
  %18 = load i8*, i8** %_M_p.i13.i.i.i.i, align 8, !tbaa !50
  %cmp.i.i.i = icmp eq i8* %18, %4
  br i1 %cmp.i.i.i, label %_ZNSt7__cxx1112basic_stringIcSt11char_traitsIcESaIcEED2Ev.exit, label %if.then.i.i

if.then.i.i:                                      ; preds = %_ZSteqIcEN9__gnu_cxx11__enable_ifIXsr9__is_charIT_EE7__valueEbE6__typeERKNSt7__cxx1112basic_stringIS2_St11char_traitsIS2_ESaIS2_EEESC_.exit
  call void @_ZdlPv(i8* %18) #2
  br label %_ZNSt7__cxx1112basic_stringIcSt11char_traitsIcESaIcEED2Ev.exit

_ZNSt7__cxx1112basic_stringIcSt11char_traitsIcESaIcEED2Ev.exit: ; preds = %_ZSteqIcEN9__gnu_cxx11__enable_ifIXsr9__is_charIT_EE7__valueEbE6__typeERKNSt7__cxx1112basic_stringIS2_St11char_traitsIS2_ESaIS2_EEESC_.exit, %if.then.i.i
  call void @llvm.lifetime.end.p0i8(i64 32, i8* nonnull %1) #2
  br i1 %17, label %if.then, label %for.inc

if.then:                                          ; preds = %_ZNSt7__cxx1112basic_stringIcSt11char_traitsIcESaIcEED2Ev.exit
  %19 = load i8**, i8*** %argv, align 8, !tbaa !62
  %add = add nuw i64 %indvars.iv, 1
  %20 = and i64 %add, 4294967295
  %arrayidx5 = getelementptr inbounds i8*, i8** %19, i64 %20
  %21 = load i8*, i8** %arrayidx5, align 8, !tbaa !53
  %call.i19 = call i64 @strtol(i8* nocapture nonnull %21, i8** null, i32 10) #2
  %conv.i = trunc i64 %call.i19 to i32
  %cmp7 = icmp slt i32 %conv.i, 1
  br i1 %cmp7, label %if.then8, label %cleanup

if.then8:                                         ; preds = %if.then
  %call.i = call dereferenceable(272) %"class.std::basic_ostream"* @_ZStlsISt11char_traitsIcEERSt13basic_ostreamIcT_ES5_PKc(%"class.std::basic_ostream"* nonnull dereferenceable(272) @_ZSt4cout, i8* getelementptr inbounds ([8 x i8], [8 x i8]* @.str.21, i64 0, i64 0)) #2
  %22 = load i8**, i8*** %argv, align 8, !tbaa !62
  %23 = load i8*, i8** %22, align 8, !tbaa !53
  %call2.i = call dereferenceable(272) %"class.std::basic_ostream"* @_ZStlsISt11char_traitsIcEERSt13basic_ostreamIcT_ES5_PKc(%"class.std::basic_ostream"* nonnull dereferenceable(272) %call.i, i8* %23) #2
  %call3.i = call dereferenceable(272) %"class.std::basic_ostream"* @_ZStlsISt11char_traitsIcEERSt13basic_ostreamIcT_ES5_PKc(%"class.std::basic_ostream"* nonnull dereferenceable(272) %call2.i, i8* getelementptr inbounds ([2 x i8], [2 x i8]* @.str.22, i64 0, i64 0)) #2
  %comLine.i = getelementptr inbounds %struct.commandLine, %struct.commandLine* %this, i64 0, i32 2
  %call4.i = call dereferenceable(272) %"class.std::basic_ostream"* @_ZStlsIcSt11char_traitsIcESaIcEERSt13basic_ostreamIT_T0_ES7_RKNSt7__cxx1112basic_stringIS4_S5_T1_EE(%"class.std::basic_ostream"* nonnull dereferenceable(272) %call3.i, %"class.std::__cxx11::basic_string"* nonnull dereferenceable(32) %comLine.i) #2
  %call.i.i = call dereferenceable(272) %"class.std::basic_ostream"* @_ZSt4endlIcSt11char_traitsIcEERSt13basic_ostreamIT_T0_ES6_(%"class.std::basic_ostream"* nonnull dereferenceable(272) %call4.i) #2
  call void @abort() #21
  unreachable

for.inc:                                          ; preds = %_ZNSt7__cxx1112basic_stringIcSt11char_traitsIcESaIcEED2Ev.exit
  %indvars.iv.next = add nuw nsw i64 %indvars.iv, 1
  %24 = load i32, i32* %argc, align 8, !tbaa !60
  %sub = add nsw i32 %24, -1
  %25 = sext i32 %sub to i64
  %cmp = icmp slt i64 %indvars.iv.next, %25
  br i1 %cmp, label %for.body, label %cleanup

cleanup:                                          ; preds = %for.inc, %entry, %if.then
  %26 = phi i32 [ %conv.i, %if.then ], [ %defaultValue, %entry ], [ %defaultValue, %for.inc ]
  ret i32 %26
}

; Function Attrs: nounwind uwtable
define linkonce_odr { %class._point2d*, i64 } @_ZN7benchIO18readPointsFromFileI8_point2dIdEEE4_seqIT_EPc(i8* %fname) local_unnamed_addr #7 comdat {
entry:
  %0 = tail call i32 @__cilkrts_get_nworkers()
  %__cilkrts_wc821 = shl i32 %0, 3
  %W = alloca %"struct.benchIO::words", align 8
  %call = tail call { i8*, i64 } @_ZN7benchIO18readStringFromFileEPc(i8* %fname)
  %1 = extractvalue { i8*, i64 } %call, 0
  %2 = extractvalue { i8*, i64 } %call, 1
  %3 = bitcast %"struct.benchIO::words"* %W to i8*
  call void @llvm.lifetime.start.p0i8(i64 32, i8* nonnull %3) #2
  call void @_ZN7benchIO13stringToWordsEPcl(%"struct.benchIO::words"* nonnull sret %W, i8* %1, i64 %2)
  %m = getelementptr inbounds %"struct.benchIO::words", %"struct.benchIO::words"* %W, i64 0, i32 2
  %4 = load i64, i64* %m, align 8, !tbaa !30
  %cmp = icmp eq i64 %4, 0
  br i1 %cmp, label %if.then, label %lor.lhs.false

lor.lhs.false:                                    ; preds = %entry
  %Strings = getelementptr inbounds %"struct.benchIO::words", %"struct.benchIO::words"* %W, i64 0, i32 3
  %5 = load i8**, i8*** %Strings, align 8, !tbaa !31
  %6 = load i8*, i8** %5, align 8, !tbaa !53
  %call.i.i = tail call i32 @_ZNKSt7__cxx1112basic_stringIcSt11char_traitsIcESaIcEE7compareEPKc(%"class.std::__cxx11::basic_string"* nonnull @_ZN7benchIO13HeaderPoint2dB5cxx11E, i8* %6) #2
  %cmp.i.i = icmp eq i32 %call.i.i, 0
  br i1 %cmp.i.i, label %if.end, label %if.then

if.then:                                          ; preds = %lor.lhs.false, %entry
  %call3 = tail call dereferenceable(272) %"class.std::basic_ostream"* @_ZStlsISt11char_traitsIcEERSt13basic_ostreamIcT_ES5_PKc(%"class.std::basic_ostream"* nonnull dereferenceable(272) @_ZSt4cout, i8* getelementptr inbounds ([35 x i8], [35 x i8]* @.str.24, i64 0, i64 0))
  %call.i = tail call dereferenceable(272) %"class.std::basic_ostream"* @_ZSt4endlIcSt11char_traitsIcEERSt13basic_ostreamIT_T0_ES6_(%"class.std::basic_ostream"* nonnull dereferenceable(272) %call3) #2
  tail call void @abort() #21
  unreachable

if.end:                                           ; preds = %lor.lhs.false
  %sub = add nsw i64 %4, -1
  %div = sdiv i64 %sub, 2
  %mul = shl i64 %div, 4
  %call7 = tail call noalias i8* @malloc(i64 %mul) #2
  %7 = bitcast i8* %call7 to %class._point2d*
  %conv9 = trunc i64 %div to i32
  %mul.i = shl nsw i32 %conv9, 1
  %conv.i = sext i32 %mul.i to i64
  %mul1.i = shl nsw i64 %conv.i, 3
  %call.i19 = tail call noalias i8* @malloc(i64 %mul1.i) #2
  %8 = bitcast i8* %call.i19 to double*
  %cmp64.i = icmp sgt i32 %conv9, 0
  br i1 %cmp64.i, label %pfor.detach.i.preheader, label %_ZN7benchIO11parsePointsI8_point2dIdEEEvPPcPT_i.exit

pfor.detach.i.preheader:                          ; preds = %if.end
  %add.ptr = getelementptr inbounds i8*, i8** %5, i64 1
  %9 = icmp sgt i64 %conv.i, 1
  %smax = select i1 %9, i64 %conv.i, i64 1
  %10 = add nsw i64 %smax, -1
  %11 = zext i32 %__cilkrts_wc821 to i64
  %12 = add nsw i64 %11, -1
  %13 = add nsw i64 %12, %10
  %14 = udiv i64 %13, %11
  %15 = icmp ult i64 %14, 2048
  %16 = select i1 %15, i64 %14, i64 2048
  tail call fastcc void @_ZN7benchIO18readPointsFromFileI8_point2dIdEEE4_seqIT_EPc_pfor.detach.i.ls(i64 0, i64 %10, i64 %16, i8** nonnull %add.ptr, double* %8)
  %sext = shl i64 %div, 32
  %conv17.i = ashr exact i64 %sext, 32
  %17 = add nsw i64 %conv17.i, -1
  %18 = add nsw i64 %12, %17
  %19 = udiv i64 %18, %11
  %20 = icmp ult i64 %19, 2048
  %21 = select i1 %20, i64 %19, i64 2048
  tail call fastcc void @_ZN7benchIO18readPointsFromFileI8_point2dIdEEE4_seqIT_EPc_pfor.detach21.i.ls(i64 0, i64 %17, i64 %21, double* %8, %class._point2d* %7)
  br label %_ZN7benchIO11parsePointsI8_point2dIdEEEvPPcPT_i.exit

_ZN7benchIO11parsePointsI8_point2dIdEEEvPPcPT_i.exit: ; preds = %if.end, %pfor.detach.i.preheader
  tail call void @free(i8* %call.i19) #2
  call void @llvm.lifetime.end.p0i8(i64 32, i8* nonnull %3) #2
  %.fca.0.insert = insertvalue { %class._point2d*, i64 } undef, %class._point2d* %7, 0
  %.fca.1.insert = insertvalue { %class._point2d*, i64 } %.fca.0.insert, i64 %div, 1
  ret { %class._point2d*, i64 } %.fca.1.insert
}

; Function Attrs: nounwind uwtable
define linkonce_odr void @_Z13timeNeighborsILi1E8_point2dIdEEvPT0_iiiPc(%class._point2d* %pts, i32 %n, i32 %k, i32 %rounds, i8* %outFile) local_unnamed_addr #7 comdat {
entry:
  %0 = tail call i32 @__cilkrts_get_nworkers()
  %__cilkrts_wc8142 = shl i32 %0, 3
  %now.i.i110 = alloca %struct.timeval, align 8
  %now.i.i = alloca %struct.timeval, align 8
  %conv = sext i32 %n to i64
  %mul = shl nsw i64 %conv, 3
  %call1 = tail call noalias i8* @malloc(i64 %mul) #2
  %1 = bitcast i8* %call1 to %struct.vertex**
  %mul3 = shl nsw i64 %conv, 5
  %call4 = tail call noalias i8* @malloc(i64 %mul3) #2
  %cmp128 = icmp sgt i32 %n, 0
  br i1 %cmp128, label %pfor.detach.lr.ph, label %sync.continue

pfor.detach.lr.ph:                                ; preds = %entry
  %2 = bitcast i8* %call4 to %struct.vertex*
  %wide.trip.count140 = zext i32 %n to i64
  %3 = add nsw i64 %wide.trip.count140, -1
  %4 = zext i32 %__cilkrts_wc8142 to i64
  %5 = add nsw i64 %wide.trip.count140, -2
  %6 = add nsw i64 %5, %4
  %7 = udiv i64 %6, %4
  %8 = icmp ult i64 %7, 2048
  %9 = select i1 %8, i64 %7, i64 2048
  tail call fastcc void @_Z13timeNeighborsILi1E8_point2dIdEEvPT0_iiiPc_pfor.detach.ls(i64 0, i64 %3, i64 %9, %struct.vertex* %2, %class._point2d* %pts, %struct.vertex** %1)
  br label %sync.continue

sync.continue:                                    ; preds = %entry, %pfor.detach.lr.ph
  tail call void @_Z3ANNILi1E6vertexI8_point2dIdELi1EEEvPPT0_ii(%struct.vertex** %1, i32 %n, i32 %k)
  %cmp14126 = icmp sgt i32 %rounds, 0
  br i1 %cmp14126, label %for.body.lr.ph, label %for.cond.cleanup

for.body.lr.ph:                                   ; preds = %sync.continue
  %10 = bitcast %struct.timeval* %now.i.i to i8*
  %tv_sec.i.i = getelementptr inbounds %struct.timeval, %struct.timeval* %now.i.i, i64 0, i32 0
  %tv_usec.i.i = getelementptr inbounds %struct.timeval, %struct.timeval* %now.i.i, i64 0, i32 1
  %11 = bitcast %struct.timeval* %now.i.i110 to i8*
  %tv_sec.i.i112 = getelementptr inbounds %struct.timeval, %struct.timeval* %now.i.i110, i64 0, i32 0
  %tv_usec.i.i114 = getelementptr inbounds %struct.timeval, %struct.timeval* %now.i.i110, i64 0, i32 1
  br label %for.body

for.cond.cleanup:                                 ; preds = %_ZN5timer4nextEv.exit, %sync.continue
  %vtable.i = load i8*, i8** bitcast (%"class.std::basic_ostream"* @_ZSt4cout to i8**), align 8, !tbaa !32
  %vbase.offset.ptr.i = getelementptr i8, i8* %vtable.i, i64 -24
  %12 = bitcast i8* %vbase.offset.ptr.i to i64*
  %vbase.offset.i = load i64, i64* %12, align 8
  %add.ptr.i = getelementptr inbounds i8, i8* bitcast (%"class.std::basic_ostream"* @_ZSt4cout to i8*), i64 %vbase.offset.i
  %_M_ctype.i.i = getelementptr inbounds i8, i8* %add.ptr.i, i64 240
  %13 = bitcast i8* %_M_ctype.i.i to %"class.std::ctype"**
  %14 = load %"class.std::ctype"*, %"class.std::ctype"** %13, align 8, !tbaa !41
  %tobool.i.i.i = icmp eq %"class.std::ctype"* %14, null
  br i1 %tobool.i.i.i, label %if.then.i.i.i, label %_ZSt13__check_facetISt5ctypeIcEERKT_PS3_.exit.i.i

if.then.i.i.i:                                    ; preds = %for.cond.cleanup
  tail call void @_ZSt16__throw_bad_castv() #21
  unreachable

_ZSt13__check_facetISt5ctypeIcEERKT_PS3_.exit.i.i: ; preds = %for.cond.cleanup
  %_M_widen_ok.i.i.i = getelementptr inbounds %"class.std::ctype", %"class.std::ctype"* %14, i64 0, i32 8
  %15 = load i8, i8* %_M_widen_ok.i.i.i, align 8, !tbaa !43
  %tobool.i3.i.i = icmp eq i8 %15, 0
  br i1 %tobool.i3.i.i, label %if.end.i.i.i, label %if.then.i4.i.i

if.then.i4.i.i:                                   ; preds = %_ZSt13__check_facetISt5ctypeIcEERKT_PS3_.exit.i.i
  %arrayidx.i.i.i = getelementptr inbounds %"class.std::ctype", %"class.std::ctype"* %14, i64 0, i32 9, i64 10
  %16 = load i8, i8* %arrayidx.i.i.i, align 1, !tbaa !22
  br label %_ZSt4endlIcSt11char_traitsIcEERSt13basic_ostreamIT_T0_ES6_.exit

if.end.i.i.i:                                     ; preds = %_ZSt13__check_facetISt5ctypeIcEERKT_PS3_.exit.i.i
  tail call void @_ZNKSt5ctypeIcE13_M_widen_initEv(%"class.std::ctype"* nonnull %14) #2
  %17 = bitcast %"class.std::ctype"* %14 to i8 (%"class.std::ctype"*, i8)***
  %vtable.i.i.i = load i8 (%"class.std::ctype"*, i8)**, i8 (%"class.std::ctype"*, i8)*** %17, align 8, !tbaa !32
  %vfn.i.i.i = getelementptr inbounds i8 (%"class.std::ctype"*, i8)*, i8 (%"class.std::ctype"*, i8)** %vtable.i.i.i, i64 6
  %18 = load i8 (%"class.std::ctype"*, i8)*, i8 (%"class.std::ctype"*, i8)** %vfn.i.i.i, align 8
  %call.i.i.i = tail call signext i8 %18(%"class.std::ctype"* nonnull %14, i8 signext 10) #2
  br label %_ZSt4endlIcSt11char_traitsIcEERSt13basic_ostreamIT_T0_ES6_.exit

_ZSt4endlIcSt11char_traitsIcEERSt13basic_ostreamIT_T0_ES6_.exit: ; preds = %if.then.i4.i.i, %if.end.i.i.i
  %retval.0.i.i.i = phi i8 [ %16, %if.then.i4.i.i ], [ %call.i.i.i, %if.end.i.i.i ]
  %call1.i = tail call dereferenceable(272) %"class.std::basic_ostream"* @_ZNSo3putEc(%"class.std::basic_ostream"* nonnull @_ZSt4cout, i8 signext %retval.0.i.i.i) #2
  %call.i.i = tail call dereferenceable(272) %"class.std::basic_ostream"* @_ZNSo5flushEv(%"class.std::basic_ostream"* nonnull %call1.i) #2
  %mul18 = mul nsw i32 %k, %n
  %conv19 = sext i32 %mul18 to i64
  %mul20 = shl nsw i64 %conv19, 2
  %call21 = tail call noalias i8* @malloc(i64 %mul20) #2
  %19 = bitcast i8* %call21 to i32*
  %cmp40120 = icmp sgt i32 %k, 0
  %or.cond = and i1 %cmp128, %cmp40120
  br i1 %or.cond, label %pfor.detach33.lr.ph.split.us, label %sync.continue57

pfor.detach33.lr.ph.split.us:                     ; preds = %_ZSt4endlIcSt11char_traitsIcEERSt13basic_ostreamIT_T0_ES6_.exit
  %wide.trip.count = zext i32 %k to i64
  %wide.trip.count134 = zext i32 %n to i64
  %20 = add nsw i64 %wide.trip.count, -1
  %xtraiter = and i64 %wide.trip.count, 7
  %21 = icmp ult i64 %20, 7
  %unroll_iter = sub nsw i64 %wide.trip.count, %xtraiter
  %lcmp.mod = icmp eq i64 %xtraiter, 0
  %22 = add nsw i64 %wide.trip.count134, -1
  %23 = zext i32 %__cilkrts_wc8142 to i64
  %24 = add nsw i64 %wide.trip.count134, -2
  %25 = add nsw i64 %24, %23
  %26 = udiv i64 %25, %23
  %27 = icmp ult i64 %26, 2048
  %28 = select i1 %27, i64 %26, i64 2048
  tail call fastcc void @_Z13timeNeighborsILi1E8_point2dIdEEvPT0_iiiPc_pfor.detach33.us.ls(i64 0, i64 %22, i64 %28, %struct.vertex** %1, i1 %21, i64 %unroll_iter, i32* %19, i1 %lcmp.mod, i64 %xtraiter)
  br label %sync.continue57

for.body:                                         ; preds = %_ZN5timer4nextEv.exit, %for.body.lr.ph
  %i13.0127 = phi i32 [ 0, %for.body.lr.ph ], [ %inc16, %_ZN5timer4nextEv.exit ]
  store i8 1, i8* getelementptr inbounds (%struct.timer, %struct.timer* @_ZL3_tm, i64 0, i32 3), align 8, !tbaa !63
  call void @llvm.lifetime.start.p0i8(i64 16, i8* nonnull %10) #2
  %call.i.i109 = call i32 @gettimeofday(%struct.timeval* nonnull %now.i.i, %struct.timezone* nonnull getelementptr inbounds (%struct.timer, %struct.timer* @_ZL3_tm, i64 0, i32 5)) #2
  %29 = load i64, i64* %tv_sec.i.i, align 8, !tbaa !66
  %conv.i.i = sitofp i64 %29 to double
  %30 = load i64, i64* %tv_usec.i.i, align 8, !tbaa !68
  %conv2.i.i = sitofp i64 %30 to double
  %div.i.i = fmul fast double %conv2.i.i, 0x3EB0C6F7A0B5ED8D
  %add.i.i = fadd fast double %div.i.i, %conv.i.i
  call void @llvm.lifetime.end.p0i8(i64 16, i8* nonnull %10) #2
  store double %add.i.i, double* getelementptr inbounds (%struct.timer, %struct.timer* @_ZL3_tm, i64 0, i32 1), align 8, !tbaa !69
  tail call void @_Z3ANNILi1E6vertexI8_point2dIdELi1EEEvPPT0_ii(%struct.vertex** %1, i32 %n, i32 %k)
  %31 = load i8, i8* getelementptr inbounds (%struct.timer, %struct.timer* @_ZL3_tm, i64 0, i32 3), align 8, !tbaa !63, !range !70
  %tobool.i = icmp eq i8 %31, 0
  br i1 %tobool.i, label %_ZN5timer4nextEv.exit, label %if.end.i

if.end.i:                                         ; preds = %for.body
  call void @llvm.lifetime.start.p0i8(i64 16, i8* nonnull %11) #2
  %call.i.i111 = call i32 @gettimeofday(%struct.timeval* nonnull %now.i.i110, %struct.timezone* nonnull getelementptr inbounds (%struct.timer, %struct.timer* @_ZL3_tm, i64 0, i32 5)) #2
  %32 = load i64, i64* %tv_sec.i.i112, align 8, !tbaa !66
  %conv.i.i113 = sitofp i64 %32 to double
  %33 = load i64, i64* %tv_usec.i.i114, align 8, !tbaa !68
  %conv2.i.i115 = sitofp i64 %33 to double
  %div.i.i116 = fmul fast double %conv2.i.i115, 0x3EB0C6F7A0B5ED8D
  %add.i.i117 = fadd fast double %div.i.i116, %conv.i.i113
  call void @llvm.lifetime.end.p0i8(i64 16, i8* nonnull %11) #2
  %34 = load double, double* getelementptr inbounds (%struct.timer, %struct.timer* @_ZL3_tm, i64 0, i32 1), align 8, !tbaa !69
  %sub.i = fsub fast double %add.i.i117, %34
  %35 = load double, double* getelementptr inbounds (%struct.timer, %struct.timer* @_ZL3_tm, i64 0, i32 0), align 8, !tbaa !71
  %add.i = fadd fast double %sub.i, %35
  store double %add.i, double* getelementptr inbounds (%struct.timer, %struct.timer* @_ZL3_tm, i64 0, i32 0), align 8, !tbaa !71
  store double %add.i.i117, double* getelementptr inbounds (%struct.timer, %struct.timer* @_ZL3_tm, i64 0, i32 1), align 8, !tbaa !69
  br label %_ZN5timer4nextEv.exit

_ZN5timer4nextEv.exit:                            ; preds = %for.body, %if.end.i
  %retval.0.i = phi double [ %sub.i, %if.end.i ], [ 0.000000e+00, %for.body ]
  tail call void @_ZN5timer7reportTEd(%struct.timer* nonnull @_ZL3_tm, double %retval.0.i)
  %inc16 = add nuw nsw i32 %i13.0127, 1
  %exitcond137 = icmp eq i32 %inc16, %rounds
  br i1 %exitcond137, label %for.cond.cleanup, label %for.body

sync.continue57:                                  ; preds = %_ZSt4endlIcSt11char_traitsIcEERSt13basic_ostreamIT_T0_ES6_.exit, %pfor.detach33.lr.ph.split.us
  %cmp59 = icmp eq i8* %outFile, null
  br i1 %cmp59, label %if.end, label %if.then

if.then:                                          ; preds = %sync.continue57
  %call61 = tail call i32 @_ZN7benchIO19writeIntArrayToFileIiEET_PS1_lPc(i32* %19, i64 %conv19, i8* nonnull %outFile)
  br label %if.end

if.end:                                           ; preds = %sync.continue57, %if.then
  tail call void @free(i8* %call21) #2
  tail call void @free(i8* %call1) #2
  tail call void @free(i8* %call4) #2
  ret void
}

; Function Attrs: nounwind uwtable
define linkonce_odr void @_Z13timeNeighborsILi10E8_point2dIdEEvPT0_iiiPc(%class._point2d* %pts, i32 %n, i32 %k, i32 %rounds, i8* %outFile) local_unnamed_addr #7 comdat {
entry:
  %0 = tail call i32 @__cilkrts_get_nworkers()
  %__cilkrts_wc8140 = shl i32 %0, 3
  %now.i.i110 = alloca %struct.timeval, align 8
  %now.i.i = alloca %struct.timeval, align 8
  %conv = sext i32 %n to i64
  %mul = shl nsw i64 %conv, 3
  %call1 = tail call noalias i8* @malloc(i64 %mul) #2
  %1 = bitcast i8* %call1 to %struct.vertex.16**
  %mul3 = mul nsw i64 %conv, 104
  %call4 = tail call noalias i8* @malloc(i64 %mul3) #2
  %cmp126 = icmp sgt i32 %n, 0
  br i1 %cmp126, label %pfor.detach.lr.ph, label %sync.continue

pfor.detach.lr.ph:                                ; preds = %entry
  %2 = bitcast i8* %call4 to %struct.vertex.16*
  %wide.trip.count138 = zext i32 %n to i64
  %3 = add nsw i64 %wide.trip.count138, -1
  %4 = zext i32 %__cilkrts_wc8140 to i64
  %5 = add nsw i64 %wide.trip.count138, -2
  %6 = add nsw i64 %5, %4
  %7 = udiv i64 %6, %4
  %8 = icmp ult i64 %7, 2048
  %9 = select i1 %8, i64 %7, i64 2048
  tail call fastcc void @_Z13timeNeighborsILi10E8_point2dIdEEvPT0_iiiPc_pfor.detach.ls(i64 0, i64 %3, i64 %9, %struct.vertex.16* %2, %class._point2d* %pts, %struct.vertex.16** %1)
  br label %sync.continue

sync.continue:                                    ; preds = %entry, %pfor.detach.lr.ph
  tail call void @_Z3ANNILi10E6vertexI8_point2dIdELi10EEEvPPT0_ii(%struct.vertex.16** %1, i32 %n, i32 %k)
  %cmp14124 = icmp sgt i32 %rounds, 0
  br i1 %cmp14124, label %for.body.lr.ph, label %for.cond.cleanup

for.body.lr.ph:                                   ; preds = %sync.continue
  %10 = bitcast %struct.timeval* %now.i.i to i8*
  %tv_sec.i.i = getelementptr inbounds %struct.timeval, %struct.timeval* %now.i.i, i64 0, i32 0
  %tv_usec.i.i = getelementptr inbounds %struct.timeval, %struct.timeval* %now.i.i, i64 0, i32 1
  %11 = bitcast %struct.timeval* %now.i.i110 to i8*
  %tv_sec.i.i112 = getelementptr inbounds %struct.timeval, %struct.timeval* %now.i.i110, i64 0, i32 0
  %tv_usec.i.i114 = getelementptr inbounds %struct.timeval, %struct.timeval* %now.i.i110, i64 0, i32 1
  br label %for.body

for.cond.cleanup:                                 ; preds = %_ZN5timer4nextEv.exit, %sync.continue
  %vtable.i = load i8*, i8** bitcast (%"class.std::basic_ostream"* @_ZSt4cout to i8**), align 8, !tbaa !32
  %vbase.offset.ptr.i = getelementptr i8, i8* %vtable.i, i64 -24
  %12 = bitcast i8* %vbase.offset.ptr.i to i64*
  %vbase.offset.i = load i64, i64* %12, align 8
  %add.ptr.i = getelementptr inbounds i8, i8* bitcast (%"class.std::basic_ostream"* @_ZSt4cout to i8*), i64 %vbase.offset.i
  %_M_ctype.i.i = getelementptr inbounds i8, i8* %add.ptr.i, i64 240
  %13 = bitcast i8* %_M_ctype.i.i to %"class.std::ctype"**
  %14 = load %"class.std::ctype"*, %"class.std::ctype"** %13, align 8, !tbaa !41
  %tobool.i.i.i = icmp eq %"class.std::ctype"* %14, null
  br i1 %tobool.i.i.i, label %if.then.i.i.i, label %_ZSt13__check_facetISt5ctypeIcEERKT_PS3_.exit.i.i

if.then.i.i.i:                                    ; preds = %for.cond.cleanup
  tail call void @_ZSt16__throw_bad_castv() #21
  unreachable

_ZSt13__check_facetISt5ctypeIcEERKT_PS3_.exit.i.i: ; preds = %for.cond.cleanup
  %_M_widen_ok.i.i.i = getelementptr inbounds %"class.std::ctype", %"class.std::ctype"* %14, i64 0, i32 8
  %15 = load i8, i8* %_M_widen_ok.i.i.i, align 8, !tbaa !43
  %tobool.i3.i.i = icmp eq i8 %15, 0
  br i1 %tobool.i3.i.i, label %if.end.i.i.i, label %if.then.i4.i.i

if.then.i4.i.i:                                   ; preds = %_ZSt13__check_facetISt5ctypeIcEERKT_PS3_.exit.i.i
  %arrayidx.i.i.i = getelementptr inbounds %"class.std::ctype", %"class.std::ctype"* %14, i64 0, i32 9, i64 10
  %16 = load i8, i8* %arrayidx.i.i.i, align 1, !tbaa !22
  br label %_ZSt4endlIcSt11char_traitsIcEERSt13basic_ostreamIT_T0_ES6_.exit

if.end.i.i.i:                                     ; preds = %_ZSt13__check_facetISt5ctypeIcEERKT_PS3_.exit.i.i
  tail call void @_ZNKSt5ctypeIcE13_M_widen_initEv(%"class.std::ctype"* nonnull %14) #2
  %17 = bitcast %"class.std::ctype"* %14 to i8 (%"class.std::ctype"*, i8)***
  %vtable.i.i.i = load i8 (%"class.std::ctype"*, i8)**, i8 (%"class.std::ctype"*, i8)*** %17, align 8, !tbaa !32
  %vfn.i.i.i = getelementptr inbounds i8 (%"class.std::ctype"*, i8)*, i8 (%"class.std::ctype"*, i8)** %vtable.i.i.i, i64 6
  %18 = load i8 (%"class.std::ctype"*, i8)*, i8 (%"class.std::ctype"*, i8)** %vfn.i.i.i, align 8
  %call.i.i.i = tail call signext i8 %18(%"class.std::ctype"* nonnull %14, i8 signext 10) #2
  br label %_ZSt4endlIcSt11char_traitsIcEERSt13basic_ostreamIT_T0_ES6_.exit

_ZSt4endlIcSt11char_traitsIcEERSt13basic_ostreamIT_T0_ES6_.exit: ; preds = %if.then.i4.i.i, %if.end.i.i.i
  %retval.0.i.i.i = phi i8 [ %16, %if.then.i4.i.i ], [ %call.i.i.i, %if.end.i.i.i ]
  %call1.i = tail call dereferenceable(272) %"class.std::basic_ostream"* @_ZNSo3putEc(%"class.std::basic_ostream"* nonnull @_ZSt4cout, i8 signext %retval.0.i.i.i) #2
  %call.i.i = tail call dereferenceable(272) %"class.std::basic_ostream"* @_ZNSo5flushEv(%"class.std::basic_ostream"* nonnull %call1.i) #2
  %mul18 = mul nsw i32 %k, %n
  %conv19 = sext i32 %mul18 to i64
  %mul20 = shl nsw i64 %conv19, 2
  %call21 = tail call noalias i8* @malloc(i64 %mul20) #2
  %19 = bitcast i8* %call21 to i32*
  %cmp40120 = icmp sgt i32 %k, 0
  %or.cond = and i1 %cmp126, %cmp40120
  br i1 %or.cond, label %pfor.detach33.lr.ph.split.us, label %sync.continue57

pfor.detach33.lr.ph.split.us:                     ; preds = %_ZSt4endlIcSt11char_traitsIcEERSt13basic_ostreamIT_T0_ES6_.exit
  %wide.trip.count = zext i32 %k to i64
  %wide.trip.count132 = zext i32 %n to i64
  %20 = add nsw i64 %wide.trip.count, -1
  %xtraiter = and i64 %wide.trip.count, 7
  %21 = icmp ult i64 %20, 7
  %unroll_iter = sub nsw i64 %wide.trip.count, %xtraiter
  %lcmp.mod = icmp eq i64 %xtraiter, 0
  %22 = add nsw i64 %wide.trip.count132, -1
  %23 = zext i32 %__cilkrts_wc8140 to i64
  %24 = add nsw i64 %wide.trip.count132, -2
  %25 = add nsw i64 %24, %23
  %26 = udiv i64 %25, %23
  %27 = icmp ult i64 %26, 2048
  %28 = select i1 %27, i64 %26, i64 2048
  tail call fastcc void @_Z13timeNeighborsILi10E8_point2dIdEEvPT0_iiiPc_pfor.detach33.us.ls(i64 0, i64 %22, i64 %28, %struct.vertex.16** %1, i1 %21, i64 %unroll_iter, i32* %19, i1 %lcmp.mod, i64 %xtraiter)
  br label %sync.continue57

for.body:                                         ; preds = %_ZN5timer4nextEv.exit, %for.body.lr.ph
  %i13.0125 = phi i32 [ 0, %for.body.lr.ph ], [ %inc16, %_ZN5timer4nextEv.exit ]
  store i8 1, i8* getelementptr inbounds (%struct.timer, %struct.timer* @_ZL3_tm, i64 0, i32 3), align 8, !tbaa !63
  call void @llvm.lifetime.start.p0i8(i64 16, i8* nonnull %10) #2
  %call.i.i109 = call i32 @gettimeofday(%struct.timeval* nonnull %now.i.i, %struct.timezone* nonnull getelementptr inbounds (%struct.timer, %struct.timer* @_ZL3_tm, i64 0, i32 5)) #2
  %29 = load i64, i64* %tv_sec.i.i, align 8, !tbaa !66
  %conv.i.i = sitofp i64 %29 to double
  %30 = load i64, i64* %tv_usec.i.i, align 8, !tbaa !68
  %conv2.i.i = sitofp i64 %30 to double
  %div.i.i = fmul fast double %conv2.i.i, 0x3EB0C6F7A0B5ED8D
  %add.i.i = fadd fast double %div.i.i, %conv.i.i
  call void @llvm.lifetime.end.p0i8(i64 16, i8* nonnull %10) #2
  store double %add.i.i, double* getelementptr inbounds (%struct.timer, %struct.timer* @_ZL3_tm, i64 0, i32 1), align 8, !tbaa !69
  tail call void @_Z3ANNILi10E6vertexI8_point2dIdELi10EEEvPPT0_ii(%struct.vertex.16** %1, i32 %n, i32 %k)
  %31 = load i8, i8* getelementptr inbounds (%struct.timer, %struct.timer* @_ZL3_tm, i64 0, i32 3), align 8, !tbaa !63, !range !70
  %tobool.i = icmp eq i8 %31, 0
  br i1 %tobool.i, label %_ZN5timer4nextEv.exit, label %if.end.i

if.end.i:                                         ; preds = %for.body
  call void @llvm.lifetime.start.p0i8(i64 16, i8* nonnull %11) #2
  %call.i.i111 = call i32 @gettimeofday(%struct.timeval* nonnull %now.i.i110, %struct.timezone* nonnull getelementptr inbounds (%struct.timer, %struct.timer* @_ZL3_tm, i64 0, i32 5)) #2
  %32 = load i64, i64* %tv_sec.i.i112, align 8, !tbaa !66
  %conv.i.i113 = sitofp i64 %32 to double
  %33 = load i64, i64* %tv_usec.i.i114, align 8, !tbaa !68
  %conv2.i.i115 = sitofp i64 %33 to double
  %div.i.i116 = fmul fast double %conv2.i.i115, 0x3EB0C6F7A0B5ED8D
  %add.i.i117 = fadd fast double %div.i.i116, %conv.i.i113
  call void @llvm.lifetime.end.p0i8(i64 16, i8* nonnull %11) #2
  %34 = load double, double* getelementptr inbounds (%struct.timer, %struct.timer* @_ZL3_tm, i64 0, i32 1), align 8, !tbaa !69
  %sub.i = fsub fast double %add.i.i117, %34
  %35 = load double, double* getelementptr inbounds (%struct.timer, %struct.timer* @_ZL3_tm, i64 0, i32 0), align 8, !tbaa !71
  %add.i = fadd fast double %sub.i, %35
  store double %add.i, double* getelementptr inbounds (%struct.timer, %struct.timer* @_ZL3_tm, i64 0, i32 0), align 8, !tbaa !71
  store double %add.i.i117, double* getelementptr inbounds (%struct.timer, %struct.timer* @_ZL3_tm, i64 0, i32 1), align 8, !tbaa !69
  br label %_ZN5timer4nextEv.exit

_ZN5timer4nextEv.exit:                            ; preds = %for.body, %if.end.i
  %retval.0.i = phi double [ %sub.i, %if.end.i ], [ 0.000000e+00, %for.body ]
  tail call void @_ZN5timer7reportTEd(%struct.timer* nonnull @_ZL3_tm, double %retval.0.i)
  %inc16 = add nuw nsw i32 %i13.0125, 1
  %exitcond135 = icmp eq i32 %inc16, %rounds
  br i1 %exitcond135, label %for.cond.cleanup, label %for.body

sync.continue57:                                  ; preds = %_ZSt4endlIcSt11char_traitsIcEERSt13basic_ostreamIT_T0_ES6_.exit, %pfor.detach33.lr.ph.split.us
  %cmp59 = icmp eq i8* %outFile, null
  br i1 %cmp59, label %if.end, label %if.then

if.then:                                          ; preds = %sync.continue57
  %call61 = tail call i32 @_ZN7benchIO19writeIntArrayToFileIiEET_PS1_lPc(i32* %19, i64 %conv19, i8* nonnull %outFile)
  br label %if.end

if.end:                                           ; preds = %sync.continue57, %if.then
  tail call void @free(i8* %call21) #2
  tail call void @free(i8* %call1) #2
  tail call void @free(i8* %call4) #2
  ret void
}

; Function Attrs: nounwind uwtable
define linkonce_odr { %class._point3d*, i64 } @_ZN7benchIO18readPointsFromFileI8_point3dIdEEE4_seqIT_EPc(i8* %fname) local_unnamed_addr #7 comdat {
entry:
  %0 = tail call i32 @__cilkrts_get_nworkers()
  %__cilkrts_wc822 = shl i32 %0, 3
  %W = alloca %"struct.benchIO::words", align 8
  %call = tail call { i8*, i64 } @_ZN7benchIO18readStringFromFileEPc(i8* %fname)
  %1 = extractvalue { i8*, i64 } %call, 0
  %2 = extractvalue { i8*, i64 } %call, 1
  %3 = bitcast %"struct.benchIO::words"* %W to i8*
  call void @llvm.lifetime.start.p0i8(i64 32, i8* nonnull %3) #2
  call void @_ZN7benchIO13stringToWordsEPcl(%"struct.benchIO::words"* nonnull sret %W, i8* %1, i64 %2)
  %m = getelementptr inbounds %"struct.benchIO::words", %"struct.benchIO::words"* %W, i64 0, i32 2
  %4 = load i64, i64* %m, align 8, !tbaa !30
  %cmp = icmp eq i64 %4, 0
  br i1 %cmp, label %if.then, label %lor.lhs.false

lor.lhs.false:                                    ; preds = %entry
  %Strings = getelementptr inbounds %"struct.benchIO::words", %"struct.benchIO::words"* %W, i64 0, i32 3
  %5 = load i8**, i8*** %Strings, align 8, !tbaa !31
  %6 = load i8*, i8** %5, align 8, !tbaa !53
  %call.i.i = tail call i32 @_ZNKSt7__cxx1112basic_stringIcSt11char_traitsIcESaIcEE7compareEPKc(%"class.std::__cxx11::basic_string"* nonnull @_ZN7benchIO13HeaderPoint3dB5cxx11E, i8* %6) #2
  %cmp.i.i = icmp eq i32 %call.i.i, 0
  br i1 %cmp.i.i, label %if.end, label %if.then

if.then:                                          ; preds = %lor.lhs.false, %entry
  %call3 = tail call dereferenceable(272) %"class.std::basic_ostream"* @_ZStlsISt11char_traitsIcEERSt13basic_ostreamIcT_ES5_PKc(%"class.std::basic_ostream"* nonnull dereferenceable(272) @_ZSt4cout, i8* getelementptr inbounds ([35 x i8], [35 x i8]* @.str.24, i64 0, i64 0))
  %call.i = tail call dereferenceable(272) %"class.std::basic_ostream"* @_ZSt4endlIcSt11char_traitsIcEERSt13basic_ostreamIT_T0_ES6_(%"class.std::basic_ostream"* nonnull dereferenceable(272) %call3) #2
  tail call void @abort() #21
  unreachable

if.end:                                           ; preds = %lor.lhs.false
  %sub = add nsw i64 %4, -1
  %div = sdiv i64 %sub, 3
  %mul = mul i64 %div, 24
  %call7 = tail call noalias i8* @malloc(i64 %mul) #2
  %7 = bitcast i8* %call7 to %class._point3d*
  %conv9 = trunc i64 %div to i32
  %sext = mul i64 %div, 12884901888
  %conv.i = ashr exact i64 %sext, 32
  %mul1.i = ashr exact i64 %sext, 29
  %call.i19 = tail call noalias i8* @malloc(i64 %mul1.i) #2
  %8 = bitcast i8* %call.i19 to double*
  %cmp67.i = icmp sgt i32 %conv9, 0
  br i1 %cmp67.i, label %pfor.detach.i.preheader, label %_ZN7benchIO11parsePointsI8_point3dIdEEEvPPcPT_i.exit

pfor.detach.i.preheader:                          ; preds = %if.end
  %add.ptr = getelementptr inbounds i8*, i8** %5, i64 1
  %9 = icmp sgt i64 %conv.i, 1
  %smax = select i1 %9, i64 %conv.i, i64 1
  %10 = add nsw i64 %smax, -1
  %11 = zext i32 %__cilkrts_wc822 to i64
  %12 = add nsw i64 %11, -1
  %13 = add nsw i64 %12, %10
  %14 = udiv i64 %13, %11
  %15 = icmp ult i64 %14, 2048
  %16 = select i1 %15, i64 %14, i64 2048
  tail call fastcc void @_ZN7benchIO18readPointsFromFileI8_point3dIdEEE4_seqIT_EPc_pfor.detach.i.ls(i64 0, i64 %10, i64 %16, i8** nonnull %add.ptr, double* %8)
  %sext21 = shl i64 %div, 32
  %conv17.i = ashr exact i64 %sext21, 32
  %17 = add nsw i64 %conv17.i, -1
  %18 = add nsw i64 %12, %17
  %19 = udiv i64 %18, %11
  %20 = icmp ult i64 %19, 2048
  %21 = select i1 %20, i64 %19, i64 2048
  tail call fastcc void @_ZN7benchIO18readPointsFromFileI8_point3dIdEEE4_seqIT_EPc_pfor.detach21.i.ls(i64 0, i64 %17, i64 %21, double* %8, %class._point3d* %7)
  br label %_ZN7benchIO11parsePointsI8_point3dIdEEEvPPcPT_i.exit

_ZN7benchIO11parsePointsI8_point3dIdEEEvPPcPT_i.exit: ; preds = %if.end, %pfor.detach.i.preheader
  tail call void @free(i8* %call.i19) #2
  call void @llvm.lifetime.end.p0i8(i64 32, i8* nonnull %3) #2
  %.fca.0.insert = insertvalue { %class._point3d*, i64 } undef, %class._point3d* %7, 0
  %.fca.1.insert = insertvalue { %class._point3d*, i64 } %.fca.0.insert, i64 %div, 1
  ret { %class._point3d*, i64 } %.fca.1.insert
}

; Function Attrs: nounwind uwtable
define linkonce_odr void @_Z13timeNeighborsILi1E8_point3dIdEEvPT0_iiiPc(%class._point3d* %pts, i32 %n, i32 %k, i32 %rounds, i8* %outFile) local_unnamed_addr #7 comdat {
entry:
  %0 = tail call i32 @__cilkrts_get_nworkers()
  %__cilkrts_wc8141 = shl i32 %0, 3
  %now.i.i110 = alloca %struct.timeval, align 8
  %now.i.i = alloca %struct.timeval, align 8
  %conv = sext i32 %n to i64
  %mul = shl nsw i64 %conv, 3
  %call1 = tail call noalias i8* @malloc(i64 %mul) #2
  %1 = bitcast i8* %call1 to %struct.vertex.29**
  %mul3 = mul nsw i64 %conv, 40
  %call4 = tail call noalias i8* @malloc(i64 %mul3) #2
  %cmp127 = icmp sgt i32 %n, 0
  br i1 %cmp127, label %pfor.detach.lr.ph, label %sync.continue

pfor.detach.lr.ph:                                ; preds = %entry
  %2 = bitcast i8* %call4 to %struct.vertex.29*
  %wide.trip.count139 = zext i32 %n to i64
  %3 = add nsw i64 %wide.trip.count139, -1
  %4 = zext i32 %__cilkrts_wc8141 to i64
  %5 = add nsw i64 %wide.trip.count139, -2
  %6 = add nsw i64 %5, %4
  %7 = udiv i64 %6, %4
  %8 = icmp ult i64 %7, 2048
  %9 = select i1 %8, i64 %7, i64 2048
  tail call fastcc void @_Z13timeNeighborsILi1E8_point3dIdEEvPT0_iiiPc_pfor.detach.ls(i64 0, i64 %3, i64 %9, %struct.vertex.29* %2, %class._point3d* %pts, %struct.vertex.29** %1)
  br label %sync.continue

sync.continue:                                    ; preds = %entry, %pfor.detach.lr.ph
  tail call void @_Z3ANNILi1E6vertexI8_point3dIdELi1EEEvPPT0_ii(%struct.vertex.29** %1, i32 %n, i32 %k)
  %cmp14125 = icmp sgt i32 %rounds, 0
  br i1 %cmp14125, label %for.body.lr.ph, label %for.cond.cleanup

for.body.lr.ph:                                   ; preds = %sync.continue
  %10 = bitcast %struct.timeval* %now.i.i to i8*
  %tv_sec.i.i = getelementptr inbounds %struct.timeval, %struct.timeval* %now.i.i, i64 0, i32 0
  %tv_usec.i.i = getelementptr inbounds %struct.timeval, %struct.timeval* %now.i.i, i64 0, i32 1
  %11 = bitcast %struct.timeval* %now.i.i110 to i8*
  %tv_sec.i.i112 = getelementptr inbounds %struct.timeval, %struct.timeval* %now.i.i110, i64 0, i32 0
  %tv_usec.i.i114 = getelementptr inbounds %struct.timeval, %struct.timeval* %now.i.i110, i64 0, i32 1
  br label %for.body

for.cond.cleanup:                                 ; preds = %_ZN5timer4nextEv.exit, %sync.continue
  %vtable.i = load i8*, i8** bitcast (%"class.std::basic_ostream"* @_ZSt4cout to i8**), align 8, !tbaa !32
  %vbase.offset.ptr.i = getelementptr i8, i8* %vtable.i, i64 -24
  %12 = bitcast i8* %vbase.offset.ptr.i to i64*
  %vbase.offset.i = load i64, i64* %12, align 8
  %add.ptr.i = getelementptr inbounds i8, i8* bitcast (%"class.std::basic_ostream"* @_ZSt4cout to i8*), i64 %vbase.offset.i
  %_M_ctype.i.i = getelementptr inbounds i8, i8* %add.ptr.i, i64 240
  %13 = bitcast i8* %_M_ctype.i.i to %"class.std::ctype"**
  %14 = load %"class.std::ctype"*, %"class.std::ctype"** %13, align 8, !tbaa !41
  %tobool.i.i.i = icmp eq %"class.std::ctype"* %14, null
  br i1 %tobool.i.i.i, label %if.then.i.i.i, label %_ZSt13__check_facetISt5ctypeIcEERKT_PS3_.exit.i.i

if.then.i.i.i:                                    ; preds = %for.cond.cleanup
  tail call void @_ZSt16__throw_bad_castv() #21
  unreachable

_ZSt13__check_facetISt5ctypeIcEERKT_PS3_.exit.i.i: ; preds = %for.cond.cleanup
  %_M_widen_ok.i.i.i = getelementptr inbounds %"class.std::ctype", %"class.std::ctype"* %14, i64 0, i32 8
  %15 = load i8, i8* %_M_widen_ok.i.i.i, align 8, !tbaa !43
  %tobool.i3.i.i = icmp eq i8 %15, 0
  br i1 %tobool.i3.i.i, label %if.end.i.i.i, label %if.then.i4.i.i

if.then.i4.i.i:                                   ; preds = %_ZSt13__check_facetISt5ctypeIcEERKT_PS3_.exit.i.i
  %arrayidx.i.i.i = getelementptr inbounds %"class.std::ctype", %"class.std::ctype"* %14, i64 0, i32 9, i64 10
  %16 = load i8, i8* %arrayidx.i.i.i, align 1, !tbaa !22
  br label %_ZSt4endlIcSt11char_traitsIcEERSt13basic_ostreamIT_T0_ES6_.exit

if.end.i.i.i:                                     ; preds = %_ZSt13__check_facetISt5ctypeIcEERKT_PS3_.exit.i.i
  tail call void @_ZNKSt5ctypeIcE13_M_widen_initEv(%"class.std::ctype"* nonnull %14) #2
  %17 = bitcast %"class.std::ctype"* %14 to i8 (%"class.std::ctype"*, i8)***
  %vtable.i.i.i = load i8 (%"class.std::ctype"*, i8)**, i8 (%"class.std::ctype"*, i8)*** %17, align 8, !tbaa !32
  %vfn.i.i.i = getelementptr inbounds i8 (%"class.std::ctype"*, i8)*, i8 (%"class.std::ctype"*, i8)** %vtable.i.i.i, i64 6
  %18 = load i8 (%"class.std::ctype"*, i8)*, i8 (%"class.std::ctype"*, i8)** %vfn.i.i.i, align 8
  %call.i.i.i = tail call signext i8 %18(%"class.std::ctype"* nonnull %14, i8 signext 10) #2
  br label %_ZSt4endlIcSt11char_traitsIcEERSt13basic_ostreamIT_T0_ES6_.exit

_ZSt4endlIcSt11char_traitsIcEERSt13basic_ostreamIT_T0_ES6_.exit: ; preds = %if.then.i4.i.i, %if.end.i.i.i
  %retval.0.i.i.i = phi i8 [ %16, %if.then.i4.i.i ], [ %call.i.i.i, %if.end.i.i.i ]
  %call1.i = tail call dereferenceable(272) %"class.std::basic_ostream"* @_ZNSo3putEc(%"class.std::basic_ostream"* nonnull @_ZSt4cout, i8 signext %retval.0.i.i.i) #2
  %call.i.i = tail call dereferenceable(272) %"class.std::basic_ostream"* @_ZNSo5flushEv(%"class.std::basic_ostream"* nonnull %call1.i) #2
  %mul18 = mul nsw i32 %k, %n
  %conv19 = sext i32 %mul18 to i64
  %mul20 = shl nsw i64 %conv19, 2
  %call21 = tail call noalias i8* @malloc(i64 %mul20) #2
  %19 = bitcast i8* %call21 to i32*
  %cmp40119 = icmp sgt i32 %k, 0
  %or.cond = and i1 %cmp127, %cmp40119
  br i1 %or.cond, label %pfor.detach33.lr.ph.split.us, label %sync.continue57

pfor.detach33.lr.ph.split.us:                     ; preds = %_ZSt4endlIcSt11char_traitsIcEERSt13basic_ostreamIT_T0_ES6_.exit
  %wide.trip.count = zext i32 %k to i64
  %wide.trip.count133 = zext i32 %n to i64
  %20 = add nsw i64 %wide.trip.count, -1
  %xtraiter = and i64 %wide.trip.count, 7
  %21 = icmp ult i64 %20, 7
  %unroll_iter = sub nsw i64 %wide.trip.count, %xtraiter
  %lcmp.mod = icmp eq i64 %xtraiter, 0
  %22 = add nsw i64 %wide.trip.count133, -1
  %23 = zext i32 %__cilkrts_wc8141 to i64
  %24 = add nsw i64 %wide.trip.count133, -2
  %25 = add nsw i64 %24, %23
  %26 = udiv i64 %25, %23
  %27 = icmp ult i64 %26, 2048
  %28 = select i1 %27, i64 %26, i64 2048
  tail call fastcc void @_Z13timeNeighborsILi1E8_point3dIdEEvPT0_iiiPc_pfor.detach33.us.ls(i64 0, i64 %22, i64 %28, %struct.vertex.29** %1, i1 %21, i64 %unroll_iter, i32* %19, i1 %lcmp.mod, i64 %xtraiter)
  br label %sync.continue57

for.body:                                         ; preds = %_ZN5timer4nextEv.exit, %for.body.lr.ph
  %i13.0126 = phi i32 [ 0, %for.body.lr.ph ], [ %inc16, %_ZN5timer4nextEv.exit ]
  store i8 1, i8* getelementptr inbounds (%struct.timer, %struct.timer* @_ZL3_tm, i64 0, i32 3), align 8, !tbaa !63
  call void @llvm.lifetime.start.p0i8(i64 16, i8* nonnull %10) #2
  %call.i.i109 = call i32 @gettimeofday(%struct.timeval* nonnull %now.i.i, %struct.timezone* nonnull getelementptr inbounds (%struct.timer, %struct.timer* @_ZL3_tm, i64 0, i32 5)) #2
  %29 = load i64, i64* %tv_sec.i.i, align 8, !tbaa !66
  %conv.i.i = sitofp i64 %29 to double
  %30 = load i64, i64* %tv_usec.i.i, align 8, !tbaa !68
  %conv2.i.i = sitofp i64 %30 to double
  %div.i.i = fmul fast double %conv2.i.i, 0x3EB0C6F7A0B5ED8D
  %add.i.i = fadd fast double %div.i.i, %conv.i.i
  call void @llvm.lifetime.end.p0i8(i64 16, i8* nonnull %10) #2
  store double %add.i.i, double* getelementptr inbounds (%struct.timer, %struct.timer* @_ZL3_tm, i64 0, i32 1), align 8, !tbaa !69
  tail call void @_Z3ANNILi1E6vertexI8_point3dIdELi1EEEvPPT0_ii(%struct.vertex.29** %1, i32 %n, i32 %k)
  %31 = load i8, i8* getelementptr inbounds (%struct.timer, %struct.timer* @_ZL3_tm, i64 0, i32 3), align 8, !tbaa !63, !range !70
  %tobool.i = icmp eq i8 %31, 0
  br i1 %tobool.i, label %_ZN5timer4nextEv.exit, label %if.end.i

if.end.i:                                         ; preds = %for.body
  call void @llvm.lifetime.start.p0i8(i64 16, i8* nonnull %11) #2
  %call.i.i111 = call i32 @gettimeofday(%struct.timeval* nonnull %now.i.i110, %struct.timezone* nonnull getelementptr inbounds (%struct.timer, %struct.timer* @_ZL3_tm, i64 0, i32 5)) #2
  %32 = load i64, i64* %tv_sec.i.i112, align 8, !tbaa !66
  %conv.i.i113 = sitofp i64 %32 to double
  %33 = load i64, i64* %tv_usec.i.i114, align 8, !tbaa !68
  %conv2.i.i115 = sitofp i64 %33 to double
  %div.i.i116 = fmul fast double %conv2.i.i115, 0x3EB0C6F7A0B5ED8D
  %add.i.i117 = fadd fast double %div.i.i116, %conv.i.i113
  call void @llvm.lifetime.end.p0i8(i64 16, i8* nonnull %11) #2
  %34 = load double, double* getelementptr inbounds (%struct.timer, %struct.timer* @_ZL3_tm, i64 0, i32 1), align 8, !tbaa !69
  %sub.i = fsub fast double %add.i.i117, %34
  %35 = load double, double* getelementptr inbounds (%struct.timer, %struct.timer* @_ZL3_tm, i64 0, i32 0), align 8, !tbaa !71
  %add.i = fadd fast double %sub.i, %35
  store double %add.i, double* getelementptr inbounds (%struct.timer, %struct.timer* @_ZL3_tm, i64 0, i32 0), align 8, !tbaa !71
  store double %add.i.i117, double* getelementptr inbounds (%struct.timer, %struct.timer* @_ZL3_tm, i64 0, i32 1), align 8, !tbaa !69
  br label %_ZN5timer4nextEv.exit

_ZN5timer4nextEv.exit:                            ; preds = %for.body, %if.end.i
  %retval.0.i = phi double [ %sub.i, %if.end.i ], [ 0.000000e+00, %for.body ]
  tail call void @_ZN5timer7reportTEd(%struct.timer* nonnull @_ZL3_tm, double %retval.0.i)
  %inc16 = add nuw nsw i32 %i13.0126, 1
  %exitcond136 = icmp eq i32 %inc16, %rounds
  br i1 %exitcond136, label %for.cond.cleanup, label %for.body

sync.continue57:                                  ; preds = %_ZSt4endlIcSt11char_traitsIcEERSt13basic_ostreamIT_T0_ES6_.exit, %pfor.detach33.lr.ph.split.us
  %cmp59 = icmp eq i8* %outFile, null
  br i1 %cmp59, label %if.end, label %if.then

if.then:                                          ; preds = %sync.continue57
  %call61 = tail call i32 @_ZN7benchIO19writeIntArrayToFileIiEET_PS1_lPc(i32* %19, i64 %conv19, i8* nonnull %outFile)
  br label %if.end

if.end:                                           ; preds = %sync.continue57, %if.then
  tail call void @free(i8* %call21) #2
  tail call void @free(i8* %call1) #2
  tail call void @free(i8* %call4) #2
  ret void
}

; Function Attrs: nounwind uwtable
define linkonce_odr void @_Z13timeNeighborsILi10E8_point3dIdEEvPT0_iiiPc(%class._point3d* %pts, i32 %n, i32 %k, i32 %rounds, i8* %outFile) local_unnamed_addr #7 comdat {
entry:
  %0 = tail call i32 @__cilkrts_get_nworkers()
  %__cilkrts_wc8139 = shl i32 %0, 3
  %now.i.i110 = alloca %struct.timeval, align 8
  %now.i.i = alloca %struct.timeval, align 8
  %conv = sext i32 %n to i64
  %mul = shl nsw i64 %conv, 3
  %call1 = tail call noalias i8* @malloc(i64 %mul) #2
  %1 = bitcast i8* %call1 to %struct.vertex.44**
  %mul3 = mul nsw i64 %conv, 112
  %call4 = tail call noalias i8* @malloc(i64 %mul3) #2
  %cmp125 = icmp sgt i32 %n, 0
  br i1 %cmp125, label %pfor.detach.lr.ph, label %sync.continue

pfor.detach.lr.ph:                                ; preds = %entry
  %2 = bitcast i8* %call4 to %struct.vertex.44*
  %wide.trip.count137 = zext i32 %n to i64
  %3 = add nsw i64 %wide.trip.count137, -1
  %4 = zext i32 %__cilkrts_wc8139 to i64
  %5 = add nsw i64 %wide.trip.count137, -2
  %6 = add nsw i64 %5, %4
  %7 = udiv i64 %6, %4
  %8 = icmp ult i64 %7, 2048
  %9 = select i1 %8, i64 %7, i64 2048
  tail call fastcc void @_Z13timeNeighborsILi10E8_point3dIdEEvPT0_iiiPc_pfor.detach.ls(i64 0, i64 %3, i64 %9, %struct.vertex.44* %2, %class._point3d* %pts, %struct.vertex.44** %1)
  br label %sync.continue

sync.continue:                                    ; preds = %entry, %pfor.detach.lr.ph
  tail call void @_Z3ANNILi10E6vertexI8_point3dIdELi10EEEvPPT0_ii(%struct.vertex.44** %1, i32 %n, i32 %k)
  %cmp14123 = icmp sgt i32 %rounds, 0
  br i1 %cmp14123, label %for.body.lr.ph, label %for.cond.cleanup

for.body.lr.ph:                                   ; preds = %sync.continue
  %10 = bitcast %struct.timeval* %now.i.i to i8*
  %tv_sec.i.i = getelementptr inbounds %struct.timeval, %struct.timeval* %now.i.i, i64 0, i32 0
  %tv_usec.i.i = getelementptr inbounds %struct.timeval, %struct.timeval* %now.i.i, i64 0, i32 1
  %11 = bitcast %struct.timeval* %now.i.i110 to i8*
  %tv_sec.i.i112 = getelementptr inbounds %struct.timeval, %struct.timeval* %now.i.i110, i64 0, i32 0
  %tv_usec.i.i114 = getelementptr inbounds %struct.timeval, %struct.timeval* %now.i.i110, i64 0, i32 1
  br label %for.body

for.cond.cleanup:                                 ; preds = %_ZN5timer4nextEv.exit, %sync.continue
  %vtable.i = load i8*, i8** bitcast (%"class.std::basic_ostream"* @_ZSt4cout to i8**), align 8, !tbaa !32
  %vbase.offset.ptr.i = getelementptr i8, i8* %vtable.i, i64 -24
  %12 = bitcast i8* %vbase.offset.ptr.i to i64*
  %vbase.offset.i = load i64, i64* %12, align 8
  %add.ptr.i = getelementptr inbounds i8, i8* bitcast (%"class.std::basic_ostream"* @_ZSt4cout to i8*), i64 %vbase.offset.i
  %_M_ctype.i.i = getelementptr inbounds i8, i8* %add.ptr.i, i64 240
  %13 = bitcast i8* %_M_ctype.i.i to %"class.std::ctype"**
  %14 = load %"class.std::ctype"*, %"class.std::ctype"** %13, align 8, !tbaa !41
  %tobool.i.i.i = icmp eq %"class.std::ctype"* %14, null
  br i1 %tobool.i.i.i, label %if.then.i.i.i, label %_ZSt13__check_facetISt5ctypeIcEERKT_PS3_.exit.i.i

if.then.i.i.i:                                    ; preds = %for.cond.cleanup
  tail call void @_ZSt16__throw_bad_castv() #21
  unreachable

_ZSt13__check_facetISt5ctypeIcEERKT_PS3_.exit.i.i: ; preds = %for.cond.cleanup
  %_M_widen_ok.i.i.i = getelementptr inbounds %"class.std::ctype", %"class.std::ctype"* %14, i64 0, i32 8
  %15 = load i8, i8* %_M_widen_ok.i.i.i, align 8, !tbaa !43
  %tobool.i3.i.i = icmp eq i8 %15, 0
  br i1 %tobool.i3.i.i, label %if.end.i.i.i, label %if.then.i4.i.i

if.then.i4.i.i:                                   ; preds = %_ZSt13__check_facetISt5ctypeIcEERKT_PS3_.exit.i.i
  %arrayidx.i.i.i = getelementptr inbounds %"class.std::ctype", %"class.std::ctype"* %14, i64 0, i32 9, i64 10
  %16 = load i8, i8* %arrayidx.i.i.i, align 1, !tbaa !22
  br label %_ZSt4endlIcSt11char_traitsIcEERSt13basic_ostreamIT_T0_ES6_.exit

if.end.i.i.i:                                     ; preds = %_ZSt13__check_facetISt5ctypeIcEERKT_PS3_.exit.i.i
  tail call void @_ZNKSt5ctypeIcE13_M_widen_initEv(%"class.std::ctype"* nonnull %14) #2
  %17 = bitcast %"class.std::ctype"* %14 to i8 (%"class.std::ctype"*, i8)***
  %vtable.i.i.i = load i8 (%"class.std::ctype"*, i8)**, i8 (%"class.std::ctype"*, i8)*** %17, align 8, !tbaa !32
  %vfn.i.i.i = getelementptr inbounds i8 (%"class.std::ctype"*, i8)*, i8 (%"class.std::ctype"*, i8)** %vtable.i.i.i, i64 6
  %18 = load i8 (%"class.std::ctype"*, i8)*, i8 (%"class.std::ctype"*, i8)** %vfn.i.i.i, align 8
  %call.i.i.i = tail call signext i8 %18(%"class.std::ctype"* nonnull %14, i8 signext 10) #2
  br label %_ZSt4endlIcSt11char_traitsIcEERSt13basic_ostreamIT_T0_ES6_.exit

_ZSt4endlIcSt11char_traitsIcEERSt13basic_ostreamIT_T0_ES6_.exit: ; preds = %if.then.i4.i.i, %if.end.i.i.i
  %retval.0.i.i.i = phi i8 [ %16, %if.then.i4.i.i ], [ %call.i.i.i, %if.end.i.i.i ]
  %call1.i = tail call dereferenceable(272) %"class.std::basic_ostream"* @_ZNSo3putEc(%"class.std::basic_ostream"* nonnull @_ZSt4cout, i8 signext %retval.0.i.i.i) #2
  %call.i.i = tail call dereferenceable(272) %"class.std::basic_ostream"* @_ZNSo5flushEv(%"class.std::basic_ostream"* nonnull %call1.i) #2
  %mul18 = mul nsw i32 %k, %n
  %conv19 = sext i32 %mul18 to i64
  %mul20 = shl nsw i64 %conv19, 2
  %call21 = tail call noalias i8* @malloc(i64 %mul20) #2
  %19 = bitcast i8* %call21 to i32*
  %cmp40119 = icmp sgt i32 %k, 0
  %or.cond = and i1 %cmp125, %cmp40119
  br i1 %or.cond, label %pfor.detach33.lr.ph.split.us, label %sync.continue57

pfor.detach33.lr.ph.split.us:                     ; preds = %_ZSt4endlIcSt11char_traitsIcEERSt13basic_ostreamIT_T0_ES6_.exit
  %wide.trip.count = zext i32 %k to i64
  %wide.trip.count131 = zext i32 %n to i64
  %20 = add nsw i64 %wide.trip.count, -1
  %xtraiter = and i64 %wide.trip.count, 7
  %21 = icmp ult i64 %20, 7
  %unroll_iter = sub nsw i64 %wide.trip.count, %xtraiter
  %lcmp.mod = icmp eq i64 %xtraiter, 0
  %22 = add nsw i64 %wide.trip.count131, -1
  %23 = zext i32 %__cilkrts_wc8139 to i64
  %24 = add nsw i64 %wide.trip.count131, -2
  %25 = add nsw i64 %24, %23
  %26 = udiv i64 %25, %23
  %27 = icmp ult i64 %26, 2048
  %28 = select i1 %27, i64 %26, i64 2048
  tail call fastcc void @_Z13timeNeighborsILi10E8_point3dIdEEvPT0_iiiPc_pfor.detach33.us.ls(i64 0, i64 %22, i64 %28, %struct.vertex.44** %1, i1 %21, i64 %unroll_iter, i32* %19, i1 %lcmp.mod, i64 %xtraiter)
  br label %sync.continue57

for.body:                                         ; preds = %_ZN5timer4nextEv.exit, %for.body.lr.ph
  %i13.0124 = phi i32 [ 0, %for.body.lr.ph ], [ %inc16, %_ZN5timer4nextEv.exit ]
  store i8 1, i8* getelementptr inbounds (%struct.timer, %struct.timer* @_ZL3_tm, i64 0, i32 3), align 8, !tbaa !63
  call void @llvm.lifetime.start.p0i8(i64 16, i8* nonnull %10) #2
  %call.i.i109 = call i32 @gettimeofday(%struct.timeval* nonnull %now.i.i, %struct.timezone* nonnull getelementptr inbounds (%struct.timer, %struct.timer* @_ZL3_tm, i64 0, i32 5)) #2
  %29 = load i64, i64* %tv_sec.i.i, align 8, !tbaa !66
  %conv.i.i = sitofp i64 %29 to double
  %30 = load i64, i64* %tv_usec.i.i, align 8, !tbaa !68
  %conv2.i.i = sitofp i64 %30 to double
  %div.i.i = fmul fast double %conv2.i.i, 0x3EB0C6F7A0B5ED8D
  %add.i.i = fadd fast double %div.i.i, %conv.i.i
  call void @llvm.lifetime.end.p0i8(i64 16, i8* nonnull %10) #2
  store double %add.i.i, double* getelementptr inbounds (%struct.timer, %struct.timer* @_ZL3_tm, i64 0, i32 1), align 8, !tbaa !69
  tail call void @_Z3ANNILi10E6vertexI8_point3dIdELi10EEEvPPT0_ii(%struct.vertex.44** %1, i32 %n, i32 %k)
  %31 = load i8, i8* getelementptr inbounds (%struct.timer, %struct.timer* @_ZL3_tm, i64 0, i32 3), align 8, !tbaa !63, !range !70
  %tobool.i = icmp eq i8 %31, 0
  br i1 %tobool.i, label %_ZN5timer4nextEv.exit, label %if.end.i

if.end.i:                                         ; preds = %for.body
  call void @llvm.lifetime.start.p0i8(i64 16, i8* nonnull %11) #2
  %call.i.i111 = call i32 @gettimeofday(%struct.timeval* nonnull %now.i.i110, %struct.timezone* nonnull getelementptr inbounds (%struct.timer, %struct.timer* @_ZL3_tm, i64 0, i32 5)) #2
  %32 = load i64, i64* %tv_sec.i.i112, align 8, !tbaa !66
  %conv.i.i113 = sitofp i64 %32 to double
  %33 = load i64, i64* %tv_usec.i.i114, align 8, !tbaa !68
  %conv2.i.i115 = sitofp i64 %33 to double
  %div.i.i116 = fmul fast double %conv2.i.i115, 0x3EB0C6F7A0B5ED8D
  %add.i.i117 = fadd fast double %div.i.i116, %conv.i.i113
  call void @llvm.lifetime.end.p0i8(i64 16, i8* nonnull %11) #2
  %34 = load double, double* getelementptr inbounds (%struct.timer, %struct.timer* @_ZL3_tm, i64 0, i32 1), align 8, !tbaa !69
  %sub.i = fsub fast double %add.i.i117, %34
  %35 = load double, double* getelementptr inbounds (%struct.timer, %struct.timer* @_ZL3_tm, i64 0, i32 0), align 8, !tbaa !71
  %add.i = fadd fast double %sub.i, %35
  store double %add.i, double* getelementptr inbounds (%struct.timer, %struct.timer* @_ZL3_tm, i64 0, i32 0), align 8, !tbaa !71
  store double %add.i.i117, double* getelementptr inbounds (%struct.timer, %struct.timer* @_ZL3_tm, i64 0, i32 1), align 8, !tbaa !69
  br label %_ZN5timer4nextEv.exit

_ZN5timer4nextEv.exit:                            ; preds = %for.body, %if.end.i
  %retval.0.i = phi double [ %sub.i, %if.end.i ], [ 0.000000e+00, %for.body ]
  tail call void @_ZN5timer7reportTEd(%struct.timer* nonnull @_ZL3_tm, double %retval.0.i)
  %inc16 = add nuw nsw i32 %i13.0124, 1
  %exitcond134 = icmp eq i32 %inc16, %rounds
  br i1 %exitcond134, label %for.cond.cleanup, label %for.body

sync.continue57:                                  ; preds = %_ZSt4endlIcSt11char_traitsIcEERSt13basic_ostreamIT_T0_ES6_.exit, %pfor.detach33.lr.ph.split.us
  %cmp59 = icmp eq i8* %outFile, null
  br i1 %cmp59, label %if.end, label %if.then

if.then:                                          ; preds = %sync.continue57
  %call61 = tail call i32 @_ZN7benchIO19writeIntArrayToFileIiEET_PS1_lPc(i32* %19, i64 %conv19, i8* nonnull %outFile)
  br label %if.end

if.end:                                           ; preds = %sync.continue57, %if.then
  tail call void @free(i8* %call21) #2
  tail call void @free(i8* %call1) #2
  tail call void @free(i8* %call4) #2
  ret void
}

; Function Attrs: argmemonly nounwind
declare void @llvm.memset.p0i8.i64(i8* nocapture writeonly, i8, i64, i32, i1) #4

; Function Attrs: nounwind
declare i64 @strtol(i8* readonly, i8** nocapture, i32) local_unnamed_addr #1

; Function Attrs: nounwind
declare double @strtod(i8* readonly, i8** nocapture) local_unnamed_addr #1

; Function Attrs: noreturn
declare void @_ZSt19__throw_logic_errorPKc(i8*) local_unnamed_addr #10

declare i8* @_ZNSt7__cxx1112basic_stringIcSt11char_traitsIcESaIcEE9_M_createERmm(%"class.std::__cxx11::basic_string"*, i64* dereferenceable(8), i64) local_unnamed_addr #0

; Function Attrs: nounwind readonly
declare i32 @memcmp(i8* nocapture, i8* nocapture, i64) local_unnamed_addr #11

; Function Attrs: inlinehint nounwind uwtable
declare dereferenceable(272) %"class.std::basic_ostream"* @_ZStlsIcSt11char_traitsIcESaIcEERSt13basic_ostreamIT_T0_ES7_RKNSt7__cxx1112basic_stringIS4_S5_T1_EE(%"class.std::basic_ostream"* dereferenceable(272), %"class.std::__cxx11::basic_string"* dereferenceable(32)) local_unnamed_addr #8

declare dereferenceable(272) %"class.std::basic_ostream"* @_ZSt16__ostream_insertIcSt11char_traitsIcEERSt13basic_ostreamIT_T0_ES6_PKS3_l(%"class.std::basic_ostream"* dereferenceable(272), i8*, i64) local_unnamed_addr #0

; Function Attrs: nobuiltin nounwind
declare void @_ZdlPv(i8*) local_unnamed_addr #12

declare dereferenceable(32) %"class.std::__cxx11::basic_string"* @_ZNSt7__cxx1112basic_stringIcSt11char_traitsIcESaIcEE9_M_appendEPKcm(%"class.std::__cxx11::basic_string"*, i8*, i64) local_unnamed_addr #0

; Function Attrs: argmemonly nounwind readonly
declare i64 @strlen(i8* nocapture) local_unnamed_addr #13

; Function Attrs: noreturn
declare void @_ZSt20__throw_length_errorPKc(i8*) local_unnamed_addr #10

declare void @_ZNSt9basic_iosIcSt11char_traitsIcEE5clearESt12_Ios_Iostate(%"class.std::basic_ios"*, i32) local_unnamed_addr #0

declare dereferenceable(272) %"class.std::basic_ostream"* @_ZNSo3putEc(%"class.std::basic_ostream"*, i8 signext) local_unnamed_addr #0

declare dereferenceable(272) %"class.std::basic_ostream"* @_ZNSo5flushEv(%"class.std::basic_ostream"*) local_unnamed_addr #0

; Function Attrs: noreturn
declare void @_ZSt16__throw_bad_castv() local_unnamed_addr #10

declare void @_ZNKSt5ctypeIcE13_M_widen_initEv(%"class.std::ctype"*) local_unnamed_addr #0

; Function Attrs: nounwind uwtable
define linkonce_odr { i64*, i64 } @_ZN8sequence4packIllN5utils9identityFIlEEEE4_seqIT_EPS5_PbT0_S9_T1_(i64* %Out, i8* %Fl, i64 %s, i64 %e) local_unnamed_addr #7 comdat {
entry:
  %sub = sub i64 %e, %s
  %sub1 = add nsw i64 %sub, -1
  %div = sdiv i64 %sub1, 2048
  %add = add nsw i64 %div, 1
  %cmp = icmp slt i64 %sub, 2049
  br i1 %cmp, label %if.then, label %pfor.detach.lr.ph

if.then:                                          ; preds = %entry
  %cmp.i = icmp eq i64* %Out, null
  br i1 %cmp.i, label %if.then.i, label %if.end.i

if.then.i:                                        ; preds = %if.then
  %add.ptr.i = getelementptr inbounds i8, i8* %Fl, i64 %s
  %cmp.i.i = icmp sgt i64 %sub, 127
  %and.i.i = and i64 %sub, 511
  %cmp1.i.i = icmp eq i64 %and.i.i, 0
  %or.cond.i.i = and i1 %cmp.i.i, %cmp1.i.i
  br i1 %or.cond.i.i, label %land.lhs.true2.i.i, label %if.else.i.i

land.lhs.true2.i.i:                               ; preds = %if.then.i
  %0 = ptrtoint i8* %add.ptr.i to i64
  %and3.i.i = and i64 %0, 3
  %cmp4.i.i = icmp eq i64 %and3.i.i, 0
  br i1 %cmp4.i.i, label %if.then.i.i, label %vector.ph347

if.then.i.i:                                      ; preds = %land.lhs.true2.i.i
  %shr75.i.i = lshr i64 %sub, 9
  %cmp562.i.i = icmp sgt i64 %sub, 511
  br i1 %cmp562.i.i, label %for.body.lr.ph.i.i, label %_ZN8sequence14sumFlagsSerialIlEET_PbS1_.exit.i

for.body.lr.ph.i.i:                               ; preds = %if.then.i.i
  %1 = bitcast i8* %add.ptr.i to i32*
  br label %vector.ph379

vector.ph379:                                     ; preds = %for.body.lr.ph.i.i, %vector.ph379
  %indvars.iv71.i.i = phi i64 [ 0, %for.body.lr.ph.i.i ], [ %indvars.iv.next72.i.i, %vector.ph379 ]
  %IFl.064.i.i = phi i32* [ %1, %for.body.lr.ph.i.i ], [ %add.ptr.i.i, %vector.ph379 ]
  %r.063.i.i = phi i64 [ 0, %for.body.lr.ph.i.i ], [ %add21.i.i, %vector.ph379 ]
  %2 = bitcast i32* %IFl.064.i.i to <8 x i32>*
  %wide.load394 = load <8 x i32>, <8 x i32>* %2, align 4, !tbaa !59
  %3 = getelementptr i32, i32* %IFl.064.i.i, i64 8
  %4 = bitcast i32* %3 to <8 x i32>*
  %wide.load395 = load <8 x i32>, <8 x i32>* %4, align 4, !tbaa !59
  %5 = getelementptr i32, i32* %IFl.064.i.i, i64 16
  %6 = bitcast i32* %5 to <8 x i32>*
  %wide.load396 = load <8 x i32>, <8 x i32>* %6, align 4, !tbaa !59
  %7 = getelementptr i32, i32* %IFl.064.i.i, i64 24
  %8 = bitcast i32* %7 to <8 x i32>*
  %wide.load397 = load <8 x i32>, <8 x i32>* %8, align 4, !tbaa !59
  %9 = getelementptr inbounds i32, i32* %IFl.064.i.i, i64 32
  %10 = bitcast i32* %9 to <8 x i32>*
  %wide.load394.1 = load <8 x i32>, <8 x i32>* %10, align 4, !tbaa !59
  %11 = getelementptr i32, i32* %IFl.064.i.i, i64 40
  %12 = bitcast i32* %11 to <8 x i32>*
  %wide.load395.1 = load <8 x i32>, <8 x i32>* %12, align 4, !tbaa !59
  %13 = getelementptr i32, i32* %IFl.064.i.i, i64 48
  %14 = bitcast i32* %13 to <8 x i32>*
  %wide.load396.1 = load <8 x i32>, <8 x i32>* %14, align 4, !tbaa !59
  %15 = getelementptr i32, i32* %IFl.064.i.i, i64 56
  %16 = bitcast i32* %15 to <8 x i32>*
  %wide.load397.1 = load <8 x i32>, <8 x i32>* %16, align 4, !tbaa !59
  %17 = getelementptr inbounds i32, i32* %IFl.064.i.i, i64 64
  %18 = bitcast i32* %17 to <8 x i32>*
  %wide.load394.2 = load <8 x i32>, <8 x i32>* %18, align 4, !tbaa !59
  %19 = getelementptr i32, i32* %IFl.064.i.i, i64 72
  %20 = bitcast i32* %19 to <8 x i32>*
  %wide.load395.2 = load <8 x i32>, <8 x i32>* %20, align 4, !tbaa !59
  %21 = getelementptr i32, i32* %IFl.064.i.i, i64 80
  %22 = bitcast i32* %21 to <8 x i32>*
  %wide.load396.2 = load <8 x i32>, <8 x i32>* %22, align 4, !tbaa !59
  %23 = getelementptr i32, i32* %IFl.064.i.i, i64 88
  %24 = bitcast i32* %23 to <8 x i32>*
  %wide.load397.2 = load <8 x i32>, <8 x i32>* %24, align 4, !tbaa !59
  %25 = getelementptr inbounds i32, i32* %IFl.064.i.i, i64 96
  %26 = bitcast i32* %25 to <8 x i32>*
  %wide.load394.3 = load <8 x i32>, <8 x i32>* %26, align 4, !tbaa !59
  %27 = getelementptr i32, i32* %IFl.064.i.i, i64 104
  %28 = bitcast i32* %27 to <8 x i32>*
  %wide.load395.3 = load <8 x i32>, <8 x i32>* %28, align 4, !tbaa !59
  %29 = getelementptr i32, i32* %IFl.064.i.i, i64 112
  %30 = bitcast i32* %29 to <8 x i32>*
  %wide.load396.3 = load <8 x i32>, <8 x i32>* %30, align 4, !tbaa !59
  %31 = getelementptr i32, i32* %IFl.064.i.i, i64 120
  %32 = bitcast i32* %31 to <8 x i32>*
  %wide.load397.3 = load <8 x i32>, <8 x i32>* %32, align 4, !tbaa !59
  %33 = add <8 x i32> %wide.load395, %wide.load394
  %34 = add <8 x i32> %33, %wide.load396
  %35 = add <8 x i32> %34, %wide.load397
  %36 = add <8 x i32> %35, %wide.load394.1
  %37 = add <8 x i32> %36, %wide.load395.1
  %38 = add <8 x i32> %37, %wide.load396.1
  %bin.rdx398 = add <8 x i32> %38, %wide.load397.1
  %39 = add <8 x i32> %bin.rdx398, %wide.load394.2
  %40 = add <8 x i32> %39, %wide.load395.2
  %41 = add <8 x i32> %40, %wide.load396.2
  %bin.rdx399 = add <8 x i32> %41, %wide.load397.2
  %42 = add <8 x i32> %bin.rdx399, %wide.load394.3
  %43 = add <8 x i32> %42, %wide.load395.3
  %44 = add <8 x i32> %43, %wide.load396.3
  %bin.rdx400 = add <8 x i32> %44, %wide.load397.3
  %rdx.shuf401 = shufflevector <8 x i32> %bin.rdx400, <8 x i32> undef, <8 x i32> <i32 4, i32 5, i32 6, i32 7, i32 undef, i32 undef, i32 undef, i32 undef>
  %bin.rdx402 = add <8 x i32> %rdx.shuf401, %bin.rdx400
  %rdx.shuf403 = shufflevector <8 x i32> %bin.rdx402, <8 x i32> undef, <8 x i32> <i32 2, i32 3, i32 undef, i32 undef, i32 undef, i32 undef, i32 undef, i32 undef>
  %bin.rdx404 = add <8 x i32> %rdx.shuf403, %bin.rdx402
  %rdx.shuf405 = shufflevector <8 x i32> %bin.rdx404, <8 x i32> undef, <8 x i32> <i32 1, i32 undef, i32 undef, i32 undef, i32 undef, i32 undef, i32 undef, i32 undef>
  %bin.rdx406 = add <8 x i32> %rdx.shuf405, %bin.rdx404
  %45 = extractelement <8 x i32> %bin.rdx406, i32 0
  %and10.i.i = and i32 %45, 255
  %46 = lshr i32 %45, 8
  %and12.i.i = and i32 %46, 255
  %47 = lshr i32 %45, 16
  %and15.i.i = and i32 %47, 255
  %48 = lshr i32 %45, 24
  %add13.i.i = add nuw nsw i32 %48, %and10.i.i
  %add16.i.i = add nuw nsw i32 %add13.i.i, %and12.i.i
  %add19.i.i = add nuw nsw i32 %add16.i.i, %and15.i.i
  %49 = zext i32 %add19.i.i to i64
  %add21.i.i = add nuw nsw i64 %r.063.i.i, %49
  %add.ptr.i.i = getelementptr inbounds i32, i32* %IFl.064.i.i, i64 128
  %indvars.iv.next72.i.i = add nuw nsw i64 %indvars.iv71.i.i, 1
  %cmp5.i.i = icmp ugt i64 %shr75.i.i, %indvars.iv.next72.i.i
  br i1 %cmp5.i.i, label %vector.ph379, label %_ZN8sequence14sumFlagsSerialIlEET_PbS1_.exit.i

if.else.i.i:                                      ; preds = %if.then.i
  %cmp2766.i.i = icmp sgt i64 %sub, 0
  br i1 %cmp2766.i.i, label %for.body29.lr.ph.i.i, label %_ZN8sequence14sumFlagsSerialIlEET_PbS1_.exit.i

for.body29.lr.ph.i.i:                             ; preds = %if.else.i.i
  %min.iters.check346 = icmp ult i64 %sub, 16
  br i1 %min.iters.check346, label %for.body29.i.i.preheader, label %vector.ph347

vector.ph347:                                     ; preds = %land.lhs.true2.i.i, %for.body29.lr.ph.i.i
  %n.vec349 = and i64 %sub, -16
  %50 = add i64 %n.vec349, -16
  %51 = lshr exact i64 %50, 4
  %52 = add nuw nsw i64 %51, 1
  %xtraiter435 = and i64 %52, 3
  %53 = icmp ult i64 %50, 48
  br i1 %53, label %middle.block344.unr-lcssa, label %vector.ph347.new

vector.ph347.new:                                 ; preds = %vector.ph347
  %unroll_iter442 = sub nsw i64 %52, %xtraiter435
  br label %vector.body343

vector.body343:                                   ; preds = %vector.body343, %vector.ph347.new
  %index350 = phi i64 [ 0, %vector.ph347.new ], [ %index.next351.3, %vector.body343 ]
  %vec.phi360 = phi <4 x i64> [ zeroinitializer, %vector.ph347.new ], [ %114, %vector.body343 ]
  %vec.phi361 = phi <4 x i64> [ zeroinitializer, %vector.ph347.new ], [ %115, %vector.body343 ]
  %vec.phi362 = phi <4 x i64> [ zeroinitializer, %vector.ph347.new ], [ %116, %vector.body343 ]
  %vec.phi363 = phi <4 x i64> [ zeroinitializer, %vector.ph347.new ], [ %117, %vector.body343 ]
  %niter443 = phi i64 [ %unroll_iter442, %vector.ph347.new ], [ %niter443.nsub.3, %vector.body343 ]
  %54 = getelementptr inbounds i8, i8* %add.ptr.i, i64 %index350
  %55 = bitcast i8* %54 to <4 x i8>*
  %wide.load364 = load <4 x i8>, <4 x i8>* %55, align 1, !tbaa !23
  %56 = getelementptr i8, i8* %54, i64 4
  %57 = bitcast i8* %56 to <4 x i8>*
  %wide.load365 = load <4 x i8>, <4 x i8>* %57, align 1, !tbaa !23
  %58 = getelementptr i8, i8* %54, i64 8
  %59 = bitcast i8* %58 to <4 x i8>*
  %wide.load366 = load <4 x i8>, <4 x i8>* %59, align 1, !tbaa !23
  %60 = getelementptr i8, i8* %54, i64 12
  %61 = bitcast i8* %60 to <4 x i8>*
  %wide.load367 = load <4 x i8>, <4 x i8>* %61, align 1, !tbaa !23
  %62 = zext <4 x i8> %wide.load364 to <4 x i64>
  %63 = zext <4 x i8> %wide.load365 to <4 x i64>
  %64 = zext <4 x i8> %wide.load366 to <4 x i64>
  %65 = zext <4 x i8> %wide.load367 to <4 x i64>
  %66 = add nuw nsw <4 x i64> %vec.phi360, %62
  %67 = add nuw nsw <4 x i64> %vec.phi361, %63
  %68 = add nuw nsw <4 x i64> %vec.phi362, %64
  %69 = add nuw nsw <4 x i64> %vec.phi363, %65
  %index.next351 = or i64 %index350, 16
  %70 = getelementptr inbounds i8, i8* %add.ptr.i, i64 %index.next351
  %71 = bitcast i8* %70 to <4 x i8>*
  %wide.load364.1 = load <4 x i8>, <4 x i8>* %71, align 1, !tbaa !23
  %72 = getelementptr i8, i8* %70, i64 4
  %73 = bitcast i8* %72 to <4 x i8>*
  %wide.load365.1 = load <4 x i8>, <4 x i8>* %73, align 1, !tbaa !23
  %74 = getelementptr i8, i8* %70, i64 8
  %75 = bitcast i8* %74 to <4 x i8>*
  %wide.load366.1 = load <4 x i8>, <4 x i8>* %75, align 1, !tbaa !23
  %76 = getelementptr i8, i8* %70, i64 12
  %77 = bitcast i8* %76 to <4 x i8>*
  %wide.load367.1 = load <4 x i8>, <4 x i8>* %77, align 1, !tbaa !23
  %78 = zext <4 x i8> %wide.load364.1 to <4 x i64>
  %79 = zext <4 x i8> %wide.load365.1 to <4 x i64>
  %80 = zext <4 x i8> %wide.load366.1 to <4 x i64>
  %81 = zext <4 x i8> %wide.load367.1 to <4 x i64>
  %82 = add nuw nsw <4 x i64> %66, %78
  %83 = add nuw nsw <4 x i64> %67, %79
  %84 = add nuw nsw <4 x i64> %68, %80
  %85 = add nuw nsw <4 x i64> %69, %81
  %index.next351.1 = or i64 %index350, 32
  %86 = getelementptr inbounds i8, i8* %add.ptr.i, i64 %index.next351.1
  %87 = bitcast i8* %86 to <4 x i8>*
  %wide.load364.2 = load <4 x i8>, <4 x i8>* %87, align 1, !tbaa !23
  %88 = getelementptr i8, i8* %86, i64 4
  %89 = bitcast i8* %88 to <4 x i8>*
  %wide.load365.2 = load <4 x i8>, <4 x i8>* %89, align 1, !tbaa !23
  %90 = getelementptr i8, i8* %86, i64 8
  %91 = bitcast i8* %90 to <4 x i8>*
  %wide.load366.2 = load <4 x i8>, <4 x i8>* %91, align 1, !tbaa !23
  %92 = getelementptr i8, i8* %86, i64 12
  %93 = bitcast i8* %92 to <4 x i8>*
  %wide.load367.2 = load <4 x i8>, <4 x i8>* %93, align 1, !tbaa !23
  %94 = zext <4 x i8> %wide.load364.2 to <4 x i64>
  %95 = zext <4 x i8> %wide.load365.2 to <4 x i64>
  %96 = zext <4 x i8> %wide.load366.2 to <4 x i64>
  %97 = zext <4 x i8> %wide.load367.2 to <4 x i64>
  %98 = add nuw nsw <4 x i64> %82, %94
  %99 = add nuw nsw <4 x i64> %83, %95
  %100 = add nuw nsw <4 x i64> %84, %96
  %101 = add nuw nsw <4 x i64> %85, %97
  %index.next351.2 = or i64 %index350, 48
  %102 = getelementptr inbounds i8, i8* %add.ptr.i, i64 %index.next351.2
  %103 = bitcast i8* %102 to <4 x i8>*
  %wide.load364.3 = load <4 x i8>, <4 x i8>* %103, align 1, !tbaa !23
  %104 = getelementptr i8, i8* %102, i64 4
  %105 = bitcast i8* %104 to <4 x i8>*
  %wide.load365.3 = load <4 x i8>, <4 x i8>* %105, align 1, !tbaa !23
  %106 = getelementptr i8, i8* %102, i64 8
  %107 = bitcast i8* %106 to <4 x i8>*
  %wide.load366.3 = load <4 x i8>, <4 x i8>* %107, align 1, !tbaa !23
  %108 = getelementptr i8, i8* %102, i64 12
  %109 = bitcast i8* %108 to <4 x i8>*
  %wide.load367.3 = load <4 x i8>, <4 x i8>* %109, align 1, !tbaa !23
  %110 = zext <4 x i8> %wide.load364.3 to <4 x i64>
  %111 = zext <4 x i8> %wide.load365.3 to <4 x i64>
  %112 = zext <4 x i8> %wide.load366.3 to <4 x i64>
  %113 = zext <4 x i8> %wide.load367.3 to <4 x i64>
  %114 = add nuw nsw <4 x i64> %98, %110
  %115 = add nuw nsw <4 x i64> %99, %111
  %116 = add nuw nsw <4 x i64> %100, %112
  %117 = add nuw nsw <4 x i64> %101, %113
  %index.next351.3 = add i64 %index350, 64
  %niter443.nsub.3 = add i64 %niter443, -4
  %niter443.ncmp.3 = icmp eq i64 %niter443.nsub.3, 0
  br i1 %niter443.ncmp.3, label %middle.block344.unr-lcssa, label %vector.body343, !llvm.loop !72

middle.block344.unr-lcssa:                        ; preds = %vector.body343, %vector.ph347
  %.lcssa417.ph = phi <4 x i64> [ undef, %vector.ph347 ], [ %114, %vector.body343 ]
  %.lcssa416.ph = phi <4 x i64> [ undef, %vector.ph347 ], [ %115, %vector.body343 ]
  %.lcssa415.ph = phi <4 x i64> [ undef, %vector.ph347 ], [ %116, %vector.body343 ]
  %.lcssa414.ph = phi <4 x i64> [ undef, %vector.ph347 ], [ %117, %vector.body343 ]
  %index350.unr = phi i64 [ 0, %vector.ph347 ], [ %index.next351.3, %vector.body343 ]
  %vec.phi360.unr = phi <4 x i64> [ zeroinitializer, %vector.ph347 ], [ %114, %vector.body343 ]
  %vec.phi361.unr = phi <4 x i64> [ zeroinitializer, %vector.ph347 ], [ %115, %vector.body343 ]
  %vec.phi362.unr = phi <4 x i64> [ zeroinitializer, %vector.ph347 ], [ %116, %vector.body343 ]
  %vec.phi363.unr = phi <4 x i64> [ zeroinitializer, %vector.ph347 ], [ %117, %vector.body343 ]
  %lcmp.mod437 = icmp eq i64 %xtraiter435, 0
  br i1 %lcmp.mod437, label %middle.block344, label %vector.body343.epil.preheader

vector.body343.epil.preheader:                    ; preds = %middle.block344.unr-lcssa
  br label %vector.body343.epil

vector.body343.epil:                              ; preds = %vector.body343.epil.preheader, %vector.body343.epil
  %index350.epil = phi i64 [ %index.next351.epil, %vector.body343.epil ], [ %index350.unr, %vector.body343.epil.preheader ]
  %vec.phi360.epil = phi <4 x i64> [ %130, %vector.body343.epil ], [ %vec.phi360.unr, %vector.body343.epil.preheader ]
  %vec.phi361.epil = phi <4 x i64> [ %131, %vector.body343.epil ], [ %vec.phi361.unr, %vector.body343.epil.preheader ]
  %vec.phi362.epil = phi <4 x i64> [ %132, %vector.body343.epil ], [ %vec.phi362.unr, %vector.body343.epil.preheader ]
  %vec.phi363.epil = phi <4 x i64> [ %133, %vector.body343.epil ], [ %vec.phi363.unr, %vector.body343.epil.preheader ]
  %epil.iter436 = phi i64 [ %epil.iter436.sub, %vector.body343.epil ], [ %xtraiter435, %vector.body343.epil.preheader ]
  %118 = getelementptr inbounds i8, i8* %add.ptr.i, i64 %index350.epil
  %119 = bitcast i8* %118 to <4 x i8>*
  %wide.load364.epil = load <4 x i8>, <4 x i8>* %119, align 1, !tbaa !23
  %120 = getelementptr i8, i8* %118, i64 4
  %121 = bitcast i8* %120 to <4 x i8>*
  %wide.load365.epil = load <4 x i8>, <4 x i8>* %121, align 1, !tbaa !23
  %122 = getelementptr i8, i8* %118, i64 8
  %123 = bitcast i8* %122 to <4 x i8>*
  %wide.load366.epil = load <4 x i8>, <4 x i8>* %123, align 1, !tbaa !23
  %124 = getelementptr i8, i8* %118, i64 12
  %125 = bitcast i8* %124 to <4 x i8>*
  %wide.load367.epil = load <4 x i8>, <4 x i8>* %125, align 1, !tbaa !23
  %126 = zext <4 x i8> %wide.load364.epil to <4 x i64>
  %127 = zext <4 x i8> %wide.load365.epil to <4 x i64>
  %128 = zext <4 x i8> %wide.load366.epil to <4 x i64>
  %129 = zext <4 x i8> %wide.load367.epil to <4 x i64>
  %130 = add nuw nsw <4 x i64> %vec.phi360.epil, %126
  %131 = add nuw nsw <4 x i64> %vec.phi361.epil, %127
  %132 = add nuw nsw <4 x i64> %vec.phi362.epil, %128
  %133 = add nuw nsw <4 x i64> %vec.phi363.epil, %129
  %index.next351.epil = add i64 %index350.epil, 16
  %epil.iter436.sub = add nsw i64 %epil.iter436, -1
  %epil.iter436.cmp = icmp eq i64 %epil.iter436.sub, 0
  br i1 %epil.iter436.cmp, label %middle.block344, label %vector.body343.epil, !llvm.loop !73

middle.block344:                                  ; preds = %vector.body343.epil, %middle.block344.unr-lcssa
  %.lcssa417 = phi <4 x i64> [ %.lcssa417.ph, %middle.block344.unr-lcssa ], [ %130, %vector.body343.epil ]
  %.lcssa416 = phi <4 x i64> [ %.lcssa416.ph, %middle.block344.unr-lcssa ], [ %131, %vector.body343.epil ]
  %.lcssa415 = phi <4 x i64> [ %.lcssa415.ph, %middle.block344.unr-lcssa ], [ %132, %vector.body343.epil ]
  %.lcssa414 = phi <4 x i64> [ %.lcssa414.ph, %middle.block344.unr-lcssa ], [ %133, %vector.body343.epil ]
  %bin.rdx368 = add nuw <4 x i64> %.lcssa416, %.lcssa417
  %bin.rdx369 = add <4 x i64> %bin.rdx368, %.lcssa415
  %bin.rdx370 = add <4 x i64> %bin.rdx369, %.lcssa414
  %rdx.shuf371 = shufflevector <4 x i64> %bin.rdx370, <4 x i64> undef, <4 x i32> <i32 2, i32 3, i32 undef, i32 undef>
  %bin.rdx372 = add <4 x i64> %rdx.shuf371, %bin.rdx370
  %rdx.shuf373 = shufflevector <4 x i64> %bin.rdx372, <4 x i64> undef, <4 x i32> <i32 1, i32 undef, i32 undef, i32 undef>
  %bin.rdx374 = add <4 x i64> %rdx.shuf373, %bin.rdx372
  %134 = extractelement <4 x i64> %bin.rdx374, i32 0
  %cmp.n353 = icmp eq i64 %sub, %n.vec349
  br i1 %cmp.n353, label %_ZN8sequence14sumFlagsSerialIlEET_PbS1_.exit.i, label %for.body29.i.i.preheader

for.body29.i.i.preheader:                         ; preds = %middle.block344, %for.body29.lr.ph.i.i
  %j25.068.i.i.ph = phi i64 [ %n.vec349, %middle.block344 ], [ 0, %for.body29.lr.ph.i.i ]
  %r.167.i.i.ph = phi i64 [ %134, %middle.block344 ], [ 0, %for.body29.lr.ph.i.i ]
  br label %for.body29.i.i

for.body29.i.i:                                   ; preds = %for.body29.i.i.preheader, %for.body29.i.i
  %j25.068.i.i = phi i64 [ %inc34.i.i, %for.body29.i.i ], [ %j25.068.i.i.ph, %for.body29.i.i.preheader ]
  %r.167.i.i = phi i64 [ %add32.i.i, %for.body29.i.i ], [ %r.167.i.i.ph, %for.body29.i.i.preheader ]
  %arrayidx30.i.i = getelementptr inbounds i8, i8* %add.ptr.i, i64 %j25.068.i.i
  %135 = load i8, i8* %arrayidx30.i.i, align 1, !tbaa !23, !range !70
  %136 = zext i8 %135 to i64
  %add32.i.i = add nuw nsw i64 %r.167.i.i, %136
  %inc34.i.i = add nuw nsw i64 %j25.068.i.i, 1
  %exitcond73.i.i = icmp eq i64 %inc34.i.i, %sub
  br i1 %exitcond73.i.i, label %_ZN8sequence14sumFlagsSerialIlEET_PbS1_.exit.i, label %for.body29.i.i, !llvm.loop !74

_ZN8sequence14sumFlagsSerialIlEET_PbS1_.exit.i:   ; preds = %for.body29.i.i, %vector.ph379, %middle.block344, %if.else.i.i, %if.then.i.i
  %r.2.i.i = phi i64 [ 0, %if.then.i.i ], [ 0, %if.else.i.i ], [ %134, %middle.block344 ], [ %add21.i.i, %vector.ph379 ], [ %add32.i.i, %for.body29.i.i ]
  %mul.i = shl i64 %r.2.i.i, 3
  %call1.i = tail call noalias i8* @malloc(i64 %mul.i) #2
  %137 = bitcast i8* %call1.i to i64*
  br label %if.end.i

if.end.i:                                         ; preds = %_ZN8sequence14sumFlagsSerialIlEET_PbS1_.exit.i, %if.then
  %Out.addr.0.i = phi i64* [ %137, %_ZN8sequence14sumFlagsSerialIlEET_PbS1_.exit.i ], [ %Out, %if.then ]
  %cmp220.i = icmp sgt i64 %e, %s
  br i1 %cmp220.i, label %for.body.i.preheader, label %cleanup

for.body.i.preheader:                             ; preds = %if.end.i
  %138 = xor i64 %s, -1
  %139 = add i64 %138, %e
  %xtraiter = and i64 %sub, 3
  %140 = icmp ult i64 %139, 3
  br i1 %140, label %cleanup.loopexit.unr-lcssa, label %for.body.i.preheader.new

for.body.i.preheader.new:                         ; preds = %for.body.i.preheader
  %unroll_iter = sub i64 %sub, %xtraiter
  br label %for.body.i

for.body.i:                                       ; preds = %for.inc.i.3, %for.body.i.preheader.new
  %k.022.i = phi i64 [ 0, %for.body.i.preheader.new ], [ %k.1.i.3, %for.inc.i.3 ]
  %storemerge21.i = phi i64 [ %s, %for.body.i.preheader.new ], [ %inc7.i.3, %for.inc.i.3 ]
  %niter = phi i64 [ %unroll_iter, %for.body.i.preheader.new ], [ %niter.nsub.3, %for.inc.i.3 ]
  %arrayidx.i = getelementptr inbounds i8, i8* %Fl, i64 %storemerge21.i
  %141 = load i8, i8* %arrayidx.i, align 1, !tbaa !23, !range !70
  %tobool.i = icmp eq i8 %141, 0
  br i1 %tobool.i, label %for.inc.i, label %if.then3.i

if.then3.i:                                       ; preds = %for.body.i
  %inc.i = add nsw i64 %k.022.i, 1
  %arrayidx5.i = getelementptr inbounds i64, i64* %Out.addr.0.i, i64 %k.022.i
  store i64 %storemerge21.i, i64* %arrayidx5.i, align 8, !tbaa !49
  br label %for.inc.i

for.inc.i:                                        ; preds = %if.then3.i, %for.body.i
  %k.1.i = phi i64 [ %inc.i, %if.then3.i ], [ %k.022.i, %for.body.i ]
  %inc7.i = add nsw i64 %storemerge21.i, 1
  %arrayidx.i.1 = getelementptr inbounds i8, i8* %Fl, i64 %inc7.i
  %142 = load i8, i8* %arrayidx.i.1, align 1, !tbaa !23, !range !70
  %tobool.i.1 = icmp eq i8 %142, 0
  br i1 %tobool.i.1, label %for.inc.i.1, label %if.then3.i.1

pfor.detach.lr.ph:                                ; preds = %entry
  %143 = tail call i32 @__cilkrts_get_nworkers()
  %__cilkrts_wc8521 = shl i32 %143, 3
  %mul = shl nsw i64 %add, 3
  %call2 = tail call noalias i8* @malloc(i64 %mul) #2
  %144 = bitcast i8* %call2 to i64*
  %145 = xor i64 %s, -1
  %146 = sub i64 -2049, %s
  %147 = xor i64 %e, -1
  %148 = icmp sgt i64 %div, 0
  %smax519 = select i1 %148, i64 %div, i64 0
  %149 = zext i32 %__cilkrts_wc8521 to i64
  %150 = add nsw i64 %smax519, -1
  %151 = add nsw i64 %150, %149
  %152 = udiv i64 %151, %149
  %153 = icmp ult i64 %152, 2048
  %154 = select i1 %153, i64 %152, i64 2048
  tail call fastcc void @_ZN8sequence4packIllN5utils9identityFIlEEEE4_seqIT_EPS5_PbT0_S9_T1__pfor.detach.ls(i64 0, i64 %smax519, i64 %154, i64 %145, i64 %146, i64 %147, i64 %s, i64 %e, i8* %Fl, i64* %144)
  %call.i = tail call i64 @_ZN8sequence4scanIllN5utils4addFIlEENS_4getAIllEEEET_PS6_T0_S8_T1_T2_S6_bb(i64* %144, i64 0, i64 %add, i64* %144, i64 0, i1 zeroext false, i1 zeroext false) #2
  %cmp23 = icmp eq i64* %Out, null
  br i1 %cmp23, label %if.then24, label %sync.continue67

if.then24:                                        ; preds = %pfor.detach.lr.ph
  %mul25 = shl i64 %call.i, 3
  %call26 = tail call noalias i8* @malloc(i64 %mul25) #2
  %155 = bitcast i8* %call26 to i64*
  br label %sync.continue67

sync.continue67:                                  ; preds = %if.then24, %pfor.detach.lr.ph
  %Out.addr.0 = phi i64* [ %155, %if.then24 ], [ %Out, %pfor.detach.lr.ph ]
  %156 = sub i64 -2, %s
  tail call fastcc void @_ZN8sequence4packIllN5utils9identityFIlEEEE4_seqIT_EPS5_PbT0_S9_T1__pfor.detach47.ls(i64 0, i64 %smax519, i64 %154, i8* %Fl, i64 %s, i64 %e, i64* %144, i64* %Out.addr.0, i64 %145, i64 %146, i64 %147, i64 %156)
  tail call void @free(i8* %call2) #2
  br label %cleanup

cleanup.loopexit.unr-lcssa:                       ; preds = %for.inc.i.3, %for.body.i.preheader
  %k.1.i.lcssa.ph = phi i64 [ undef, %for.body.i.preheader ], [ %k.1.i.3, %for.inc.i.3 ]
  %k.022.i.unr = phi i64 [ 0, %for.body.i.preheader ], [ %k.1.i.3, %for.inc.i.3 ]
  %storemerge21.i.unr = phi i64 [ %s, %for.body.i.preheader ], [ %inc7.i.3, %for.inc.i.3 ]
  %lcmp.mod = icmp eq i64 %xtraiter, 0
  br i1 %lcmp.mod, label %cleanup, label %for.body.i.epil.preheader

for.body.i.epil.preheader:                        ; preds = %cleanup.loopexit.unr-lcssa
  br label %for.body.i.epil

for.body.i.epil:                                  ; preds = %for.body.i.epil.preheader, %for.inc.i.epil
  %k.022.i.epil = phi i64 [ %k.1.i.epil, %for.inc.i.epil ], [ %k.022.i.unr, %for.body.i.epil.preheader ]
  %storemerge21.i.epil = phi i64 [ %inc7.i.epil, %for.inc.i.epil ], [ %storemerge21.i.unr, %for.body.i.epil.preheader ]
  %epil.iter = phi i64 [ %epil.iter.sub, %for.inc.i.epil ], [ %xtraiter, %for.body.i.epil.preheader ]
  %arrayidx.i.epil = getelementptr inbounds i8, i8* %Fl, i64 %storemerge21.i.epil
  %157 = load i8, i8* %arrayidx.i.epil, align 1, !tbaa !23, !range !70
  %tobool.i.epil = icmp eq i8 %157, 0
  br i1 %tobool.i.epil, label %for.inc.i.epil, label %if.then3.i.epil

if.then3.i.epil:                                  ; preds = %for.body.i.epil
  %inc.i.epil = add nsw i64 %k.022.i.epil, 1
  %arrayidx5.i.epil = getelementptr inbounds i64, i64* %Out.addr.0.i, i64 %k.022.i.epil
  store i64 %storemerge21.i.epil, i64* %arrayidx5.i.epil, align 8, !tbaa !49
  br label %for.inc.i.epil

for.inc.i.epil:                                   ; preds = %if.then3.i.epil, %for.body.i.epil
  %k.1.i.epil = phi i64 [ %inc.i.epil, %if.then3.i.epil ], [ %k.022.i.epil, %for.body.i.epil ]
  %inc7.i.epil = add nsw i64 %storemerge21.i.epil, 1
  %epil.iter.sub = add nsw i64 %epil.iter, -1
  %epil.iter.cmp = icmp eq i64 %epil.iter.sub, 0
  br i1 %epil.iter.cmp, label %cleanup, label %for.body.i.epil, !llvm.loop !75

cleanup:                                          ; preds = %for.inc.i.epil, %cleanup.loopexit.unr-lcssa, %if.end.i, %sync.continue67
  %retval.sroa.0.0 = phi i64* [ %Out.addr.0, %sync.continue67 ], [ %Out.addr.0.i, %if.end.i ], [ %Out.addr.0.i, %cleanup.loopexit.unr-lcssa ], [ %Out.addr.0.i, %for.inc.i.epil ]
  %retval.sroa.3.0 = phi i64 [ %call.i, %sync.continue67 ], [ 0, %if.end.i ], [ %k.1.i.lcssa.ph, %cleanup.loopexit.unr-lcssa ], [ %k.1.i.epil, %for.inc.i.epil ]
  %.fca.0.insert = insertvalue { i64*, i64 } undef, i64* %retval.sroa.0.0, 0
  %.fca.1.insert = insertvalue { i64*, i64 } %.fca.0.insert, i64 %retval.sroa.3.0, 1
  ret { i64*, i64 } %.fca.1.insert

if.then3.i.1:                                     ; preds = %for.inc.i
  %inc.i.1 = add nsw i64 %k.1.i, 1
  %arrayidx5.i.1 = getelementptr inbounds i64, i64* %Out.addr.0.i, i64 %k.1.i
  store i64 %inc7.i, i64* %arrayidx5.i.1, align 8, !tbaa !49
  br label %for.inc.i.1

for.inc.i.1:                                      ; preds = %if.then3.i.1, %for.inc.i
  %k.1.i.1 = phi i64 [ %inc.i.1, %if.then3.i.1 ], [ %k.1.i, %for.inc.i ]
  %inc7.i.1 = add nsw i64 %storemerge21.i, 2
  %arrayidx.i.2 = getelementptr inbounds i8, i8* %Fl, i64 %inc7.i.1
  %158 = load i8, i8* %arrayidx.i.2, align 1, !tbaa !23, !range !70
  %tobool.i.2 = icmp eq i8 %158, 0
  br i1 %tobool.i.2, label %for.inc.i.2, label %if.then3.i.2

if.then3.i.2:                                     ; preds = %for.inc.i.1
  %inc.i.2 = add nsw i64 %k.1.i.1, 1
  %arrayidx5.i.2 = getelementptr inbounds i64, i64* %Out.addr.0.i, i64 %k.1.i.1
  store i64 %inc7.i.1, i64* %arrayidx5.i.2, align 8, !tbaa !49
  br label %for.inc.i.2

for.inc.i.2:                                      ; preds = %if.then3.i.2, %for.inc.i.1
  %k.1.i.2 = phi i64 [ %inc.i.2, %if.then3.i.2 ], [ %k.1.i.1, %for.inc.i.1 ]
  %inc7.i.2 = add nsw i64 %storemerge21.i, 3
  %arrayidx.i.3 = getelementptr inbounds i8, i8* %Fl, i64 %inc7.i.2
  %159 = load i8, i8* %arrayidx.i.3, align 1, !tbaa !23, !range !70
  %tobool.i.3 = icmp eq i8 %159, 0
  br i1 %tobool.i.3, label %for.inc.i.3, label %if.then3.i.3

if.then3.i.3:                                     ; preds = %for.inc.i.2
  %inc.i.3 = add nsw i64 %k.1.i.2, 1
  %arrayidx5.i.3 = getelementptr inbounds i64, i64* %Out.addr.0.i, i64 %k.1.i.2
  store i64 %inc7.i.2, i64* %arrayidx5.i.3, align 8, !tbaa !49
  br label %for.inc.i.3

for.inc.i.3:                                      ; preds = %if.then3.i.3, %for.inc.i.2
  %k.1.i.3 = phi i64 [ %inc.i.3, %if.then3.i.3 ], [ %k.1.i.2, %for.inc.i.2 ]
  %inc7.i.3 = add nsw i64 %storemerge21.i, 4
  %niter.nsub.3 = add i64 %niter, -4
  %niter.ncmp.3 = icmp eq i64 %niter.nsub.3, 0
  br i1 %niter.ncmp.3, label %cleanup.loopexit.unr-lcssa, label %for.body.i
}

; Function Attrs: nounwind uwtable
define linkonce_odr i64 @_ZN8sequence4scanIllN5utils4addFIlEENS_4getAIllEEEET_PS6_T0_S8_T1_T2_S6_bb(i64* %Out, i64 %s, i64 %e, i64* %g.coerce, i64 %zero, i1 zeroext %inclusive, i1 zeroext %back) local_unnamed_addr #7 comdat {
entry:
  %sub = sub i64 %e, %s
  %sub2 = add nsw i64 %sub, -1
  %div = sdiv i64 %sub2, 1024
  %add = add nsw i64 %div, 1
  %cmp = icmp slt i64 %sub, 2049
  br i1 %cmp, label %if.then, label %pfor.detach.lr.ph

if.then:                                          ; preds = %entry
  %cmp98.i = icmp sgt i64 %e, %s
  br i1 %inclusive, label %if.then.i, label %if.else16.i

if.then.i:                                        ; preds = %if.then
  br i1 %back, label %if.then3.i, label %if.else.i

if.then3.i:                                       ; preds = %if.then.i
  br i1 %cmp98.i, label %for.body.i.preheader, label %cleanup

for.body.i.preheader:                             ; preds = %if.then3.i
  %0 = add i64 %e, -1
  %1 = sub i64 %0, %s
  %xtraiter = and i64 %sub, 7
  %lcmp.mod = icmp eq i64 %xtraiter, 0
  br i1 %lcmp.mod, label %for.body.i.prol.loopexit, label %for.body.i.prol.preheader

for.body.i.prol.preheader:                        ; preds = %for.body.i.preheader
  br label %for.body.i.prol

for.body.i.prol:                                  ; preds = %for.body.i.prol.preheader, %for.body.i.prol
  %i.0100.in.i.prol = phi i64 [ %i.0100.i.prol, %for.body.i.prol ], [ %e, %for.body.i.prol.preheader ]
  %r.099.i.prol = phi i64 [ %add.i79.i.prol, %for.body.i.prol ], [ %zero, %for.body.i.prol.preheader ]
  %prol.iter = phi i64 [ %prol.iter.sub, %for.body.i.prol ], [ %xtraiter, %for.body.i.prol.preheader ]
  %i.0100.i.prol = add nsw i64 %i.0100.in.i.prol, -1
  %arrayidx.i.i.prol = getelementptr inbounds i64, i64* %g.coerce, i64 %i.0100.i.prol
  %2 = load i64, i64* %arrayidx.i.i.prol, align 8, !tbaa !49
  %add.i79.i.prol = add nsw i64 %2, %r.099.i.prol
  %arrayidx.i.prol = getelementptr inbounds i64, i64* %Out, i64 %i.0100.i.prol
  store i64 %add.i79.i.prol, i64* %arrayidx.i.prol, align 8, !tbaa !49
  %prol.iter.sub = add nsw i64 %prol.iter, -1
  %prol.iter.cmp = icmp eq i64 %prol.iter.sub, 0
  br i1 %prol.iter.cmp, label %for.body.i.prol.loopexit.loopexit, label %for.body.i.prol, !llvm.loop !76

for.body.i.prol.loopexit.loopexit:                ; preds = %for.body.i.prol
  %3 = sub i64 %e, %xtraiter
  br label %for.body.i.prol.loopexit

for.body.i.prol.loopexit:                         ; preds = %for.body.i.prol.loopexit.loopexit, %for.body.i.preheader
  %i.0100.in.i.unr = phi i64 [ %e, %for.body.i.preheader ], [ %3, %for.body.i.prol.loopexit.loopexit ]
  %r.099.i.unr = phi i64 [ %zero, %for.body.i.preheader ], [ %add.i79.i.prol, %for.body.i.prol.loopexit.loopexit ]
  %add.i79.i.lcssa.unr = phi i64 [ undef, %for.body.i.preheader ], [ %add.i79.i.prol, %for.body.i.prol.loopexit.loopexit ]
  %4 = icmp ult i64 %1, 7
  br i1 %4, label %cleanup, label %for.body.i.preheader330

for.body.i.preheader330:                          ; preds = %for.body.i.prol.loopexit
  br label %for.body.i

for.body.i:                                       ; preds = %for.body.i.preheader330, %for.body.i
  %i.0100.in.i = phi i64 [ %i.0100.i.7, %for.body.i ], [ %i.0100.in.i.unr, %for.body.i.preheader330 ]
  %r.099.i = phi i64 [ %add.i79.i.7, %for.body.i ], [ %r.099.i.unr, %for.body.i.preheader330 ]
  %i.0100.i = add nsw i64 %i.0100.in.i, -1
  %arrayidx.i.i = getelementptr inbounds i64, i64* %g.coerce, i64 %i.0100.i
  %5 = load i64, i64* %arrayidx.i.i, align 8, !tbaa !49
  %add.i79.i = add nsw i64 %5, %r.099.i
  %arrayidx.i = getelementptr inbounds i64, i64* %Out, i64 %i.0100.i
  store i64 %add.i79.i, i64* %arrayidx.i, align 8, !tbaa !49
  %i.0100.i.1 = add nsw i64 %i.0100.in.i, -2
  %arrayidx.i.i.1 = getelementptr inbounds i64, i64* %g.coerce, i64 %i.0100.i.1
  %6 = load i64, i64* %arrayidx.i.i.1, align 8, !tbaa !49
  %add.i79.i.1 = add nsw i64 %6, %add.i79.i
  %arrayidx.i.1 = getelementptr inbounds i64, i64* %Out, i64 %i.0100.i.1
  store i64 %add.i79.i.1, i64* %arrayidx.i.1, align 8, !tbaa !49
  %i.0100.i.2 = add nsw i64 %i.0100.in.i, -3
  %arrayidx.i.i.2 = getelementptr inbounds i64, i64* %g.coerce, i64 %i.0100.i.2
  %7 = load i64, i64* %arrayidx.i.i.2, align 8, !tbaa !49
  %add.i79.i.2 = add nsw i64 %7, %add.i79.i.1
  %arrayidx.i.2 = getelementptr inbounds i64, i64* %Out, i64 %i.0100.i.2
  store i64 %add.i79.i.2, i64* %arrayidx.i.2, align 8, !tbaa !49
  %i.0100.i.3 = add nsw i64 %i.0100.in.i, -4
  %arrayidx.i.i.3 = getelementptr inbounds i64, i64* %g.coerce, i64 %i.0100.i.3
  %8 = load i64, i64* %arrayidx.i.i.3, align 8, !tbaa !49
  %add.i79.i.3 = add nsw i64 %8, %add.i79.i.2
  %arrayidx.i.3 = getelementptr inbounds i64, i64* %Out, i64 %i.0100.i.3
  store i64 %add.i79.i.3, i64* %arrayidx.i.3, align 8, !tbaa !49
  %i.0100.i.4 = add nsw i64 %i.0100.in.i, -5
  %arrayidx.i.i.4 = getelementptr inbounds i64, i64* %g.coerce, i64 %i.0100.i.4
  %9 = load i64, i64* %arrayidx.i.i.4, align 8, !tbaa !49
  %add.i79.i.4 = add nsw i64 %9, %add.i79.i.3
  %arrayidx.i.4 = getelementptr inbounds i64, i64* %Out, i64 %i.0100.i.4
  store i64 %add.i79.i.4, i64* %arrayidx.i.4, align 8, !tbaa !49
  %i.0100.i.5 = add nsw i64 %i.0100.in.i, -6
  %arrayidx.i.i.5 = getelementptr inbounds i64, i64* %g.coerce, i64 %i.0100.i.5
  %10 = load i64, i64* %arrayidx.i.i.5, align 8, !tbaa !49
  %add.i79.i.5 = add nsw i64 %10, %add.i79.i.4
  %arrayidx.i.5 = getelementptr inbounds i64, i64* %Out, i64 %i.0100.i.5
  store i64 %add.i79.i.5, i64* %arrayidx.i.5, align 8, !tbaa !49
  %i.0100.i.6 = add nsw i64 %i.0100.in.i, -7
  %arrayidx.i.i.6 = getelementptr inbounds i64, i64* %g.coerce, i64 %i.0100.i.6
  %11 = load i64, i64* %arrayidx.i.i.6, align 8, !tbaa !49
  %add.i79.i.6 = add nsw i64 %11, %add.i79.i.5
  %arrayidx.i.6 = getelementptr inbounds i64, i64* %Out, i64 %i.0100.i.6
  store i64 %add.i79.i.6, i64* %arrayidx.i.6, align 8, !tbaa !49
  %i.0100.i.7 = add nsw i64 %i.0100.in.i, -8
  %arrayidx.i.i.7 = getelementptr inbounds i64, i64* %g.coerce, i64 %i.0100.i.7
  %12 = load i64, i64* %arrayidx.i.i.7, align 8, !tbaa !49
  %add.i79.i.7 = add nsw i64 %12, %add.i79.i.6
  %arrayidx.i.7 = getelementptr inbounds i64, i64* %Out, i64 %i.0100.i.7
  store i64 %add.i79.i.7, i64* %arrayidx.i.7, align 8, !tbaa !49
  %cmp.i.7 = icmp sgt i64 %i.0100.i.7, %s
  br i1 %cmp.i.7, label %for.body.i, label %cleanup

if.else.i:                                        ; preds = %if.then.i
  br i1 %cmp98.i, label %for.body9.i.preheader, label %cleanup

for.body9.i.preheader:                            ; preds = %if.else.i
  %13 = add i64 %e, -1
  %14 = sub i64 %13, %s
  %xtraiter251 = and i64 %sub, 7
  %lcmp.mod252 = icmp eq i64 %xtraiter251, 0
  br i1 %lcmp.mod252, label %for.body9.i.prol.loopexit, label %for.body9.i.prol.preheader

for.body9.i.prol.preheader:                       ; preds = %for.body9.i.preheader
  br label %for.body9.i.prol

for.body9.i.prol:                                 ; preds = %for.body9.i.prol.preheader, %for.body9.i.prol
  %i5.0103.i.prol = phi i64 [ %inc.i.prol, %for.body9.i.prol ], [ %s, %for.body9.i.prol.preheader ]
  %r.1102.i.prol = phi i64 [ %add.i76.i.prol, %for.body9.i.prol ], [ %zero, %for.body9.i.prol.preheader ]
  %prol.iter253 = phi i64 [ %prol.iter253.sub, %for.body9.i.prol ], [ %xtraiter251, %for.body9.i.prol.preheader ]
  %arrayidx.i78.i.prol = getelementptr inbounds i64, i64* %g.coerce, i64 %i5.0103.i.prol
  %15 = load i64, i64* %arrayidx.i78.i.prol, align 8, !tbaa !49
  %add.i76.i.prol = add nsw i64 %15, %r.1102.i.prol
  %arrayidx13.i.prol = getelementptr inbounds i64, i64* %Out, i64 %i5.0103.i.prol
  store i64 %add.i76.i.prol, i64* %arrayidx13.i.prol, align 8, !tbaa !49
  %inc.i.prol = add nsw i64 %i5.0103.i.prol, 1
  %prol.iter253.sub = add nsw i64 %prol.iter253, -1
  %prol.iter253.cmp = icmp eq i64 %prol.iter253.sub, 0
  br i1 %prol.iter253.cmp, label %for.body9.i.prol.loopexit.loopexit, label %for.body9.i.prol, !llvm.loop !77

for.body9.i.prol.loopexit.loopexit:               ; preds = %for.body9.i.prol
  %16 = add i64 %xtraiter251, %s
  br label %for.body9.i.prol.loopexit

for.body9.i.prol.loopexit:                        ; preds = %for.body9.i.prol.loopexit.loopexit, %for.body9.i.preheader
  %add.i76.i.lcssa.unr = phi i64 [ undef, %for.body9.i.preheader ], [ %add.i76.i.prol, %for.body9.i.prol.loopexit.loopexit ]
  %i5.0103.i.unr = phi i64 [ %s, %for.body9.i.preheader ], [ %16, %for.body9.i.prol.loopexit.loopexit ]
  %r.1102.i.unr = phi i64 [ %zero, %for.body9.i.preheader ], [ %add.i76.i.prol, %for.body9.i.prol.loopexit.loopexit ]
  %17 = icmp ult i64 %14, 7
  br i1 %17, label %cleanup, label %for.body9.i.preheader331

for.body9.i.preheader331:                         ; preds = %for.body9.i.prol.loopexit
  br label %for.body9.i

for.body9.i:                                      ; preds = %for.body9.i.preheader331, %for.body9.i
  %i5.0103.i = phi i64 [ %inc.i.7, %for.body9.i ], [ %i5.0103.i.unr, %for.body9.i.preheader331 ]
  %r.1102.i = phi i64 [ %add.i76.i.7, %for.body9.i ], [ %r.1102.i.unr, %for.body9.i.preheader331 ]
  %arrayidx.i78.i = getelementptr inbounds i64, i64* %g.coerce, i64 %i5.0103.i
  %18 = load i64, i64* %arrayidx.i78.i, align 8, !tbaa !49
  %add.i76.i = add nsw i64 %18, %r.1102.i
  %arrayidx13.i = getelementptr inbounds i64, i64* %Out, i64 %i5.0103.i
  store i64 %add.i76.i, i64* %arrayidx13.i, align 8, !tbaa !49
  %inc.i = add nsw i64 %i5.0103.i, 1
  %arrayidx.i78.i.1 = getelementptr inbounds i64, i64* %g.coerce, i64 %inc.i
  %19 = load i64, i64* %arrayidx.i78.i.1, align 8, !tbaa !49
  %add.i76.i.1 = add nsw i64 %19, %add.i76.i
  %arrayidx13.i.1 = getelementptr inbounds i64, i64* %Out, i64 %inc.i
  store i64 %add.i76.i.1, i64* %arrayidx13.i.1, align 8, !tbaa !49
  %inc.i.1 = add nsw i64 %i5.0103.i, 2
  %arrayidx.i78.i.2 = getelementptr inbounds i64, i64* %g.coerce, i64 %inc.i.1
  %20 = load i64, i64* %arrayidx.i78.i.2, align 8, !tbaa !49
  %add.i76.i.2 = add nsw i64 %20, %add.i76.i.1
  %arrayidx13.i.2 = getelementptr inbounds i64, i64* %Out, i64 %inc.i.1
  store i64 %add.i76.i.2, i64* %arrayidx13.i.2, align 8, !tbaa !49
  %inc.i.2 = add nsw i64 %i5.0103.i, 3
  %arrayidx.i78.i.3 = getelementptr inbounds i64, i64* %g.coerce, i64 %inc.i.2
  %21 = load i64, i64* %arrayidx.i78.i.3, align 8, !tbaa !49
  %add.i76.i.3 = add nsw i64 %21, %add.i76.i.2
  %arrayidx13.i.3 = getelementptr inbounds i64, i64* %Out, i64 %inc.i.2
  store i64 %add.i76.i.3, i64* %arrayidx13.i.3, align 8, !tbaa !49
  %inc.i.3 = add nsw i64 %i5.0103.i, 4
  %arrayidx.i78.i.4 = getelementptr inbounds i64, i64* %g.coerce, i64 %inc.i.3
  %22 = load i64, i64* %arrayidx.i78.i.4, align 8, !tbaa !49
  %add.i76.i.4 = add nsw i64 %22, %add.i76.i.3
  %arrayidx13.i.4 = getelementptr inbounds i64, i64* %Out, i64 %inc.i.3
  store i64 %add.i76.i.4, i64* %arrayidx13.i.4, align 8, !tbaa !49
  %inc.i.4 = add nsw i64 %i5.0103.i, 5
  %arrayidx.i78.i.5 = getelementptr inbounds i64, i64* %g.coerce, i64 %inc.i.4
  %23 = load i64, i64* %arrayidx.i78.i.5, align 8, !tbaa !49
  %add.i76.i.5 = add nsw i64 %23, %add.i76.i.4
  %arrayidx13.i.5 = getelementptr inbounds i64, i64* %Out, i64 %inc.i.4
  store i64 %add.i76.i.5, i64* %arrayidx13.i.5, align 8, !tbaa !49
  %inc.i.5 = add nsw i64 %i5.0103.i, 6
  %arrayidx.i78.i.6 = getelementptr inbounds i64, i64* %g.coerce, i64 %inc.i.5
  %24 = load i64, i64* %arrayidx.i78.i.6, align 8, !tbaa !49
  %add.i76.i.6 = add nsw i64 %24, %add.i76.i.5
  %arrayidx13.i.6 = getelementptr inbounds i64, i64* %Out, i64 %inc.i.5
  store i64 %add.i76.i.6, i64* %arrayidx13.i.6, align 8, !tbaa !49
  %inc.i.6 = add nsw i64 %i5.0103.i, 7
  %arrayidx.i78.i.7 = getelementptr inbounds i64, i64* %g.coerce, i64 %inc.i.6
  %25 = load i64, i64* %arrayidx.i78.i.7, align 8, !tbaa !49
  %add.i76.i.7 = add nsw i64 %25, %add.i76.i.6
  %arrayidx13.i.7 = getelementptr inbounds i64, i64* %Out, i64 %inc.i.6
  store i64 %add.i76.i.7, i64* %arrayidx13.i.7, align 8, !tbaa !49
  %inc.i.7 = add nsw i64 %i5.0103.i, 8
  %exitcond.i.7 = icmp eq i64 %inc.i.7, %e
  br i1 %exitcond.i.7, label %cleanup, label %for.body9.i

if.else16.i:                                      ; preds = %if.then
  br i1 %back, label %if.then18.i, label %if.else31.i

if.then18.i:                                      ; preds = %if.else16.i
  br i1 %cmp98.i, label %for.body24.i.preheader, label %cleanup

for.body24.i.preheader:                           ; preds = %if.then18.i
  %26 = add i64 %e, -1
  %27 = sub i64 %26, %s
  %xtraiter254 = and i64 %sub, 7
  %lcmp.mod255 = icmp eq i64 %xtraiter254, 0
  br i1 %lcmp.mod255, label %for.body24.i.prol.loopexit, label %for.body24.i.prol.preheader

for.body24.i.prol.preheader:                      ; preds = %for.body24.i.preheader
  br label %for.body24.i.prol

for.body24.i.prol:                                ; preds = %for.body24.i.prol.preheader, %for.body24.i.prol
  %i19.0108.in.i.prol = phi i64 [ %i19.0108.i.prol, %for.body24.i.prol ], [ %e, %for.body24.i.prol.preheader ]
  %r.2107.i.prol = phi i64 [ %add.i73.i.prol, %for.body24.i.prol ], [ %zero, %for.body24.i.prol.preheader ]
  %prol.iter256 = phi i64 [ %prol.iter256.sub, %for.body24.i.prol ], [ %xtraiter254, %for.body24.i.prol.preheader ]
  %i19.0108.i.prol = add nsw i64 %i19.0108.in.i.prol, -1
  %arrayidx.i75.i.prol = getelementptr inbounds i64, i64* %g.coerce, i64 %i19.0108.i.prol
  %28 = load i64, i64* %arrayidx.i75.i.prol, align 8, !tbaa !49
  %arrayidx26.i.prol = getelementptr inbounds i64, i64* %Out, i64 %i19.0108.i.prol
  store i64 %r.2107.i.prol, i64* %arrayidx26.i.prol, align 8, !tbaa !49
  %add.i73.i.prol = add nsw i64 %28, %r.2107.i.prol
  %prol.iter256.sub = add nsw i64 %prol.iter256, -1
  %prol.iter256.cmp = icmp eq i64 %prol.iter256.sub, 0
  br i1 %prol.iter256.cmp, label %for.body24.i.prol.loopexit.loopexit, label %for.body24.i.prol, !llvm.loop !78

for.body24.i.prol.loopexit.loopexit:              ; preds = %for.body24.i.prol
  %29 = sub i64 %e, %xtraiter254
  br label %for.body24.i.prol.loopexit

for.body24.i.prol.loopexit:                       ; preds = %for.body24.i.prol.loopexit.loopexit, %for.body24.i.preheader
  %i19.0108.in.i.unr = phi i64 [ %e, %for.body24.i.preheader ], [ %29, %for.body24.i.prol.loopexit.loopexit ]
  %r.2107.i.unr = phi i64 [ %zero, %for.body24.i.preheader ], [ %add.i73.i.prol, %for.body24.i.prol.loopexit.loopexit ]
  %add.i73.i.lcssa.unr = phi i64 [ undef, %for.body24.i.preheader ], [ %add.i73.i.prol, %for.body24.i.prol.loopexit.loopexit ]
  %30 = icmp ult i64 %27, 7
  br i1 %30, label %cleanup, label %for.body24.i.preheader333

for.body24.i.preheader333:                        ; preds = %for.body24.i.prol.loopexit
  br label %for.body24.i

for.body24.i:                                     ; preds = %for.body24.i.preheader333, %for.body24.i
  %i19.0108.in.i = phi i64 [ %i19.0108.i.7, %for.body24.i ], [ %i19.0108.in.i.unr, %for.body24.i.preheader333 ]
  %r.2107.i = phi i64 [ %add.i73.i.7, %for.body24.i ], [ %r.2107.i.unr, %for.body24.i.preheader333 ]
  %i19.0108.i = add nsw i64 %i19.0108.in.i, -1
  %arrayidx.i75.i = getelementptr inbounds i64, i64* %g.coerce, i64 %i19.0108.i
  %31 = load i64, i64* %arrayidx.i75.i, align 8, !tbaa !49
  %arrayidx26.i = getelementptr inbounds i64, i64* %Out, i64 %i19.0108.i
  store i64 %r.2107.i, i64* %arrayidx26.i, align 8, !tbaa !49
  %add.i73.i = add nsw i64 %31, %r.2107.i
  %i19.0108.i.1 = add nsw i64 %i19.0108.in.i, -2
  %arrayidx.i75.i.1 = getelementptr inbounds i64, i64* %g.coerce, i64 %i19.0108.i.1
  %32 = load i64, i64* %arrayidx.i75.i.1, align 8, !tbaa !49
  %arrayidx26.i.1 = getelementptr inbounds i64, i64* %Out, i64 %i19.0108.i.1
  store i64 %add.i73.i, i64* %arrayidx26.i.1, align 8, !tbaa !49
  %add.i73.i.1 = add nsw i64 %32, %add.i73.i
  %i19.0108.i.2 = add nsw i64 %i19.0108.in.i, -3
  %arrayidx.i75.i.2 = getelementptr inbounds i64, i64* %g.coerce, i64 %i19.0108.i.2
  %33 = load i64, i64* %arrayidx.i75.i.2, align 8, !tbaa !49
  %arrayidx26.i.2 = getelementptr inbounds i64, i64* %Out, i64 %i19.0108.i.2
  store i64 %add.i73.i.1, i64* %arrayidx26.i.2, align 8, !tbaa !49
  %add.i73.i.2 = add nsw i64 %33, %add.i73.i.1
  %i19.0108.i.3 = add nsw i64 %i19.0108.in.i, -4
  %arrayidx.i75.i.3 = getelementptr inbounds i64, i64* %g.coerce, i64 %i19.0108.i.3
  %34 = load i64, i64* %arrayidx.i75.i.3, align 8, !tbaa !49
  %arrayidx26.i.3 = getelementptr inbounds i64, i64* %Out, i64 %i19.0108.i.3
  store i64 %add.i73.i.2, i64* %arrayidx26.i.3, align 8, !tbaa !49
  %add.i73.i.3 = add nsw i64 %34, %add.i73.i.2
  %i19.0108.i.4 = add nsw i64 %i19.0108.in.i, -5
  %arrayidx.i75.i.4 = getelementptr inbounds i64, i64* %g.coerce, i64 %i19.0108.i.4
  %35 = load i64, i64* %arrayidx.i75.i.4, align 8, !tbaa !49
  %arrayidx26.i.4 = getelementptr inbounds i64, i64* %Out, i64 %i19.0108.i.4
  store i64 %add.i73.i.3, i64* %arrayidx26.i.4, align 8, !tbaa !49
  %add.i73.i.4 = add nsw i64 %35, %add.i73.i.3
  %i19.0108.i.5 = add nsw i64 %i19.0108.in.i, -6
  %arrayidx.i75.i.5 = getelementptr inbounds i64, i64* %g.coerce, i64 %i19.0108.i.5
  %36 = load i64, i64* %arrayidx.i75.i.5, align 8, !tbaa !49
  %arrayidx26.i.5 = getelementptr inbounds i64, i64* %Out, i64 %i19.0108.i.5
  store i64 %add.i73.i.4, i64* %arrayidx26.i.5, align 8, !tbaa !49
  %add.i73.i.5 = add nsw i64 %36, %add.i73.i.4
  %i19.0108.i.6 = add nsw i64 %i19.0108.in.i, -7
  %arrayidx.i75.i.6 = getelementptr inbounds i64, i64* %g.coerce, i64 %i19.0108.i.6
  %37 = load i64, i64* %arrayidx.i75.i.6, align 8, !tbaa !49
  %arrayidx26.i.6 = getelementptr inbounds i64, i64* %Out, i64 %i19.0108.i.6
  store i64 %add.i73.i.5, i64* %arrayidx26.i.6, align 8, !tbaa !49
  %add.i73.i.6 = add nsw i64 %37, %add.i73.i.5
  %i19.0108.i.7 = add nsw i64 %i19.0108.in.i, -8
  %arrayidx.i75.i.7 = getelementptr inbounds i64, i64* %g.coerce, i64 %i19.0108.i.7
  %38 = load i64, i64* %arrayidx.i75.i.7, align 8, !tbaa !49
  %arrayidx26.i.7 = getelementptr inbounds i64, i64* %Out, i64 %i19.0108.i.7
  store i64 %add.i73.i.6, i64* %arrayidx26.i.7, align 8, !tbaa !49
  %add.i73.i.7 = add nsw i64 %38, %add.i73.i.6
  %cmp22.i.7 = icmp sgt i64 %i19.0108.i.7, %s
  br i1 %cmp22.i.7, label %for.body24.i, label %cleanup

if.else31.i:                                      ; preds = %if.else16.i
  br i1 %cmp98.i, label %for.body36.i.preheader, label %cleanup

for.body36.i.preheader:                           ; preds = %if.else31.i
  %39 = add i64 %e, -1
  %40 = sub i64 %39, %s
  %xtraiter257 = and i64 %sub, 7
  %lcmp.mod258 = icmp eq i64 %xtraiter257, 0
  br i1 %lcmp.mod258, label %for.body36.i.prol.loopexit, label %for.body36.i.prol.preheader

for.body36.i.prol.preheader:                      ; preds = %for.body36.i.preheader
  br label %for.body36.i.prol

for.body36.i.prol:                                ; preds = %for.body36.i.prol.preheader, %for.body36.i.prol
  %i32.0112.i.prol = phi i64 [ %inc42.i.prol, %for.body36.i.prol ], [ %s, %for.body36.i.prol.preheader ]
  %r.3111.i.prol = phi i64 [ %add.i.i.prol, %for.body36.i.prol ], [ %zero, %for.body36.i.prol.preheader ]
  %prol.iter259 = phi i64 [ %prol.iter259.sub, %for.body36.i.prol ], [ %xtraiter257, %for.body36.i.prol.preheader ]
  %arrayidx.i72.i.prol = getelementptr inbounds i64, i64* %g.coerce, i64 %i32.0112.i.prol
  %41 = load i64, i64* %arrayidx.i72.i.prol, align 8, !tbaa !49
  %arrayidx39.i.prol = getelementptr inbounds i64, i64* %Out, i64 %i32.0112.i.prol
  store i64 %r.3111.i.prol, i64* %arrayidx39.i.prol, align 8, !tbaa !49
  %add.i.i.prol = add nsw i64 %41, %r.3111.i.prol
  %inc42.i.prol = add nsw i64 %i32.0112.i.prol, 1
  %prol.iter259.sub = add nsw i64 %prol.iter259, -1
  %prol.iter259.cmp = icmp eq i64 %prol.iter259.sub, 0
  br i1 %prol.iter259.cmp, label %for.body36.i.prol.loopexit.loopexit, label %for.body36.i.prol, !llvm.loop !79

for.body36.i.prol.loopexit.loopexit:              ; preds = %for.body36.i.prol
  %42 = add i64 %xtraiter257, %s
  br label %for.body36.i.prol.loopexit

for.body36.i.prol.loopexit:                       ; preds = %for.body36.i.prol.loopexit.loopexit, %for.body36.i.preheader
  %add.i.i.lcssa.unr = phi i64 [ undef, %for.body36.i.preheader ], [ %add.i.i.prol, %for.body36.i.prol.loopexit.loopexit ]
  %i32.0112.i.unr = phi i64 [ %s, %for.body36.i.preheader ], [ %42, %for.body36.i.prol.loopexit.loopexit ]
  %r.3111.i.unr = phi i64 [ %zero, %for.body36.i.preheader ], [ %add.i.i.prol, %for.body36.i.prol.loopexit.loopexit ]
  %43 = icmp ult i64 %40, 7
  br i1 %43, label %cleanup, label %for.body36.i.preheader335

for.body36.i.preheader335:                        ; preds = %for.body36.i.prol.loopexit
  br label %for.body36.i

for.body36.i:                                     ; preds = %for.body36.i.preheader335, %for.body36.i
  %i32.0112.i = phi i64 [ %inc42.i.7, %for.body36.i ], [ %i32.0112.i.unr, %for.body36.i.preheader335 ]
  %r.3111.i = phi i64 [ %add.i.i.7, %for.body36.i ], [ %r.3111.i.unr, %for.body36.i.preheader335 ]
  %arrayidx.i72.i = getelementptr inbounds i64, i64* %g.coerce, i64 %i32.0112.i
  %44 = load i64, i64* %arrayidx.i72.i, align 8, !tbaa !49
  %arrayidx39.i = getelementptr inbounds i64, i64* %Out, i64 %i32.0112.i
  store i64 %r.3111.i, i64* %arrayidx39.i, align 8, !tbaa !49
  %add.i.i = add nsw i64 %44, %r.3111.i
  %inc42.i = add nsw i64 %i32.0112.i, 1
  %arrayidx.i72.i.1 = getelementptr inbounds i64, i64* %g.coerce, i64 %inc42.i
  %45 = load i64, i64* %arrayidx.i72.i.1, align 8, !tbaa !49
  %arrayidx39.i.1 = getelementptr inbounds i64, i64* %Out, i64 %inc42.i
  store i64 %add.i.i, i64* %arrayidx39.i.1, align 8, !tbaa !49
  %add.i.i.1 = add nsw i64 %45, %add.i.i
  %inc42.i.1 = add nsw i64 %i32.0112.i, 2
  %arrayidx.i72.i.2 = getelementptr inbounds i64, i64* %g.coerce, i64 %inc42.i.1
  %46 = load i64, i64* %arrayidx.i72.i.2, align 8, !tbaa !49
  %arrayidx39.i.2 = getelementptr inbounds i64, i64* %Out, i64 %inc42.i.1
  store i64 %add.i.i.1, i64* %arrayidx39.i.2, align 8, !tbaa !49
  %add.i.i.2 = add nsw i64 %46, %add.i.i.1
  %inc42.i.2 = add nsw i64 %i32.0112.i, 3
  %arrayidx.i72.i.3 = getelementptr inbounds i64, i64* %g.coerce, i64 %inc42.i.2
  %47 = load i64, i64* %arrayidx.i72.i.3, align 8, !tbaa !49
  %arrayidx39.i.3 = getelementptr inbounds i64, i64* %Out, i64 %inc42.i.2
  store i64 %add.i.i.2, i64* %arrayidx39.i.3, align 8, !tbaa !49
  %add.i.i.3 = add nsw i64 %47, %add.i.i.2
  %inc42.i.3 = add nsw i64 %i32.0112.i, 4
  %arrayidx.i72.i.4 = getelementptr inbounds i64, i64* %g.coerce, i64 %inc42.i.3
  %48 = load i64, i64* %arrayidx.i72.i.4, align 8, !tbaa !49
  %arrayidx39.i.4 = getelementptr inbounds i64, i64* %Out, i64 %inc42.i.3
  store i64 %add.i.i.3, i64* %arrayidx39.i.4, align 8, !tbaa !49
  %add.i.i.4 = add nsw i64 %48, %add.i.i.3
  %inc42.i.4 = add nsw i64 %i32.0112.i, 5
  %arrayidx.i72.i.5 = getelementptr inbounds i64, i64* %g.coerce, i64 %inc42.i.4
  %49 = load i64, i64* %arrayidx.i72.i.5, align 8, !tbaa !49
  %arrayidx39.i.5 = getelementptr inbounds i64, i64* %Out, i64 %inc42.i.4
  store i64 %add.i.i.4, i64* %arrayidx39.i.5, align 8, !tbaa !49
  %add.i.i.5 = add nsw i64 %49, %add.i.i.4
  %inc42.i.5 = add nsw i64 %i32.0112.i, 6
  %arrayidx.i72.i.6 = getelementptr inbounds i64, i64* %g.coerce, i64 %inc42.i.5
  %50 = load i64, i64* %arrayidx.i72.i.6, align 8, !tbaa !49
  %arrayidx39.i.6 = getelementptr inbounds i64, i64* %Out, i64 %inc42.i.5
  store i64 %add.i.i.5, i64* %arrayidx39.i.6, align 8, !tbaa !49
  %add.i.i.6 = add nsw i64 %50, %add.i.i.5
  %inc42.i.6 = add nsw i64 %i32.0112.i, 7
  %arrayidx.i72.i.7 = getelementptr inbounds i64, i64* %g.coerce, i64 %inc42.i.6
  %51 = load i64, i64* %arrayidx.i72.i.7, align 8, !tbaa !49
  %arrayidx39.i.7 = getelementptr inbounds i64, i64* %Out, i64 %inc42.i.6
  store i64 %add.i.i.6, i64* %arrayidx39.i.7, align 8, !tbaa !49
  %add.i.i.7 = add nsw i64 %51, %add.i.i.6
  %inc42.i.7 = add nsw i64 %i32.0112.i, 8
  %exitcond117.i.7 = icmp eq i64 %inc42.i.7, %e
  br i1 %exitcond117.i.7, label %cleanup, label %for.body36.i

pfor.detach.lr.ph:                                ; preds = %entry
  %52 = tail call i32 @__cilkrts_get_nworkers()
  %__cilkrts_wc8317 = shl i32 %52, 3
  %mul = shl nsw i64 %add, 3
  %call9 = tail call noalias i8* @malloc(i64 %mul) #2
  %53 = bitcast i8* %call9 to i64*
  %54 = sub i64 -2, %s
  %55 = sub i64 -1025, %s
  %56 = xor i64 %e, -1
  %57 = icmp sgt i64 %div, 0
  %smax313 = select i1 %57, i64 %div, i64 0
  %58 = zext i32 %__cilkrts_wc8317 to i64
  %59 = add nsw i64 %smax313, -1
  %60 = add nsw i64 %59, %58
  %61 = udiv i64 %60, %58
  %62 = icmp ult i64 %61, 2048
  %63 = select i1 %62, i64 %61, i64 2048
  tail call fastcc void @_ZN8sequence4scanIllN5utils4addFIlEENS_4getAIllEEEET_PS6_T0_S8_T1_T2_S6_bb_pfor.detach.ls(i64 0, i64 %smax313, i64 %63, i64 %54, i64 %55, i64 %56, i64 %s, i64 %e, i64* %g.coerce, i64* %53)
  %call35 = tail call i64 @_ZN8sequence4scanIllN5utils4addFIlEENS_4getAIllEEEET_PS6_T0_S8_T1_T2_S6_bb(i64* %53, i64 0, i64 %add, i64* %53, i64 %zero, i1 zeroext false, i1 zeroext %back)
  %64 = xor i64 %s, -1
  br i1 %inclusive, label %pfor.detach55.us.preheader, label %pfor.detach55.preheader

pfor.detach55.preheader:                          ; preds = %pfor.detach.lr.ph
  tail call fastcc void @_ZN8sequence4scanIllN5utils4addFIlEENS_4getAIllEEEET_PS6_T0_S8_T1_T2_S6_bb_pfor.detach55.ls(i64 0, i64 %smax313, i64 %63, i64 %55, i64 %56, i64 %64, i64 %54, i64 %s, i64 %e, i64* %53, i1 %back, i64* %g.coerce, i64* %Out)
  br label %sync.continue78

pfor.detach55.us.preheader:                       ; preds = %pfor.detach.lr.ph
  tail call fastcc void @_ZN8sequence4scanIllN5utils4addFIlEENS_4getAIllEEEET_PS6_T0_S8_T1_T2_S6_bb_pfor.detach55.us.ls(i64 0, i64 %smax313, i64 %63, i64 %55, i64 %56, i64 %64, i64 %54, i64 %s, i64 %e, i64* %53, i1 %back, i64* %g.coerce, i64* %Out)
  br label %sync.continue78

sync.continue78:                                  ; preds = %pfor.detach55.us.preheader, %pfor.detach55.preheader
  tail call void @free(i8* %call9) #2
  br label %cleanup

cleanup:                                          ; preds = %for.body36.i, %for.body24.i, %for.body9.i, %for.body.i, %for.body36.i.prol.loopexit, %for.body24.i.prol.loopexit, %for.body9.i.prol.loopexit, %for.body.i.prol.loopexit, %if.else31.i, %if.then18.i, %if.else.i, %if.then3.i, %sync.continue78
  %retval.0 = phi i64 [ %call35, %sync.continue78 ], [ %zero, %if.then3.i ], [ %zero, %if.else.i ], [ %zero, %if.then18.i ], [ %zero, %if.else31.i ], [ %add.i79.i.lcssa.unr, %for.body.i.prol.loopexit ], [ %add.i76.i.lcssa.unr, %for.body9.i.prol.loopexit ], [ %add.i73.i.lcssa.unr, %for.body24.i.prol.loopexit ], [ %add.i.i.lcssa.unr, %for.body36.i.prol.loopexit ], [ %add.i79.i.7, %for.body.i ], [ %add.i76.i.7, %for.body9.i ], [ %add.i73.i.7, %for.body24.i ], [ %add.i.i.7, %for.body36.i ]
  ret i64 %retval.0
}

declare %"class.std::basic_filebuf"* @_ZNSt13basic_filebufIcSt11char_traitsIcEE5closeEv(%"class.std::basic_filebuf"*) local_unnamed_addr #0

; Function Attrs: nounwind
declare void @_ZNSt12__basic_fileIcED1Ev(%"class.std::__basic_file"*) unnamed_addr #1

; Function Attrs: nounwind
declare void @_ZNSt6localeD1Ev(%"class.std::locale"*) unnamed_addr #1

; Function Attrs: nounwind
declare void @_ZNSt8ios_baseD2Ev(%"class.std::ios_base"*) unnamed_addr #1

; Function Attrs: nounwind readonly
declare zeroext i1 @_ZNKSt12__basic_fileIcE7is_openEv(%"class.std::__basic_file"*) local_unnamed_addr #11

; Function Attrs: nounwind
declare i32 @_ZNKSt7__cxx1112basic_stringIcSt11char_traitsIcESaIcEE7compareEPKc(%"class.std::__cxx11::basic_string"*, i8*) local_unnamed_addr #1

; Function Attrs: nounwind uwtable
define linkonce_odr void @_Z3ANNILi1E6vertexI8_point2dIdELi1EEEvPPT0_ii(%struct.vertex** %v, i32 %n, i32 %k) local_unnamed_addr #7 comdat {
entry:
  %call.i = tail call %class.gTreeNode* @_ZN9gTreeNodeI8_point2dIdE7_vect2dIdE6vertexIS1_Li1EE5nDataIS5_EE5gTreeEPPS5_i(%struct.vertex** %v, i32 %n) #2
  %count.i.i = getelementptr inbounds %class.gTreeNode, %class.gTreeNode* %call.i, i64 0, i32 3
  %0 = load i32, i32* %count.i.i, align 4, !tbaa !80
  %1 = sext i32 %0 to i64
  %2 = tail call { i64, i1 } @llvm.umul.with.overflow.i64(i64 %1, i64 8) #2
  %3 = extractvalue { i64, i1 } %2, 1
  %4 = extractvalue { i64, i1 } %2, 0
  %5 = select i1 %3, i64 -1, i64 %4
  %call.i.i = tail call i8* @_Znam(i64 %5) #22
  %6 = bitcast i8* %call.i.i to %struct.vertex**
  tail call void @_ZN9gTreeNodeI8_point2dIdE7_vect2dIdE6vertexIS1_Li1EE5nDataIS5_EE10applyIndexINS8_10flatten_FAEEEviT_(%class.gTreeNode* %call.i, i32 0, %struct.vertex** nonnull %6) #2
  %cmp24 = icmp sgt i32 %n, 0
  br i1 %cmp24, label %pfor.detach.lr.ph, label %sync.continue

pfor.detach.lr.ph:                                ; preds = %entry
  %cmp.i.i = icmp sgt i32 %k, 1
  %7 = zext i32 %k to i64
  %8 = shl nuw nsw i64 %7, 3
  br i1 %cmp.i.i, label %pfor.detach.lr.ph.split.us, label %pfor.detach.lr.ph.split

pfor.detach.lr.ph.split.us:                       ; preds = %pfor.detach.lr.ph
  %call.i.i17 = tail call dereferenceable(272) %"class.std::basic_ostream"* @_ZStlsISt11char_traitsIcEERSt13basic_ostreamIcT_ES5_PKc(%"class.std::basic_ostream"* nonnull dereferenceable(272) @_ZSt4cout, i8* getelementptr inbounds ([19 x i8], [19 x i8]* @.str.26, i64 0, i64 0)) #2
  %call.i.i.i = tail call dereferenceable(272) %"class.std::basic_ostream"* @_ZSt4endlIcSt11char_traitsIcEERSt13basic_ostreamIT_T0_ES6_(%"class.std::basic_ostream"* nonnull dereferenceable(272) %call.i.i17) #2
  tail call void @abort() #21
  unreachable

pfor.detach.lr.ph.split:                          ; preds = %pfor.detach.lr.ph
  %cmp515.i.i = icmp eq i32 %k, 1
  %wide.trip.count = zext i32 %n to i64
  br i1 %cmp515.i.i, label %pfor.detach.lr.ph.split.split.us, label %pfor.detach.preheader

pfor.detach.preheader:                            ; preds = %pfor.detach.lr.ph.split
  %9 = add nsw i64 %wide.trip.count, -1
  tail call fastcc void @_Z3ANNILi1E6vertexI8_point2dIdELi1EEEvPPT0_ii_pfor.detach.ls(i64 0, i64 %9, %struct.vertex** nonnull %6, i32 %k, %class.gTreeNode* %call.i)
  br label %sync.continue

pfor.detach.lr.ph.split.split.us:                 ; preds = %pfor.detach.lr.ph.split
  %10 = add nsw i64 %7, -1
  %xtraiter84 = and i64 %7, 7
  %lcmp.mod85 = icmp eq i64 %xtraiter84, 0
  %11 = add nsw i64 %wide.trip.count, -1
  tail call fastcc void @_Z3ANNILi1E6vertexI8_point2dIdELi1EEEvPPT0_ii_pfor.detach.us26.ls(i64 0, i64 %11, %struct.vertex** nonnull %6, %class.gTreeNode* %call.i, i64 %8, i64 %10, i1 %lcmp.mod85, i64 %xtraiter84, i64 %7)
  br label %sync.continue

sync.continue:                                    ; preds = %entry, %pfor.detach.lr.ph.split.split.us, %pfor.detach.preheader
  tail call void @free(i8* nonnull %call.i.i) #2
  %12 = bitcast %class.gTreeNode* %call.i to %class.gTreeNode.18*
  tail call void @_ZN9gTreeNodeI8_point2dIdE7_vect2dIdE6vertexIS1_Li10EE5nDataIS5_EE3delEv(%class.gTreeNode.18* %12) #2
  ret void
}

; Function Attrs: nounwind uwtable
define linkonce_odr void @_ZN5timer7reportTEd(%struct.timer* %this, double %time) local_unnamed_addr #7 comdat align 2 {
entry:
  %call1.i = tail call dereferenceable(272) %"class.std::basic_ostream"* @_ZSt16__ostream_insertIcSt11char_traitsIcEERSt13basic_ostreamIT_T0_ES6_PKS3_l(%"class.std::basic_ostream"* nonnull dereferenceable(272) @_ZSt4cout, i8* nonnull getelementptr inbounds ([12 x i8], [12 x i8]* @.str.27, i64 0, i64 0), i64 11) #2
  %vtable.i = load i8*, i8** bitcast (%"class.std::basic_ostream"* @_ZSt4cout to i8**), align 8, !tbaa !32
  %vbase.offset.ptr.i = getelementptr i8, i8* %vtable.i, i64 -24
  %0 = bitcast i8* %vbase.offset.ptr.i to i64*
  %vbase.offset.i = load i64, i64* %0, align 8
  %add.ptr.i = getelementptr inbounds i8, i8* bitcast (%"class.std::basic_ostream"* @_ZSt4cout to i8*), i64 %vbase.offset.i
  %_M_precision.i.i = getelementptr inbounds i8, i8* %add.ptr.i, i64 8
  %1 = bitcast i8* %_M_precision.i.i to i64*
  store i64 3, i64* %1, align 8, !tbaa !84
  %call.i = tail call dereferenceable(272) %"class.std::basic_ostream"* @_ZNSo9_M_insertIdEERSoT_(%"class.std::basic_ostream"* nonnull @_ZSt4cout, double %time) #2
  %2 = bitcast %"class.std::basic_ostream"* %call.i to i8**
  %vtable.i7 = load i8*, i8** %2, align 8, !tbaa !32
  %vbase.offset.ptr.i8 = getelementptr i8, i8* %vtable.i7, i64 -24
  %3 = bitcast i8* %vbase.offset.ptr.i8 to i64*
  %vbase.offset.i9 = load i64, i64* %3, align 8
  %4 = bitcast %"class.std::basic_ostream"* %call.i to i8*
  %add.ptr.i10 = getelementptr inbounds i8, i8* %4, i64 %vbase.offset.i9
  %_M_ctype.i.i = getelementptr inbounds i8, i8* %add.ptr.i10, i64 240
  %5 = bitcast i8* %_M_ctype.i.i to %"class.std::ctype"**
  %6 = load %"class.std::ctype"*, %"class.std::ctype"** %5, align 8, !tbaa !41
  %tobool.i.i.i = icmp eq %"class.std::ctype"* %6, null
  br i1 %tobool.i.i.i, label %if.then.i.i.i, label %_ZSt13__check_facetISt5ctypeIcEERKT_PS3_.exit.i.i

if.then.i.i.i:                                    ; preds = %entry
  tail call void @_ZSt16__throw_bad_castv() #21
  unreachable

_ZSt13__check_facetISt5ctypeIcEERKT_PS3_.exit.i.i: ; preds = %entry
  %_M_widen_ok.i.i.i = getelementptr inbounds %"class.std::ctype", %"class.std::ctype"* %6, i64 0, i32 8
  %7 = load i8, i8* %_M_widen_ok.i.i.i, align 8, !tbaa !43
  %tobool.i3.i.i = icmp eq i8 %7, 0
  br i1 %tobool.i3.i.i, label %if.end.i.i.i, label %if.then.i4.i.i

if.then.i4.i.i:                                   ; preds = %_ZSt13__check_facetISt5ctypeIcEERKT_PS3_.exit.i.i
  %arrayidx.i.i.i = getelementptr inbounds %"class.std::ctype", %"class.std::ctype"* %6, i64 0, i32 9, i64 10
  %8 = load i8, i8* %arrayidx.i.i.i, align 1, !tbaa !22
  br label %_ZSt4endlIcSt11char_traitsIcEERSt13basic_ostreamIT_T0_ES6_.exit

if.end.i.i.i:                                     ; preds = %_ZSt13__check_facetISt5ctypeIcEERKT_PS3_.exit.i.i
  tail call void @_ZNKSt5ctypeIcE13_M_widen_initEv(%"class.std::ctype"* nonnull %6) #2
  %9 = bitcast %"class.std::ctype"* %6 to i8 (%"class.std::ctype"*, i8)***
  %vtable.i.i.i = load i8 (%"class.std::ctype"*, i8)**, i8 (%"class.std::ctype"*, i8)*** %9, align 8, !tbaa !32
  %vfn.i.i.i = getelementptr inbounds i8 (%"class.std::ctype"*, i8)*, i8 (%"class.std::ctype"*, i8)** %vtable.i.i.i, i64 6
  %10 = load i8 (%"class.std::ctype"*, i8)*, i8 (%"class.std::ctype"*, i8)** %vfn.i.i.i, align 8
  %call.i.i.i = tail call signext i8 %10(%"class.std::ctype"* nonnull %6, i8 signext 10) #2
  br label %_ZSt4endlIcSt11char_traitsIcEERSt13basic_ostreamIT_T0_ES6_.exit

_ZSt4endlIcSt11char_traitsIcEERSt13basic_ostreamIT_T0_ES6_.exit: ; preds = %if.then.i4.i.i, %if.end.i.i.i
  %retval.0.i.i.i = phi i8 [ %8, %if.then.i4.i.i ], [ %call.i.i.i, %if.end.i.i.i ]
  %call1.i11 = tail call dereferenceable(272) %"class.std::basic_ostream"* @_ZNSo3putEc(%"class.std::basic_ostream"* nonnull %call.i, i8 signext %retval.0.i.i.i) #2
  %call.i.i12 = tail call dereferenceable(272) %"class.std::basic_ostream"* @_ZNSo5flushEv(%"class.std::basic_ostream"* nonnull %call1.i11) #2
  ret void
}

; Function Attrs: nounwind uwtable
define linkonce_odr i32 @_ZN7benchIO19writeIntArrayToFileIiEET_PS1_lPc(i32* %A, i64 %n, i8* %fileName) local_unnamed_addr #7 comdat {
entry:
  %__dnew.i.i.i.i = alloca i64, align 8
  %agg.tmp = alloca %"class.std::__cxx11::basic_string", align 8
  %0 = getelementptr inbounds %"class.std::__cxx11::basic_string", %"class.std::__cxx11::basic_string"* %agg.tmp, i64 0, i32 2
  %1 = bitcast %"class.std::__cxx11::basic_string"* %agg.tmp to %union.anon.1**
  store %union.anon.1* %0, %union.anon.1** %1, align 8, !tbaa !47
  %2 = load i8*, i8** getelementptr inbounds (%"class.std::__cxx11::basic_string", %"class.std::__cxx11::basic_string"* @_ZN7benchIO11intHeaderIOB5cxx11E, i64 0, i32 0, i32 0), align 8, !tbaa !50
  %3 = load i64, i64* getelementptr inbounds (%"class.std::__cxx11::basic_string", %"class.std::__cxx11::basic_string"* @_ZN7benchIO11intHeaderIOB5cxx11E, i64 0, i32 1), align 8, !tbaa !52
  %cmp.i.i.i.i.i = icmp ne i8* %2, null
  %cmp.i.i.i.i = icmp eq i64 %3, 0
  %or.cond.i.i.i.i = or i1 %cmp.i.i.i.i.i, %cmp.i.i.i.i
  %4 = bitcast %union.anon.1* %0 to i8*
  br i1 %or.cond.i.i.i.i, label %if.end.i.i.i.i, label %if.then.i.i.i.i

if.then.i.i.i.i:                                  ; preds = %entry
  call void @_ZSt19__throw_logic_errorPKc(i8* getelementptr inbounds ([42 x i8], [42 x i8]* @.str.20, i64 0, i64 0)) #21
  unreachable

if.end.i.i.i.i:                                   ; preds = %entry
  %5 = bitcast i64* %__dnew.i.i.i.i to i8*
  call void @llvm.lifetime.start.p0i8(i64 8, i8* nonnull %5) #2
  store i64 %3, i64* %__dnew.i.i.i.i, align 8, !tbaa !49
  %cmp3.i.i.i.i = icmp ugt i64 %3, 15
  br i1 %cmp3.i.i.i.i, label %if.then4.i.i.i.i, label %if.end.if.end6_crit_edge.i.i.i.i

if.end.if.end6_crit_edge.i.i.i.i:                 ; preds = %if.end.i.i.i.i
  %_M_p.i.phi.trans.insert.i.i.i.i = getelementptr inbounds %"class.std::__cxx11::basic_string", %"class.std::__cxx11::basic_string"* %agg.tmp, i64 0, i32 0, i32 0
  br label %if.end6.i.i.i.i

if.then4.i.i.i.i:                                 ; preds = %if.end.i.i.i.i
  %call5.i.i.i.i = call i8* @_ZNSt7__cxx1112basic_stringIcSt11char_traitsIcESaIcEE9_M_createERmm(%"class.std::__cxx11::basic_string"* nonnull %agg.tmp, i64* nonnull dereferenceable(8) %__dnew.i.i.i.i, i64 0) #2
  %_M_p.i13.i.i.i.i = getelementptr inbounds %"class.std::__cxx11::basic_string", %"class.std::__cxx11::basic_string"* %agg.tmp, i64 0, i32 0, i32 0
  store i8* %call5.i.i.i.i, i8** %_M_p.i13.i.i.i.i, align 8, !tbaa !50
  %6 = load i64, i64* %__dnew.i.i.i.i, align 8, !tbaa !49
